
MainMenu.elf:     file format elf32-avr

Sections:
Idx Name          Size      VMA       LMA       File off  Algn
  0 .data         00000636  00800100  000059d4  00005a68  2**0
                  CONTENTS, ALLOC, LOAD, DATA
  1 .text         000059d4  00000000  00000000  00000094  2**1
                  CONTENTS, ALLOC, LOAD, READONLY, CODE
  2 .bss          000008b6  00800736  00800736  0000609e  2**0
                  ALLOC
  3 .comment      00000030  00000000  00000000  0000609e  2**0
                  CONTENTS, READONLY
  4 .note.gnu.avr.deviceinfo 00000040  00000000  00000000  000060d0  2**2
                  CONTENTS, READONLY
  5 .debug_aranges 00000528  00000000  00000000  00006110  2**0
                  CONTENTS, READONLY, DEBUGGING
  6 .debug_info   00009d78  00000000  00000000  00006638  2**0
                  CONTENTS, READONLY, DEBUGGING
  7 .debug_abbrev 00001726  00000000  00000000  000103b0  2**0
                  CONTENTS, READONLY, DEBUGGING
  8 .debug_line   000054c1  00000000  00000000  00011ad6  2**0
                  CONTENTS, READONLY, DEBUGGING
  9 .debug_frame  00000e30  00000000  00000000  00016f98  2**2
                  CONTENTS, READONLY, DEBUGGING
 10 .debug_str    00001f18  00000000  00000000  00017dc8  2**0
                  CONTENTS, READONLY, DEBUGGING
 11 .debug_loc    00004be5  00000000  00000000  00019ce0  2**0
                  CONTENTS, READONLY, DEBUGGING
 12 .debug_ranges 00000568  00000000  00000000  0001e8c5  2**0
                  CONTENTS, READONLY, DEBUGGING

Disassembly of section .text:

00000000 <__vectors>:
       0:	a8 c1       	rjmp	.+848    	; 0x352 <__ctors_end>
       2:	00 00       	nop
       4:	c5 c1       	rjmp	.+906    	; 0x390 <__bad_interrupt>
       6:	00 00       	nop
       8:	c3 c1       	rjmp	.+902    	; 0x390 <__bad_interrupt>
       a:	00 00       	nop
       c:	c1 c1       	rjmp	.+898    	; 0x390 <__bad_interrupt>
       e:	00 00       	nop
      10:	bf c1       	rjmp	.+894    	; 0x390 <__bad_interrupt>
      12:	00 00       	nop
      14:	bd c1       	rjmp	.+890    	; 0x390 <__bad_interrupt>
      16:	00 00       	nop
      18:	bb c1       	rjmp	.+886    	; 0x390 <__bad_interrupt>
      1a:	00 00       	nop
      1c:	b9 c1       	rjmp	.+882    	; 0x390 <__bad_interrupt>
      1e:	00 00       	nop
      20:	b7 c1       	rjmp	.+878    	; 0x390 <__bad_interrupt>
      22:	00 00       	nop
      24:	b5 c1       	rjmp	.+874    	; 0x390 <__bad_interrupt>
      26:	00 00       	nop
      28:	b3 c1       	rjmp	.+870    	; 0x390 <__bad_interrupt>
      2a:	00 00       	nop
      2c:	b1 c1       	rjmp	.+866    	; 0x390 <__bad_interrupt>
      2e:	00 00       	nop
      30:	af c1       	rjmp	.+862    	; 0x390 <__bad_interrupt>
      32:	00 00       	nop
      34:	0c 94 d3 26 	jmp	0x4da6	; 0x4da6 <__vector_13>
      38:	ab c1       	rjmp	.+854    	; 0x390 <__bad_interrupt>
      3a:	00 00       	nop
      3c:	a9 c1       	rjmp	.+850    	; 0x390 <__bad_interrupt>
      3e:	00 00       	nop
      40:	a7 c1       	rjmp	.+846    	; 0x390 <__bad_interrupt>
      42:	00 00       	nop
      44:	a5 c1       	rjmp	.+842    	; 0x390 <__bad_interrupt>
      46:	00 00       	nop
      48:	a3 c1       	rjmp	.+838    	; 0x390 <__bad_interrupt>
      4a:	00 00       	nop
      4c:	a1 c1       	rjmp	.+834    	; 0x390 <__bad_interrupt>
      4e:	00 00       	nop
      50:	9f c1       	rjmp	.+830    	; 0x390 <__bad_interrupt>
      52:	00 00       	nop
      54:	9d c1       	rjmp	.+826    	; 0x390 <__bad_interrupt>
      56:	00 00       	nop
      58:	9b c1       	rjmp	.+822    	; 0x390 <__bad_interrupt>
      5a:	00 00       	nop
      5c:	99 c1       	rjmp	.+818    	; 0x390 <__bad_interrupt>
      5e:	00 00       	nop
      60:	97 c1       	rjmp	.+814    	; 0x390 <__bad_interrupt>
      62:	00 00       	nop
      64:	95 c1       	rjmp	.+810    	; 0x390 <__bad_interrupt>
      66:	00 00       	nop
      68:	93 c1       	rjmp	.+806    	; 0x390 <__bad_interrupt>
      6a:	00 00       	nop
      6c:	91 c1       	rjmp	.+802    	; 0x390 <__bad_interrupt>
      6e:	00 00       	nop
      70:	8f c1       	rjmp	.+798    	; 0x390 <__bad_interrupt>
      72:	00 00       	nop
      74:	8d c1       	rjmp	.+794    	; 0x390 <__bad_interrupt>
      76:	00 00       	nop
      78:	8b c1       	rjmp	.+790    	; 0x390 <__bad_interrupt>
      7a:	00 00       	nop
      7c:	89 c1       	rjmp	.+786    	; 0x390 <__bad_interrupt>
      7e:	00 00       	nop
      80:	87 c1       	rjmp	.+782    	; 0x390 <__bad_interrupt>
      82:	00 00       	nop
      84:	85 c1       	rjmp	.+778    	; 0x390 <__bad_interrupt>
      86:	00 00       	nop
      88:	83 c1       	rjmp	.+774    	; 0x390 <__bad_interrupt>
      8a:	00 00       	nop
      8c:	fa 06       	cpc	r15, r26
      8e:	08 07       	cpc	r16, r24
      90:	16 07       	cpc	r17, r22
      92:	24 07       	cpc	r18, r20
      94:	32 07       	cpc	r19, r18
      96:	40 07       	cpc	r20, r16
      98:	4e 07       	cpc	r20, r30
      9a:	5c 07       	cpc	r21, r28
      9c:	6a 07       	cpc	r22, r26
      9e:	78 07       	cpc	r23, r24
      a0:	86 07       	cpc	r24, r22
      a2:	94 07       	cpc	r25, r20
      a4:	ae 07       	cpc	r26, r30
      a6:	c9 07       	cpc	r28, r25
      a8:	db 07       	cpc	r29, r27
      aa:	ed 07       	cpc	r30, r29
      ac:	0e 08       	sbc	r0, r14
      ae:	33 08       	sbc	r3, r3
      b0:	45 08       	sbc	r4, r5
      b2:	57 08       	sbc	r5, r7
      b4:	80 08       	sbc	r8, r0
      b6:	88 08       	sbc	r8, r8
      b8:	90 08       	sbc	r9, r0
      ba:	0c 09       	sbc	r16, r12
      bc:	20 09       	sbc	r18, r0
      be:	72 09       	sbc	r23, r2
      c0:	6c 0a       	sbc	r6, r28
      c2:	f4 0a       	sbc	r15, r20
      c4:	5b 0b       	sbc	r21, r27
      c6:	fc 0b       	sbc	r31, r28
      c8:	bf 0c       	add	r11, r15
      ca:	f4 0c       	add	r15, r4
      cc:	62 0d       	add	r22, r2
      ce:	67 0d       	add	r22, r7
      d0:	b6 0d       	add	r27, r6
      d2:	02 0e       	add	r0, r18
      d4:	2a 0e       	add	r2, r26
      d6:	78 0e       	add	r7, r24
      d8:	bf 0e       	add	r11, r31
      da:	76 0f       	add	r23, r22
      dc:	f4 0c       	add	r15, r4
      de:	5d 0d       	add	r21, r13
      e0:	67 0d       	add	r22, r7
      e2:	b6 0d       	add	r27, r6
      e4:	02 0e       	add	r0, r18
      e6:	2a 0e       	add	r2, r26
      e8:	78 0e       	add	r7, r24
      ea:	bf 0e       	add	r11, r31
      ec:	76 0f       	add	r23, r22
      ee:	f4 0c       	add	r15, r4
      f0:	62 0d       	add	r22, r2
      f2:	6b 0d       	add	r22, r11
      f4:	b6 0d       	add	r27, r6
      f6:	02 0e       	add	r0, r18
      f8:	2a 0e       	add	r2, r26
      fa:	78 0e       	add	r7, r24
      fc:	bf 0e       	add	r11, r31
      fe:	76 0f       	add	r23, r22
     100:	5e 17       	cp	r21, r30
     102:	90 17       	cp	r25, r16
     104:	9c 17       	cp	r25, r28
     106:	bb 17       	cp	r27, r27
     108:	fd 17       	cp	r31, r29
     10a:	23 18       	sub	r2, r3
     10c:	76 18       	sub	r7, r6
     10e:	ac 18       	sub	r10, r12
     110:	b2 19       	sub	r27, r2
     112:	5e 17       	cp	r21, r30
     114:	95 17       	cp	r25, r21
     116:	9c 17       	cp	r25, r28
     118:	bb 17       	cp	r27, r27
     11a:	fd 17       	cp	r31, r29
     11c:	23 18       	sub	r2, r3
     11e:	76 18       	sub	r7, r6
     120:	ac 18       	sub	r10, r12
     122:	b2 19       	sub	r27, r2
     124:	8b 1e       	adc	r8, r27
     126:	c9 1e       	adc	r12, r25
     128:	dd 1e       	adc	r13, r29
     12a:	d3 1e       	adc	r13, r19
     12c:	e7 1e       	adc	r14, r23
     12e:	16 1f       	adc	r17, r22
     130:	3a 1f       	adc	r19, r26
     132:	b5 21       	and	r27, r5
     134:	f1 21       	and	r31, r1
     136:	fb 21       	and	r31, r11
     138:	05 22       	and	r0, r21
     13a:	29 22       	and	r2, r25
     13c:	32 22       	and	r3, r18
     13e:	53 22       	and	r5, r19
     140:	61 22       	and	r6, r17
     142:	b5 21       	and	r27, r5
     144:	f1 21       	and	r31, r1
     146:	fb 21       	and	r31, r11
     148:	05 22       	and	r0, r21
     14a:	25 22       	and	r2, r21
     14c:	36 22       	and	r3, r22
     14e:	53 22       	and	r5, r19
     150:	61 22       	and	r6, r17
     152:	b5 21       	and	r27, r5
     154:	f1 21       	and	r31, r1
     156:	fb 21       	and	r31, r11
     158:	05 22       	and	r0, r21
     15a:	25 22       	and	r2, r21
     15c:	3a 22       	and	r3, r26
     15e:	53 22       	and	r5, r19
     160:	61 22       	and	r6, r17
     162:	b5 21       	and	r27, r5
     164:	f1 21       	and	r31, r1
     166:	fb 21       	and	r31, r11
     168:	05 22       	and	r0, r21
     16a:	25 22       	and	r2, r21
     16c:	32 22       	and	r3, r18
     16e:	53 22       	and	r5, r19
     170:	61 22       	and	r6, r17

00000172 <CHARSET>:
     172:	00 00 00 00 00 00 00 5f 00 00 00 07 00 07 00 14     ......._........
     182:	7f 14 7f 14 24 2a 7f 2a 12 23 13 08 64 62 36 49     ....$*.*.#..db6I
     192:	55 22 50 00 05 03 00 00 00 1c 22 41 00 00 41 22     U"P......."A..A"
     1a2:	1c 00 14 08 3e 08 14 08 08 3e 08 08 00 50 30 00     ....>....>...P0.
     1b2:	00 08 08 08 08 08 00 60 60 00 00 20 10 08 04 02     .......``.. ....
     1c2:	3e 51 49 45 3e 00 42 7f 40 00 42 61 51 49 46 21     >QIE>.B.@.BaQIF!
     1d2:	41 45 4b 31 18 14 12 7f 10 27 45 45 45 39 3c 4a     AEK1.....'EEE9<J
     1e2:	49 49 30 01 71 09 05 03 36 49 49 49 36 06 49 49     II0.q...6III6.II
     1f2:	29 1e 00 36 36 00 00 00 56 36 00 00 08 14 22 41     )..66...V6...."A
     202:	00 14 14 14 14 14 00 41 22 14 08 02 01 51 09 06     .......A"....Q..
     212:	32 49 79 41 3e 7e 11 11 11 7e 7f 49 49 49 36 3e     2IyA>~...~.III6>
     222:	41 41 41 22 7f 41 41 22 1c 7f 49 49 49 41 7f 09     AAA".AA"..IIIA..
     232:	09 09 01 3e 41 49 49 7a 7f 08 08 08 7f 00 41 7f     ...>AIIz......A.
     242:	41 00 20 40 41 3f 01 7f 08 14 22 41 7f 40 40 40     A. @A?...."A.@@@
     252:	40 7f 02 0c 02 7f 7f 04 08 10 7f 3e 41 41 41 3e     @..........>AAA>
     262:	7f 09 09 09 06 3e 41 51 21 5e 7f 09 19 29 46 46     .....>AQ!^...)FF
     272:	49 49 49 31 01 01 7f 01 01 3f 40 40 40 3f 1f 20     III1.....?@@@?. 
     282:	40 20 1f 3f 40 38 40 3f 63 14 08 14 63 07 08 70     @ .?@8@?c...c..p
     292:	08 07 61 51 49 45 43 00 7f 41 41 00 02 04 08 10     ..aQIEC..AA.....
     2a2:	20 00 41 41 7f 00 04 02 01 02 04 40 40 40 40 40      .AA.......@@@@@
     2b2:	00 01 02 04 00 20 54 54 54 78 7f 48 44 44 38 38     ..... TTTx.HDD88
     2c2:	44 44 44 20 38 44 44 48 7f 38 54 54 54 18 08 7e     DDD 8DDH.8TTT..~
     2d2:	09 01 02 0c 52 52 52 3e 7f 08 04 04 78 00 44 7d     ....RRR>....x.D}
     2e2:	40 00 20 40 44 3d 00 7f 10 28 44 00 00 41 7f 40     @. @D=...(D..A.@
     2f2:	00 7c 04 18 04 78 7c 08 04 04 78 38 44 44 44 38     .|...x|...x8DDD8
     302:	7c 14 14 14 08 08 14 14 18 7c 7c 08 04 04 08 48     |........||....H
     312:	54 54 54 20 04 3f 44 40 20 3c 40 40 20 7c 1c 20     TTT .?D@ <@@ |. 
     322:	40 20 1c 3c 40 30 40 3c 44 28 10 28 44 0c 50 50     @ .<@0@<D(.(D.PP
     332:	50 3c 44 64 54 4c 44 00 08 36 41 00 00 00 7f 00     P<DdTLD..6A.....
     342:	00 00 41 36 08 00 10 08 08 10 08 00 00 00 00 00     ..A6............

00000352 <__ctors_end>:
     352:	11 24       	eor	r1, r1
     354:	1f be       	out	0x3f, r1	; 63
     356:	cf ef       	ldi	r28, 0xFF	; 255
     358:	d0 e4       	ldi	r29, 0x40	; 64
     35a:	de bf       	out	0x3e, r29	; 62
     35c:	cd bf       	out	0x3d, r28	; 61

0000035e <__do_copy_data>:
     35e:	17 e0       	ldi	r17, 0x07	; 7
     360:	a0 e0       	ldi	r26, 0x00	; 0
     362:	b1 e0       	ldi	r27, 0x01	; 1
     364:	e4 ed       	ldi	r30, 0xD4	; 212
     366:	f9 e5       	ldi	r31, 0x59	; 89
     368:	00 e0       	ldi	r16, 0x00	; 0
     36a:	0b bf       	out	0x3b, r16	; 59
     36c:	02 c0       	rjmp	.+4      	; 0x372 <__do_copy_data+0x14>
     36e:	07 90       	elpm	r0, Z+
     370:	0d 92       	st	X+, r0
     372:	a6 33       	cpi	r26, 0x36	; 54
     374:	b1 07       	cpc	r27, r17
     376:	d9 f7       	brne	.-10     	; 0x36e <__do_copy_data+0x10>

00000378 <__do_clear_bss>:
     378:	2f e0       	ldi	r18, 0x0F	; 15
     37a:	a6 e3       	ldi	r26, 0x36	; 54
     37c:	b7 e0       	ldi	r27, 0x07	; 7
     37e:	01 c0       	rjmp	.+2      	; 0x382 <.do_clear_bss_start>

00000380 <.do_clear_bss_loop>:
     380:	1d 92       	st	X+, r1

00000382 <.do_clear_bss_start>:
     382:	ac 3e       	cpi	r26, 0xEC	; 236
     384:	b2 07       	cpc	r27, r18
     386:	e1 f7       	brne	.-8      	; 0x380 <.do_clear_bss_loop>
     388:	0e 94 c7 23 	call	0x478e	; 0x478e <main>
     38c:	0c 94 e8 2c 	jmp	0x59d0	; 0x59d0 <_exit>

00000390 <__bad_interrupt>:
     390:	37 ce       	rjmp	.-914    	; 0x0 <__vectors>

00000392 <pvPortMalloc>:

static size_t xNextFreeByte = ( size_t ) 0;
/*-----------------------------------------------------------*/

void *pvPortMalloc( size_t xWantedSize )
{
     392:	cf 93       	push	r28
     394:	df 93       	push	r29
     396:	ec 01       	movw	r28, r24
			/* Byte alignment required. */
			xWantedSize += ( portBYTE_ALIGNMENT - ( xWantedSize & portBYTE_ALIGNMENT_MASK ) );
		}
	#endif

	vTaskSuspendAll();
     398:	0e 94 36 28 	call	0x506c	; 0x506c <vTaskSuspendAll>
	{
		/* Check there is enough room left for the allocation. */
		if( ( ( xNextFreeByte + xWantedSize ) < configTOTAL_HEAP_SIZE ) &&
     39c:	20 91 36 07 	lds	r18, 0x0736	; 0x800736 <__data_end>
     3a0:	30 91 37 07 	lds	r19, 0x0737	; 0x800737 <__data_end+0x1>
     3a4:	c9 01       	movw	r24, r18
     3a6:	8c 0f       	add	r24, r28
     3a8:	9d 1f       	adc	r25, r29
     3aa:	8c 3d       	cpi	r24, 0xDC	; 220
     3ac:	45 e0       	ldi	r20, 0x05	; 5
     3ae:	94 07       	cpc	r25, r20
     3b0:	58 f4       	brcc	.+22     	; 0x3c8 <pvPortMalloc+0x36>
     3b2:	28 17       	cp	r18, r24
     3b4:	39 07       	cpc	r19, r25
     3b6:	58 f4       	brcc	.+22     	; 0x3ce <pvPortMalloc+0x3c>
			( ( xNextFreeByte + xWantedSize ) > xNextFreeByte )	)/* Check for overflow. */
		{
			/* Return the next free byte then increment the index past this
			block. */
			pvReturn = &( xHeap.ucHeap[ xNextFreeByte ] );
     3b8:	e9 01       	movw	r28, r18
     3ba:	c8 5c       	subi	r28, 0xC8	; 200
     3bc:	d8 4f       	sbci	r29, 0xF8	; 248
			xNextFreeByte += xWantedSize;			
     3be:	90 93 37 07 	sts	0x0737, r25	; 0x800737 <__data_end+0x1>
     3c2:	80 93 36 07 	sts	0x0736, r24	; 0x800736 <__data_end>
     3c6:	05 c0       	rjmp	.+10     	; 0x3d2 <pvPortMalloc+0x40>
static size_t xNextFreeByte = ( size_t ) 0;
/*-----------------------------------------------------------*/

void *pvPortMalloc( size_t xWantedSize )
{
void *pvReturn = NULL; 
     3c8:	c0 e0       	ldi	r28, 0x00	; 0
     3ca:	d0 e0       	ldi	r29, 0x00	; 0
     3cc:	02 c0       	rjmp	.+4      	; 0x3d2 <pvPortMalloc+0x40>
     3ce:	c0 e0       	ldi	r28, 0x00	; 0
     3d0:	d0 e0       	ldi	r29, 0x00	; 0
			block. */
			pvReturn = &( xHeap.ucHeap[ xNextFreeByte ] );
			xNextFreeByte += xWantedSize;			
		}	
	}
	xTaskResumeAll();
     3d2:	0e 94 00 29 	call	0x5200	; 0x5200 <xTaskResumeAll>
		}
	}
	#endif	

	return pvReturn;
}
     3d6:	ce 01       	movw	r24, r28
     3d8:	df 91       	pop	r29
     3da:	cf 91       	pop	r28
     3dc:	08 95       	ret

000003de <vPortFree>:
/*-----------------------------------------------------------*/

void vPortFree( void *pv )
{
     3de:	08 95       	ret

000003e0 <HX711_is_ready>:
}

float HX711_get_scale(void)
{
	return SCALE;
}
     3e0:	80 b1       	in	r24, 0x00	; 0
     3e2:	86 95       	lsr	r24
     3e4:	86 95       	lsr	r24
     3e6:	91 e0       	ldi	r25, 0x01	; 1
     3e8:	89 27       	eor	r24, r25
     3ea:	81 70       	andi	r24, 0x01	; 1
     3ec:	90 e0       	ldi	r25, 0x00	; 0
     3ee:	08 95       	ret

000003f0 <HX711_read>:
     3f0:	f7 df       	rcall	.-18     	; 0x3e0 <HX711_is_ready>
     3f2:	89 2b       	or	r24, r25
     3f4:	e9 f3       	breq	.-6      	; 0x3f0 <HX711_read>
     3f6:	02 99       	sbic	0x00, 2	; 0
     3f8:	fe cf       	rjmp	.-4      	; 0x3f6 <HX711_read+0x6>
     3fa:	28 e1       	ldi	r18, 0x18	; 24
     3fc:	80 e0       	ldi	r24, 0x00	; 0
     3fe:	90 e0       	ldi	r25, 0x00	; 0
     400:	dc 01       	movw	r26, r24
     402:	13 9a       	sbi	0x02, 3	; 2
     404:	00 00       	nop
     406:	88 0f       	add	r24, r24
     408:	99 1f       	adc	r25, r25
     40a:	aa 1f       	adc	r26, r26
     40c:	bb 1f       	adc	r27, r27
     40e:	13 98       	cbi	0x02, 3	; 2
     410:	00 00       	nop
     412:	02 9b       	sbis	0x00, 2	; 0
     414:	03 c0       	rjmp	.+6      	; 0x41c <__LOCK_REGION_LENGTH__+0x1c>
     416:	01 96       	adiw	r24, 0x01	; 1
     418:	a1 1d       	adc	r26, r1
     41a:	b1 1d       	adc	r27, r1
     41c:	21 50       	subi	r18, 0x01	; 1
     41e:	89 f7       	brne	.-30     	; 0x402 <__LOCK_REGION_LENGTH__+0x2>
     420:	20 91 cf 0f 	lds	r18, 0x0FCF	; 0x800fcf <GAIN>
     424:	22 23       	and	r18, r18
     426:	51 f0       	breq	.+20     	; 0x43c <__LOCK_REGION_LENGTH__+0x3c>
     428:	20 e0       	ldi	r18, 0x00	; 0
     42a:	13 9a       	sbi	0x02, 3	; 2
     42c:	00 00       	nop
     42e:	13 98       	cbi	0x02, 3	; 2
     430:	00 00       	nop
     432:	2f 5f       	subi	r18, 0xFF	; 255
     434:	30 91 cf 0f 	lds	r19, 0x0FCF	; 0x800fcf <GAIN>
     438:	23 17       	cp	r18, r19
     43a:	b8 f3       	brcs	.-18     	; 0x42a <__LOCK_REGION_LENGTH__+0x2a>
     43c:	bc 01       	movw	r22, r24
     43e:	cd 01       	movw	r24, r26
     440:	80 58       	subi	r24, 0x80	; 128
     442:	08 95       	ret

00000444 <HX711_set_gain>:
     444:	80 34       	cpi	r24, 0x40	; 64
     446:	49 f0       	breq	.+18     	; 0x45a <HX711_set_gain+0x16>
     448:	80 38       	cpi	r24, 0x80	; 128
     44a:	19 f0       	breq	.+6      	; 0x452 <HX711_set_gain+0xe>
     44c:	80 32       	cpi	r24, 0x20	; 32
     44e:	61 f4       	brne	.+24     	; 0x468 <HX711_set_gain+0x24>
     450:	08 c0       	rjmp	.+16     	; 0x462 <HX711_set_gain+0x1e>
     452:	81 e0       	ldi	r24, 0x01	; 1
     454:	80 93 cf 0f 	sts	0x0FCF, r24	; 0x800fcf <GAIN>
     458:	07 c0       	rjmp	.+14     	; 0x468 <HX711_set_gain+0x24>
     45a:	83 e0       	ldi	r24, 0x03	; 3
     45c:	80 93 cf 0f 	sts	0x0FCF, r24	; 0x800fcf <GAIN>
     460:	03 c0       	rjmp	.+6      	; 0x468 <HX711_set_gain+0x24>
     462:	82 e0       	ldi	r24, 0x02	; 2
     464:	80 93 cf 0f 	sts	0x0FCF, r24	; 0x800fcf <GAIN>
     468:	13 98       	cbi	0x02, 3	; 2
     46a:	c2 cf       	rjmp	.-124    	; 0x3f0 <HX711_read>
     46c:	08 95       	ret

0000046e <HX711_init>:
     46e:	0b 9a       	sbi	0x01, 3	; 1
     470:	0a 98       	cbi	0x01, 2	; 1
     472:	12 9a       	sbi	0x02, 2	; 2
     474:	e7 cf       	rjmp	.-50     	; 0x444 <HX711_set_gain>
     476:	08 95       	ret

00000478 <HX711_read_average>:
     478:	cf 92       	push	r12
     47a:	df 92       	push	r13
     47c:	ef 92       	push	r14
     47e:	ff 92       	push	r15
     480:	cf 93       	push	r28
     482:	df 93       	push	r29
     484:	d8 2f       	mov	r29, r24
     486:	88 23       	and	r24, r24
     488:	69 f0       	breq	.+26     	; 0x4a4 <HX711_read_average+0x2c>
     48a:	c0 e0       	ldi	r28, 0x00	; 0
     48c:	c1 2c       	mov	r12, r1
     48e:	d1 2c       	mov	r13, r1
     490:	76 01       	movw	r14, r12
     492:	ae df       	rcall	.-164    	; 0x3f0 <HX711_read>
     494:	c6 0e       	add	r12, r22
     496:	d7 1e       	adc	r13, r23
     498:	e8 1e       	adc	r14, r24
     49a:	f9 1e       	adc	r15, r25
     49c:	cf 5f       	subi	r28, 0xFF	; 255
     49e:	dc 13       	cpse	r29, r28
     4a0:	f8 cf       	rjmp	.-16     	; 0x492 <HX711_read_average+0x1a>
     4a2:	03 c0       	rjmp	.+6      	; 0x4aa <HX711_read_average+0x32>
     4a4:	c1 2c       	mov	r12, r1
     4a6:	d1 2c       	mov	r13, r1
     4a8:	76 01       	movw	r14, r12
     4aa:	2d 2f       	mov	r18, r29
     4ac:	30 e0       	ldi	r19, 0x00	; 0
     4ae:	40 e0       	ldi	r20, 0x00	; 0
     4b0:	50 e0       	ldi	r21, 0x00	; 0
     4b2:	c7 01       	movw	r24, r14
     4b4:	b6 01       	movw	r22, r12
     4b6:	0e 94 7c 2c 	call	0x58f8	; 0x58f8 <__udivmodsi4>
     4ba:	ca 01       	movw	r24, r20
     4bc:	b9 01       	movw	r22, r18
     4be:	df 91       	pop	r29
     4c0:	cf 91       	pop	r28
     4c2:	ff 90       	pop	r15
     4c4:	ef 90       	pop	r14
     4c6:	df 90       	pop	r13
     4c8:	cf 90       	pop	r12
     4ca:	08 95       	ret

000004cc <HX711_get_value>:
     4cc:	d5 df       	rcall	.-86     	; 0x478 <HX711_read_average>
     4ce:	0e 94 43 2b 	call	0x5686	; 0x5686 <__floatunsisf>
     4d2:	20 91 cb 0f 	lds	r18, 0x0FCB	; 0x800fcb <OFFSET>
     4d6:	30 91 cc 0f 	lds	r19, 0x0FCC	; 0x800fcc <OFFSET+0x1>
     4da:	40 91 cd 0f 	lds	r20, 0x0FCD	; 0x800fcd <OFFSET+0x2>
     4de:	50 91 ce 0f 	lds	r21, 0x0FCE	; 0x800fce <OFFSET+0x3>
     4e2:	0c 94 45 2a 	jmp	0x548a	; 0x548a <__subsf3>
     4e6:	08 95       	ret

000004e8 <HX711_get_units>:
     4e8:	f1 df       	rcall	.-30     	; 0x4cc <HX711_get_value>
     4ea:	20 91 d0 0f 	lds	r18, 0x0FD0	; 0x800fd0 <SCALE>
     4ee:	30 91 d1 0f 	lds	r19, 0x0FD1	; 0x800fd1 <SCALE+0x1>
     4f2:	40 91 d2 0f 	lds	r20, 0x0FD2	; 0x800fd2 <SCALE+0x2>
     4f6:	50 91 d3 0f 	lds	r21, 0x0FD3	; 0x800fd3 <SCALE+0x3>
     4fa:	0c 94 aa 2a 	jmp	0x5554	; 0x5554 <__divsf3>
     4fe:	08 95       	ret

00000500 <HX711_set_scale>:
     500:	60 93 d0 0f 	sts	0x0FD0, r22	; 0x800fd0 <SCALE>
     504:	70 93 d1 0f 	sts	0x0FD1, r23	; 0x800fd1 <SCALE+0x1>
     508:	80 93 d2 0f 	sts	0x0FD2, r24	; 0x800fd2 <SCALE+0x2>
     50c:	90 93 d3 0f 	sts	0x0FD3, r25	; 0x800fd3 <SCALE+0x3>
     510:	08 95       	ret

00000512 <HX711_set_offset>:

void HX711_set_offset(double offset)
{
    OFFSET = offset;
     512:	60 93 cb 0f 	sts	0x0FCB, r22	; 0x800fcb <OFFSET>
     516:	70 93 cc 0f 	sts	0x0FCC, r23	; 0x800fcc <OFFSET+0x1>
     51a:	80 93 cd 0f 	sts	0x0FCD, r24	; 0x800fcd <OFFSET+0x2>
     51e:	90 93 ce 0f 	sts	0x0FCE, r25	; 0x800fce <OFFSET+0x3>
     522:	08 95       	ret

00000524 <HX711_1_is_ready>:
}

float HX711_1_get_scale(void)
{
	return SCALE_1;
}
     524:	90 b1       	in	r25, 0x00	; 0
     526:	81 e0       	ldi	r24, 0x01	; 1
     528:	89 27       	eor	r24, r25
     52a:	81 70       	andi	r24, 0x01	; 1
     52c:	90 e0       	ldi	r25, 0x00	; 0
     52e:	08 95       	ret

00000530 <HX711_1_read>:
     530:	f9 df       	rcall	.-14     	; 0x524 <HX711_1_is_ready>
     532:	89 2b       	or	r24, r25
     534:	e9 f3       	breq	.-6      	; 0x530 <HX711_1_read>
     536:	00 99       	sbic	0x00, 0	; 0
     538:	fe cf       	rjmp	.-4      	; 0x536 <HX711_1_read+0x6>
     53a:	28 e1       	ldi	r18, 0x18	; 24
     53c:	80 e0       	ldi	r24, 0x00	; 0
     53e:	90 e0       	ldi	r25, 0x00	; 0
     540:	dc 01       	movw	r26, r24
     542:	11 9a       	sbi	0x02, 1	; 2
     544:	00 00       	nop
     546:	88 0f       	add	r24, r24
     548:	99 1f       	adc	r25, r25
     54a:	aa 1f       	adc	r26, r26
     54c:	bb 1f       	adc	r27, r27
     54e:	11 98       	cbi	0x02, 1	; 2
     550:	00 00       	nop
     552:	00 9b       	sbis	0x00, 0	; 0
     554:	03 c0       	rjmp	.+6      	; 0x55c <HX711_1_read+0x2c>
     556:	01 96       	adiw	r24, 0x01	; 1
     558:	a1 1d       	adc	r26, r1
     55a:	b1 1d       	adc	r27, r1
     55c:	21 50       	subi	r18, 0x01	; 1
     55e:	89 f7       	brne	.-30     	; 0x542 <HX711_1_read+0x12>
     560:	20 91 d8 0f 	lds	r18, 0x0FD8	; 0x800fd8 <GAIN_1>
     564:	22 23       	and	r18, r18
     566:	51 f0       	breq	.+20     	; 0x57c <HX711_1_read+0x4c>
     568:	20 e0       	ldi	r18, 0x00	; 0
     56a:	11 9a       	sbi	0x02, 1	; 2
     56c:	00 00       	nop
     56e:	11 98       	cbi	0x02, 1	; 2
     570:	00 00       	nop
     572:	2f 5f       	subi	r18, 0xFF	; 255
     574:	30 91 d8 0f 	lds	r19, 0x0FD8	; 0x800fd8 <GAIN_1>
     578:	23 17       	cp	r18, r19
     57a:	b8 f3       	brcs	.-18     	; 0x56a <HX711_1_read+0x3a>
     57c:	bc 01       	movw	r22, r24
     57e:	cd 01       	movw	r24, r26
     580:	80 58       	subi	r24, 0x80	; 128
     582:	08 95       	ret

00000584 <HX711_1_set_gain>:
     584:	80 34       	cpi	r24, 0x40	; 64
     586:	49 f0       	breq	.+18     	; 0x59a <HX711_1_set_gain+0x16>
     588:	80 38       	cpi	r24, 0x80	; 128
     58a:	19 f0       	breq	.+6      	; 0x592 <HX711_1_set_gain+0xe>
     58c:	80 32       	cpi	r24, 0x20	; 32
     58e:	61 f4       	brne	.+24     	; 0x5a8 <HX711_1_set_gain+0x24>
     590:	08 c0       	rjmp	.+16     	; 0x5a2 <HX711_1_set_gain+0x1e>
     592:	81 e0       	ldi	r24, 0x01	; 1
     594:	80 93 d8 0f 	sts	0x0FD8, r24	; 0x800fd8 <GAIN_1>
     598:	07 c0       	rjmp	.+14     	; 0x5a8 <HX711_1_set_gain+0x24>
     59a:	83 e0       	ldi	r24, 0x03	; 3
     59c:	80 93 d8 0f 	sts	0x0FD8, r24	; 0x800fd8 <GAIN_1>
     5a0:	03 c0       	rjmp	.+6      	; 0x5a8 <HX711_1_set_gain+0x24>
     5a2:	82 e0       	ldi	r24, 0x02	; 2
     5a4:	80 93 d8 0f 	sts	0x0FD8, r24	; 0x800fd8 <GAIN_1>
     5a8:	11 98       	cbi	0x02, 1	; 2
     5aa:	c2 cf       	rjmp	.-124    	; 0x530 <HX711_1_read>
     5ac:	08 95       	ret

000005ae <HX711_1_init>:
     5ae:	09 9a       	sbi	0x01, 1	; 1
     5b0:	08 98       	cbi	0x01, 0	; 1
     5b2:	10 9a       	sbi	0x02, 0	; 2
     5b4:	e7 cf       	rjmp	.-50     	; 0x584 <HX711_1_set_gain>
     5b6:	08 95       	ret

000005b8 <HX711_1_read_average>:
     5b8:	cf 92       	push	r12
     5ba:	df 92       	push	r13
     5bc:	ef 92       	push	r14
     5be:	ff 92       	push	r15
     5c0:	cf 93       	push	r28
     5c2:	df 93       	push	r29
     5c4:	d8 2f       	mov	r29, r24
     5c6:	88 23       	and	r24, r24
     5c8:	69 f0       	breq	.+26     	; 0x5e4 <HX711_1_read_average+0x2c>
     5ca:	c0 e0       	ldi	r28, 0x00	; 0
     5cc:	c1 2c       	mov	r12, r1
     5ce:	d1 2c       	mov	r13, r1
     5d0:	76 01       	movw	r14, r12
     5d2:	ae df       	rcall	.-164    	; 0x530 <HX711_1_read>
     5d4:	c6 0e       	add	r12, r22
     5d6:	d7 1e       	adc	r13, r23
     5d8:	e8 1e       	adc	r14, r24
     5da:	f9 1e       	adc	r15, r25
     5dc:	cf 5f       	subi	r28, 0xFF	; 255
     5de:	dc 13       	cpse	r29, r28
     5e0:	f8 cf       	rjmp	.-16     	; 0x5d2 <HX711_1_read_average+0x1a>
     5e2:	03 c0       	rjmp	.+6      	; 0x5ea <HX711_1_read_average+0x32>
     5e4:	c1 2c       	mov	r12, r1
     5e6:	d1 2c       	mov	r13, r1
     5e8:	76 01       	movw	r14, r12
     5ea:	2d 2f       	mov	r18, r29
     5ec:	30 e0       	ldi	r19, 0x00	; 0
     5ee:	40 e0       	ldi	r20, 0x00	; 0
     5f0:	50 e0       	ldi	r21, 0x00	; 0
     5f2:	c7 01       	movw	r24, r14
     5f4:	b6 01       	movw	r22, r12
     5f6:	0e 94 7c 2c 	call	0x58f8	; 0x58f8 <__udivmodsi4>
     5fa:	ca 01       	movw	r24, r20
     5fc:	b9 01       	movw	r22, r18
     5fe:	df 91       	pop	r29
     600:	cf 91       	pop	r28
     602:	ff 90       	pop	r15
     604:	ef 90       	pop	r14
     606:	df 90       	pop	r13
     608:	cf 90       	pop	r12
     60a:	08 95       	ret

0000060c <HX711_1_get_value>:
     60c:	d5 df       	rcall	.-86     	; 0x5b8 <HX711_1_read_average>
     60e:	0e 94 43 2b 	call	0x5686	; 0x5686 <__floatunsisf>
     612:	20 91 d4 0f 	lds	r18, 0x0FD4	; 0x800fd4 <OFFSET_1>
     616:	30 91 d5 0f 	lds	r19, 0x0FD5	; 0x800fd5 <OFFSET_1+0x1>
     61a:	40 91 d6 0f 	lds	r20, 0x0FD6	; 0x800fd6 <OFFSET_1+0x2>
     61e:	50 91 d7 0f 	lds	r21, 0x0FD7	; 0x800fd7 <OFFSET_1+0x3>
     622:	0c 94 45 2a 	jmp	0x548a	; 0x548a <__subsf3>
     626:	08 95       	ret

00000628 <HX711_1_get_units>:
     628:	f1 df       	rcall	.-30     	; 0x60c <HX711_1_get_value>
     62a:	20 91 d9 0f 	lds	r18, 0x0FD9	; 0x800fd9 <SCALE_1>
     62e:	30 91 da 0f 	lds	r19, 0x0FDA	; 0x800fda <SCALE_1+0x1>
     632:	40 91 db 0f 	lds	r20, 0x0FDB	; 0x800fdb <SCALE_1+0x2>
     636:	50 91 dc 0f 	lds	r21, 0x0FDC	; 0x800fdc <SCALE_1+0x3>
     63a:	0c 94 aa 2a 	jmp	0x5554	; 0x5554 <__divsf3>
     63e:	08 95       	ret

00000640 <HX711_1_set_scale>:
     640:	60 93 d9 0f 	sts	0x0FD9, r22	; 0x800fd9 <SCALE_1>
     644:	70 93 da 0f 	sts	0x0FDA, r23	; 0x800fda <SCALE_1+0x1>
     648:	80 93 db 0f 	sts	0x0FDB, r24	; 0x800fdb <SCALE_1+0x2>
     64c:	90 93 dc 0f 	sts	0x0FDC, r25	; 0x800fdc <SCALE_1+0x3>
     650:	08 95       	ret

00000652 <HX711_1_set_offset>:

void HX711_1_set_offset(double offset)
{
    OFFSET_1 = offset;
     652:	60 93 d4 0f 	sts	0x0FD4, r22	; 0x800fd4 <OFFSET_1>
     656:	70 93 d5 0f 	sts	0x0FD5, r23	; 0x800fd5 <OFFSET_1+0x1>
     65a:	80 93 d6 0f 	sts	0x0FD6, r24	; 0x800fd6 <OFFSET_1+0x2>
     65e:	90 93 d7 0f 	sts	0x0FD7, r25	; 0x800fd7 <OFFSET_1+0x3>
     662:	08 95       	ret

00000664 <vListInitialise>:
/*-----------------------------------------------------------
 * PUBLIC LIST API documented in list.h
 *----------------------------------------------------------*/

void vListInitialise( xList *pxList )
{
     664:	fc 01       	movw	r30, r24
	/* The list structure contains a list item which is used to mark the
	end of the list.  To initialise the list the list end is inserted
	as the only list entry. */
	pxList->pxIndex = ( xListItem * ) &( pxList->xListEnd );
     666:	03 96       	adiw	r24, 0x03	; 3
     668:	92 83       	std	Z+2, r25	; 0x02
     66a:	81 83       	std	Z+1, r24	; 0x01

	/* The list end value is the highest possible value in the list to
	ensure it remains at the end of the list. */
	pxList->xListEnd.xItemValue = portMAX_DELAY;
     66c:	2f ef       	ldi	r18, 0xFF	; 255
     66e:	3f ef       	ldi	r19, 0xFF	; 255
     670:	34 83       	std	Z+4, r19	; 0x04
     672:	23 83       	std	Z+3, r18	; 0x03

	/* The list end next and previous pointers point to itself so we know
	when the list is empty. */
	pxList->xListEnd.pxNext = ( xListItem * ) &( pxList->xListEnd );
     674:	96 83       	std	Z+6, r25	; 0x06
     676:	85 83       	std	Z+5, r24	; 0x05
	pxList->xListEnd.pxPrevious = ( xListItem * ) &( pxList->xListEnd );
     678:	90 87       	std	Z+8, r25	; 0x08
     67a:	87 83       	std	Z+7, r24	; 0x07

	pxList->uxNumberOfItems = ( unsigned portBASE_TYPE ) 0U;
     67c:	10 82       	st	Z, r1
     67e:	08 95       	ret

00000680 <vListInitialiseItem>:
/*-----------------------------------------------------------*/

void vListInitialiseItem( xListItem *pxItem )
{
	/* Make sure the list item is not recorded as being on a list. */
	pxItem->pvContainer = NULL;
     680:	fc 01       	movw	r30, r24
     682:	11 86       	std	Z+9, r1	; 0x09
     684:	10 86       	std	Z+8, r1	; 0x08
     686:	08 95       	ret

00000688 <vListInsertEnd>:
}
/*-----------------------------------------------------------*/

void vListInsertEnd( xList *pxList, xListItem *pxNewListItem )
{
     688:	cf 93       	push	r28
     68a:	df 93       	push	r29
     68c:	fc 01       	movw	r30, r24
     68e:	db 01       	movw	r26, r22

	/* Insert a new list item into pxList, but rather than sort the list,
	makes the new list item the last item to be removed by a call to
	pvListGetOwnerOfNextEntry.  This means it has to be the item pointed to by
	the pxIndex member. */
	pxIndex = pxList->pxIndex;
     690:	21 81       	ldd	r18, Z+1	; 0x01
     692:	32 81       	ldd	r19, Z+2	; 0x02

	pxNewListItem->pxNext = pxIndex->pxNext;
     694:	e9 01       	movw	r28, r18
     696:	8a 81       	ldd	r24, Y+2	; 0x02
     698:	9b 81       	ldd	r25, Y+3	; 0x03
     69a:	13 96       	adiw	r26, 0x03	; 3
     69c:	9c 93       	st	X, r25
     69e:	8e 93       	st	-X, r24
     6a0:	12 97       	sbiw	r26, 0x02	; 2
	pxNewListItem->pxPrevious = pxList->pxIndex;
     6a2:	81 81       	ldd	r24, Z+1	; 0x01
     6a4:	92 81       	ldd	r25, Z+2	; 0x02
     6a6:	15 96       	adiw	r26, 0x05	; 5
     6a8:	9c 93       	st	X, r25
     6aa:	8e 93       	st	-X, r24
     6ac:	14 97       	sbiw	r26, 0x04	; 4
	pxIndex->pxNext->pxPrevious = ( volatile xListItem * ) pxNewListItem;
     6ae:	8a 81       	ldd	r24, Y+2	; 0x02
     6b0:	9b 81       	ldd	r25, Y+3	; 0x03
     6b2:	ec 01       	movw	r28, r24
     6b4:	7d 83       	std	Y+5, r23	; 0x05
     6b6:	6c 83       	std	Y+4, r22	; 0x04
	pxIndex->pxNext = ( volatile xListItem * ) pxNewListItem;
     6b8:	e9 01       	movw	r28, r18
     6ba:	7b 83       	std	Y+3, r23	; 0x03
     6bc:	6a 83       	std	Y+2, r22	; 0x02
	pxList->pxIndex = ( volatile xListItem * ) pxNewListItem;
     6be:	72 83       	std	Z+2, r23	; 0x02
     6c0:	61 83       	std	Z+1, r22	; 0x01

	/* Remember which list the item is in. */
	pxNewListItem->pvContainer = ( void * ) pxList;
     6c2:	19 96       	adiw	r26, 0x09	; 9
     6c4:	fc 93       	st	X, r31
     6c6:	ee 93       	st	-X, r30
     6c8:	18 97       	sbiw	r26, 0x08	; 8

	( pxList->uxNumberOfItems )++;
     6ca:	80 81       	ld	r24, Z
     6cc:	8f 5f       	subi	r24, 0xFF	; 255
     6ce:	80 83       	st	Z, r24
}
     6d0:	df 91       	pop	r29
     6d2:	cf 91       	pop	r28
     6d4:	08 95       	ret

000006d6 <vListInsert>:
/*-----------------------------------------------------------*/

void vListInsert( xList *pxList, xListItem *pxNewListItem )
{
     6d6:	cf 93       	push	r28
     6d8:	df 93       	push	r29
     6da:	eb 01       	movw	r28, r22
volatile xListItem *pxIterator;
portTickType xValueOfInsertion;

	/* Insert the new list item into the list, sorted in ulListItem order. */
	xValueOfInsertion = pxNewListItem->xItemValue;
     6dc:	48 81       	ld	r20, Y
     6de:	59 81       	ldd	r21, Y+1	; 0x01
	are stored in ready lists (all of which have the same ulListItem value)
	get an equal share of the CPU.  However, if the xItemValue is the same as
	the back marker the iteration loop below will not end.  This means we need
	to guard against this by checking the value first and modifying the
	algorithm slightly if necessary. */
	if( xValueOfInsertion == portMAX_DELAY )
     6e0:	4f 3f       	cpi	r20, 0xFF	; 255
     6e2:	2f ef       	ldi	r18, 0xFF	; 255
     6e4:	52 07       	cpc	r21, r18
     6e6:	31 f4       	brne	.+12     	; 0x6f4 <vListInsert+0x1e>
	{
		pxIterator = pxList->xListEnd.pxPrevious;
     6e8:	dc 01       	movw	r26, r24
     6ea:	17 96       	adiw	r26, 0x07	; 7
     6ec:	ed 91       	ld	r30, X+
     6ee:	fc 91       	ld	r31, X
     6f0:	18 97       	sbiw	r26, 0x08	; 8
     6f2:	17 c0       	rjmp	.+46     	; 0x722 <vListInsert+0x4c>
			   before the scheduler has been started (are interrupts firing
			   before vTaskStartScheduler() has been called?).
		See http://www.freertos.org/FAQHelp.html for more tips.
		**********************************************************************/
		
		for( pxIterator = ( xListItem * ) &( pxList->xListEnd ); pxIterator->pxNext->xItemValue <= xValueOfInsertion; pxIterator = pxIterator->pxNext )
     6f4:	fc 01       	movw	r30, r24
     6f6:	33 96       	adiw	r30, 0x03	; 3
     6f8:	dc 01       	movw	r26, r24
     6fa:	15 96       	adiw	r26, 0x05	; 5
     6fc:	2d 91       	ld	r18, X+
     6fe:	3c 91       	ld	r19, X
     700:	16 97       	sbiw	r26, 0x06	; 6
     702:	d9 01       	movw	r26, r18
     704:	2d 91       	ld	r18, X+
     706:	3c 91       	ld	r19, X
     708:	42 17       	cp	r20, r18
     70a:	53 07       	cpc	r21, r19
     70c:	50 f0       	brcs	.+20     	; 0x722 <vListInsert+0x4c>
     70e:	02 80       	ldd	r0, Z+2	; 0x02
     710:	f3 81       	ldd	r31, Z+3	; 0x03
     712:	e0 2d       	mov	r30, r0
     714:	a2 81       	ldd	r26, Z+2	; 0x02
     716:	b3 81       	ldd	r27, Z+3	; 0x03
     718:	2d 91       	ld	r18, X+
     71a:	3c 91       	ld	r19, X
     71c:	42 17       	cp	r20, r18
     71e:	53 07       	cpc	r21, r19
     720:	b0 f7       	brcc	.-20     	; 0x70e <vListInsert+0x38>
			/* There is nothing to do here, we are just iterating to the
			wanted insertion position. */
		}
	}

	pxNewListItem->pxNext = pxIterator->pxNext;
     722:	a2 81       	ldd	r26, Z+2	; 0x02
     724:	b3 81       	ldd	r27, Z+3	; 0x03
     726:	bb 83       	std	Y+3, r27	; 0x03
     728:	aa 83       	std	Y+2, r26	; 0x02
	pxNewListItem->pxNext->pxPrevious = ( volatile xListItem * ) pxNewListItem;
     72a:	15 96       	adiw	r26, 0x05	; 5
     72c:	dc 93       	st	X, r29
     72e:	ce 93       	st	-X, r28
     730:	14 97       	sbiw	r26, 0x04	; 4
	pxNewListItem->pxPrevious = pxIterator;
     732:	fd 83       	std	Y+5, r31	; 0x05
     734:	ec 83       	std	Y+4, r30	; 0x04
	pxIterator->pxNext = ( volatile xListItem * ) pxNewListItem;
     736:	d3 83       	std	Z+3, r29	; 0x03
     738:	c2 83       	std	Z+2, r28	; 0x02

	/* Remember which list the item is in.  This allows fast removal of the
	item later. */
	pxNewListItem->pvContainer = ( void * ) pxList;
     73a:	99 87       	std	Y+9, r25	; 0x09
     73c:	88 87       	std	Y+8, r24	; 0x08

	( pxList->uxNumberOfItems )++;
     73e:	fc 01       	movw	r30, r24
     740:	20 81       	ld	r18, Z
     742:	2f 5f       	subi	r18, 0xFF	; 255
     744:	20 83       	st	Z, r18
}
     746:	df 91       	pop	r29
     748:	cf 91       	pop	r28
     74a:	08 95       	ret

0000074c <vListRemove>:
/*-----------------------------------------------------------*/

void vListRemove( xListItem *pxItemToRemove )
{
     74c:	fc 01       	movw	r30, r24
xList * pxList;

	pxItemToRemove->pxNext->pxPrevious = pxItemToRemove->pxPrevious;
     74e:	a2 81       	ldd	r26, Z+2	; 0x02
     750:	b3 81       	ldd	r27, Z+3	; 0x03
     752:	84 81       	ldd	r24, Z+4	; 0x04
     754:	95 81       	ldd	r25, Z+5	; 0x05
     756:	15 96       	adiw	r26, 0x05	; 5
     758:	9c 93       	st	X, r25
     75a:	8e 93       	st	-X, r24
     75c:	14 97       	sbiw	r26, 0x04	; 4
	pxItemToRemove->pxPrevious->pxNext = pxItemToRemove->pxNext;
     75e:	a4 81       	ldd	r26, Z+4	; 0x04
     760:	b5 81       	ldd	r27, Z+5	; 0x05
     762:	82 81       	ldd	r24, Z+2	; 0x02
     764:	93 81       	ldd	r25, Z+3	; 0x03
     766:	13 96       	adiw	r26, 0x03	; 3
     768:	9c 93       	st	X, r25
     76a:	8e 93       	st	-X, r24
     76c:	12 97       	sbiw	r26, 0x02	; 2
	
	/* The list item knows which list it is in.  Obtain the list from the list
	item. */
	pxList = ( xList * ) pxItemToRemove->pvContainer;
     76e:	a0 85       	ldd	r26, Z+8	; 0x08
     770:	b1 85       	ldd	r27, Z+9	; 0x09

	/* Make sure the index is left pointing to a valid item. */
	if( pxList->pxIndex == pxItemToRemove )
     772:	11 96       	adiw	r26, 0x01	; 1
     774:	8d 91       	ld	r24, X+
     776:	9c 91       	ld	r25, X
     778:	12 97       	sbiw	r26, 0x02	; 2
     77a:	e8 17       	cp	r30, r24
     77c:	f9 07       	cpc	r31, r25
     77e:	31 f4       	brne	.+12     	; 0x78c <vListRemove+0x40>
	{
		pxList->pxIndex = pxItemToRemove->pxPrevious;
     780:	84 81       	ldd	r24, Z+4	; 0x04
     782:	95 81       	ldd	r25, Z+5	; 0x05
     784:	12 96       	adiw	r26, 0x02	; 2
     786:	9c 93       	st	X, r25
     788:	8e 93       	st	-X, r24
     78a:	11 97       	sbiw	r26, 0x01	; 1
	}

	pxItemToRemove->pvContainer = NULL;
     78c:	11 86       	std	Z+9, r1	; 0x09
     78e:	10 86       	std	Z+8, r1	; 0x08
	( pxList->uxNumberOfItems )--;
     790:	8c 91       	ld	r24, X
     792:	81 50       	subi	r24, 0x01	; 1
     794:	8c 93       	st	X, r24
     796:	08 95       	ret

00000798 <main_menu_display>:

/////// Time-elapsed since drink has been removed state machine /////
enum TimeElapsedState {te_wait, te_counter} time_elapsed_state;
	
void TimeElapsed_Init(){
	time_elapsed_state = te_wait;
     798:	0e 94 68 24 	call	0x48d0	; 0x48d0 <nokia_lcd_clear>
     79c:	61 e0       	ldi	r22, 0x01	; 1
     79e:	85 e0       	ldi	r24, 0x05	; 5
     7a0:	92 e0       	ldi	r25, 0x02	; 2
     7a2:	0e 94 4e 25 	call	0x4a9c	; 0x4a9c <nokia_lcd_write_string>
     7a6:	6a e0       	ldi	r22, 0x0A	; 10
     7a8:	82 e0       	ldi	r24, 0x02	; 2
     7aa:	0e 94 60 25 	call	0x4ac0	; 0x4ac0 <nokia_lcd_set_cursor>
     7ae:	61 e0       	ldi	r22, 0x01	; 1
     7b0:	81 ed       	ldi	r24, 0xD1	; 209
     7b2:	91 e0       	ldi	r25, 0x01	; 1
     7b4:	0e 94 4e 25 	call	0x4a9c	; 0x4a9c <nokia_lcd_write_string>
     7b8:	64 e1       	ldi	r22, 0x14	; 20
     7ba:	82 e0       	ldi	r24, 0x02	; 2
     7bc:	0e 94 60 25 	call	0x4ac0	; 0x4ac0 <nokia_lcd_set_cursor>
     7c0:	61 e0       	ldi	r22, 0x01	; 1
     7c2:	8b ed       	ldi	r24, 0xDB	; 219
     7c4:	91 e0       	ldi	r25, 0x01	; 1
     7c6:	0e 94 4e 25 	call	0x4a9c	; 0x4a9c <nokia_lcd_write_string>
     7ca:	6e e1       	ldi	r22, 0x1E	; 30
     7cc:	82 e0       	ldi	r24, 0x02	; 2
     7ce:	0e 94 60 25 	call	0x4ac0	; 0x4ac0 <nokia_lcd_set_cursor>
     7d2:	61 e0       	ldi	r22, 0x01	; 1
     7d4:	83 ee       	ldi	r24, 0xE3	; 227
     7d6:	91 e0       	ldi	r25, 0x01	; 1
     7d8:	0e 94 4e 25 	call	0x4a9c	; 0x4a9c <nokia_lcd_write_string>
     7dc:	0c 94 65 25 	jmp	0x4aca	; 0x4aca <nokia_lcd_render>
     7e0:	08 95       	ret

000007e2 <settings_submenu_display>:
     7e2:	0e 94 68 24 	call	0x48d0	; 0x48d0 <nokia_lcd_clear>
     7e6:	61 e0       	ldi	r22, 0x01	; 1
     7e8:	86 ee       	ldi	r24, 0xE6	; 230
     7ea:	91 e0       	ldi	r25, 0x01	; 1
     7ec:	0e 94 4e 25 	call	0x4a9c	; 0x4a9c <nokia_lcd_write_string>
     7f0:	6a e0       	ldi	r22, 0x0A	; 10
     7f2:	82 e0       	ldi	r24, 0x02	; 2
     7f4:	0e 94 60 25 	call	0x4ac0	; 0x4ac0 <nokia_lcd_set_cursor>
     7f8:	61 e0       	ldi	r22, 0x01	; 1
     7fa:	8f ee       	ldi	r24, 0xEF	; 239
     7fc:	91 e0       	ldi	r25, 0x01	; 1
     7fe:	0e 94 4e 25 	call	0x4a9c	; 0x4a9c <nokia_lcd_write_string>
     802:	64 e1       	ldi	r22, 0x14	; 20
     804:	82 e0       	ldi	r24, 0x02	; 2
     806:	0e 94 60 25 	call	0x4ac0	; 0x4ac0 <nokia_lcd_set_cursor>
     80a:	61 e0       	ldi	r22, 0x01	; 1
     80c:	89 ef       	ldi	r24, 0xF9	; 249
     80e:	91 e0       	ldi	r25, 0x01	; 1
     810:	0e 94 4e 25 	call	0x4a9c	; 0x4a9c <nokia_lcd_write_string>
     814:	6e e1       	ldi	r22, 0x1E	; 30
     816:	82 e0       	ldi	r24, 0x02	; 2
     818:	0e 94 60 25 	call	0x4ac0	; 0x4ac0 <nokia_lcd_set_cursor>
     81c:	61 e0       	ldi	r22, 0x01	; 1
     81e:	82 e0       	ldi	r24, 0x02	; 2
     820:	92 e0       	ldi	r25, 0x02	; 2
     822:	0e 94 4e 25 	call	0x4a9c	; 0x4a9c <nokia_lcd_write_string>
     826:	0c 94 65 25 	jmp	0x4aca	; 0x4aca <nokia_lcd_render>
     82a:	08 95       	ret

0000082c <drinks_submenu_display>:
     82c:	0e 94 68 24 	call	0x48d0	; 0x48d0 <nokia_lcd_clear>
     830:	61 e0       	ldi	r22, 0x01	; 1
     832:	82 ef       	ldi	r24, 0xF2	; 242
     834:	91 e0       	ldi	r25, 0x01	; 1
     836:	0e 94 4e 25 	call	0x4a9c	; 0x4a9c <nokia_lcd_write_string>
     83a:	6a e0       	ldi	r22, 0x0A	; 10
     83c:	82 e0       	ldi	r24, 0x02	; 2
     83e:	0e 94 60 25 	call	0x4ac0	; 0x4ac0 <nokia_lcd_set_cursor>
     842:	61 e0       	ldi	r22, 0x01	; 1
     844:	8f e0       	ldi	r24, 0x0F	; 15
     846:	92 e0       	ldi	r25, 0x02	; 2
     848:	0e 94 4e 25 	call	0x4a9c	; 0x4a9c <nokia_lcd_write_string>
     84c:	64 e1       	ldi	r22, 0x14	; 20
     84e:	82 e0       	ldi	r24, 0x02	; 2
     850:	0e 94 60 25 	call	0x4ac0	; 0x4ac0 <nokia_lcd_set_cursor>
     854:	61 e0       	ldi	r22, 0x01	; 1
     856:	8c e1       	ldi	r24, 0x1C	; 28
     858:	92 e0       	ldi	r25, 0x02	; 2
     85a:	0e 94 4e 25 	call	0x4a9c	; 0x4a9c <nokia_lcd_write_string>
     85e:	6e e1       	ldi	r22, 0x1E	; 30
     860:	84 e1       	ldi	r24, 0x14	; 20
     862:	0e 94 60 25 	call	0x4ac0	; 0x4ac0 <nokia_lcd_set_cursor>
     866:	61 e0       	ldi	r22, 0x01	; 1
     868:	86 e1       	ldi	r24, 0x16	; 22
     86a:	92 e0       	ldi	r25, 0x02	; 2
     86c:	0e 94 4e 25 	call	0x4a9c	; 0x4a9c <nokia_lcd_write_string>
     870:	68 e2       	ldi	r22, 0x28	; 40
     872:	82 e0       	ldi	r24, 0x02	; 2
     874:	0e 94 60 25 	call	0x4ac0	; 0x4ac0 <nokia_lcd_set_cursor>
     878:	61 e0       	ldi	r22, 0x01	; 1
     87a:	82 e0       	ldi	r24, 0x02	; 2
     87c:	92 e0       	ldi	r25, 0x02	; 2
     87e:	0e 94 4e 25 	call	0x4a9c	; 0x4a9c <nokia_lcd_write_string>
     882:	0c 94 65 25 	jmp	0x4aca	; 0x4aca <nokia_lcd_render>
     886:	08 95       	ret

00000888 <user_submenu_display>:
     888:	0e 94 68 24 	call	0x48d0	; 0x48d0 <nokia_lcd_clear>
     88c:	61 e0       	ldi	r22, 0x01	; 1
     88e:	8c ef       	ldi	r24, 0xFC	; 252
     890:	91 e0       	ldi	r25, 0x01	; 1
     892:	0e 94 4e 25 	call	0x4a9c	; 0x4a9c <nokia_lcd_write_string>
     896:	6a e0       	ldi	r22, 0x0A	; 10
     898:	82 e0       	ldi	r24, 0x02	; 2
     89a:	0e 94 60 25 	call	0x4ac0	; 0x4ac0 <nokia_lcd_set_cursor>
     89e:	61 e0       	ldi	r22, 0x01	; 1
     8a0:	87 e2       	ldi	r24, 0x27	; 39
     8a2:	92 e0       	ldi	r25, 0x02	; 2
     8a4:	0e 94 4e 25 	call	0x4a9c	; 0x4a9c <nokia_lcd_write_string>
     8a8:	64 e1       	ldi	r22, 0x14	; 20
     8aa:	82 e0       	ldi	r24, 0x02	; 2
     8ac:	0e 94 60 25 	call	0x4ac0	; 0x4ac0 <nokia_lcd_set_cursor>
     8b0:	61 e0       	ldi	r22, 0x01	; 1
     8b2:	83 e3       	ldi	r24, 0x33	; 51
     8b4:	92 e0       	ldi	r25, 0x02	; 2
     8b6:	0e 94 4e 25 	call	0x4a9c	; 0x4a9c <nokia_lcd_write_string>
     8ba:	6e e1       	ldi	r22, 0x1E	; 30
     8bc:	82 e0       	ldi	r24, 0x02	; 2
     8be:	0e 94 60 25 	call	0x4ac0	; 0x4ac0 <nokia_lcd_set_cursor>
     8c2:	61 e0       	ldi	r22, 0x01	; 1
     8c4:	82 e0       	ldi	r24, 0x02	; 2
     8c6:	92 e0       	ldi	r25, 0x02	; 2
     8c8:	0e 94 4e 25 	call	0x4a9c	; 0x4a9c <nokia_lcd_write_string>
     8cc:	0c 94 65 25 	jmp	0x4aca	; 0x4aca <nokia_lcd_render>
     8d0:	08 95       	ret

000008d2 <adduser_name_display>:
     8d2:	cf 93       	push	r28
     8d4:	df 93       	push	r29
     8d6:	ec 01       	movw	r28, r24
     8d8:	0e 94 68 24 	call	0x48d0	; 0x48d0 <nokia_lcd_clear>
     8dc:	61 e0       	ldi	r22, 0x01	; 1
     8de:	82 e4       	ldi	r24, 0x42	; 66
     8e0:	92 e0       	ldi	r25, 0x02	; 2
     8e2:	0e 94 4e 25 	call	0x4a9c	; 0x4a9c <nokia_lcd_write_string>
     8e6:	6a e0       	ldi	r22, 0x0A	; 10
     8e8:	80 e0       	ldi	r24, 0x00	; 0
     8ea:	0e 94 60 25 	call	0x4ac0	; 0x4ac0 <nokia_lcd_set_cursor>
     8ee:	61 e0       	ldi	r22, 0x01	; 1
     8f0:	ce 01       	movw	r24, r28
     8f2:	0e 94 4e 25 	call	0x4a9c	; 0x4a9c <nokia_lcd_write_string>
     8f6:	0e 94 65 25 	call	0x4aca	; 0x4aca <nokia_lcd_render>
     8fa:	df 91       	pop	r29
     8fc:	cf 91       	pop	r28
     8fe:	08 95       	ret

00000900 <GetKeypadKey>:
     900:	8e ef       	ldi	r24, 0xFE	; 254
     902:	88 b9       	out	0x08, r24	; 8
     904:	00 00       	nop
     906:	86 b1       	in	r24, 0x06	; 6
     908:	80 95       	com	r24
     90a:	84 fd       	sbrc	r24, 4
     90c:	46 c0       	rjmp	.+140    	; 0x99a <GetKeypadKey+0x9a>
     90e:	86 b1       	in	r24, 0x06	; 6
     910:	80 95       	com	r24
     912:	85 fd       	sbrc	r24, 5
     914:	44 c0       	rjmp	.+136    	; 0x99e <GetKeypadKey+0x9e>
     916:	86 b1       	in	r24, 0x06	; 6
     918:	80 95       	com	r24
     91a:	86 fd       	sbrc	r24, 6
     91c:	42 c0       	rjmp	.+132    	; 0x9a2 <GetKeypadKey+0xa2>
     91e:	86 b1       	in	r24, 0x06	; 6
     920:	80 95       	com	r24
     922:	90 e0       	ldi	r25, 0x00	; 0
     924:	88 0f       	add	r24, r24
     926:	89 2f       	mov	r24, r25
     928:	88 1f       	adc	r24, r24
     92a:	99 0b       	sbc	r25, r25
     92c:	91 95       	neg	r25
     92e:	89 2b       	or	r24, r25
     930:	d1 f5       	brne	.+116    	; 0x9a6 <GetKeypadKey+0xa6>
     932:	8d ef       	ldi	r24, 0xFD	; 253
     934:	88 b9       	out	0x08, r24	; 8
     936:	00 00       	nop
     938:	86 b1       	in	r24, 0x06	; 6
     93a:	80 95       	com	r24
     93c:	84 fd       	sbrc	r24, 4
     93e:	35 c0       	rjmp	.+106    	; 0x9aa <GetKeypadKey+0xaa>
     940:	86 b1       	in	r24, 0x06	; 6
     942:	80 95       	com	r24
     944:	85 fd       	sbrc	r24, 5
     946:	33 c0       	rjmp	.+102    	; 0x9ae <GetKeypadKey+0xae>
     948:	86 b1       	in	r24, 0x06	; 6
     94a:	80 95       	com	r24
     94c:	86 fd       	sbrc	r24, 6
     94e:	31 c0       	rjmp	.+98     	; 0x9b2 <GetKeypadKey+0xb2>
     950:	86 b1       	in	r24, 0x06	; 6
     952:	80 95       	com	r24
     954:	90 e0       	ldi	r25, 0x00	; 0
     956:	88 0f       	add	r24, r24
     958:	89 2f       	mov	r24, r25
     95a:	88 1f       	adc	r24, r24
     95c:	99 0b       	sbc	r25, r25
     95e:	91 95       	neg	r25
     960:	89 2b       	or	r24, r25
     962:	49 f5       	brne	.+82     	; 0x9b6 <GetKeypadKey+0xb6>
     964:	8b ef       	ldi	r24, 0xFB	; 251
     966:	88 b9       	out	0x08, r24	; 8
     968:	00 00       	nop
     96a:	86 b1       	in	r24, 0x06	; 6
     96c:	80 95       	com	r24
     96e:	84 fd       	sbrc	r24, 4
     970:	24 c0       	rjmp	.+72     	; 0x9ba <GetKeypadKey+0xba>
     972:	86 b1       	in	r24, 0x06	; 6
     974:	80 95       	com	r24
     976:	85 fd       	sbrc	r24, 5
     978:	22 c0       	rjmp	.+68     	; 0x9be <GetKeypadKey+0xbe>
     97a:	86 b1       	in	r24, 0x06	; 6
     97c:	80 95       	com	r24
     97e:	86 fd       	sbrc	r24, 6
     980:	20 c0       	rjmp	.+64     	; 0x9c2 <GetKeypadKey+0xc2>
     982:	86 b1       	in	r24, 0x06	; 6
     984:	80 95       	com	r24
     986:	90 e0       	ldi	r25, 0x00	; 0
     988:	88 0f       	add	r24, r24
     98a:	89 2f       	mov	r24, r25
     98c:	88 1f       	adc	r24, r24
     98e:	99 0b       	sbc	r25, r25
     990:	91 95       	neg	r25
     992:	89 2b       	or	r24, r25
     994:	c1 f4       	brne	.+48     	; 0x9c6 <GetKeypadKey+0xc6>
     996:	80 e0       	ldi	r24, 0x00	; 0
     998:	08 95       	ret
     99a:	81 e3       	ldi	r24, 0x31	; 49
     99c:	08 95       	ret
     99e:	84 e3       	ldi	r24, 0x34	; 52
     9a0:	08 95       	ret
     9a2:	87 e3       	ldi	r24, 0x37	; 55
     9a4:	08 95       	ret
     9a6:	8a e2       	ldi	r24, 0x2A	; 42
     9a8:	08 95       	ret
     9aa:	82 e3       	ldi	r24, 0x32	; 50
     9ac:	08 95       	ret
     9ae:	85 e3       	ldi	r24, 0x35	; 53
     9b0:	08 95       	ret
     9b2:	88 e3       	ldi	r24, 0x38	; 56
     9b4:	08 95       	ret
     9b6:	80 e3       	ldi	r24, 0x30	; 48
     9b8:	08 95       	ret
     9ba:	83 e3       	ldi	r24, 0x33	; 51
     9bc:	08 95       	ret
     9be:	86 e3       	ldi	r24, 0x36	; 54
     9c0:	08 95       	ret
     9c2:	89 e3       	ldi	r24, 0x39	; 57
     9c4:	08 95       	ret
     9c6:	83 e2       	ldi	r24, 0x23	; 35
     9c8:	08 95       	ret

000009ca <add_drink_display>:
     9ca:	0e 94 68 24 	call	0x48d0	; 0x48d0 <nokia_lcd_clear>
     9ce:	61 e0       	ldi	r22, 0x01	; 1
     9d0:	8d e4       	ldi	r24, 0x4D	; 77
     9d2:	92 e0       	ldi	r25, 0x02	; 2
     9d4:	0e 94 4e 25 	call	0x4a9c	; 0x4a9c <nokia_lcd_write_string>
     9d8:	6a e0       	ldi	r22, 0x0A	; 10
     9da:	82 e0       	ldi	r24, 0x02	; 2
     9dc:	0e 94 60 25 	call	0x4ac0	; 0x4ac0 <nokia_lcd_set_cursor>
     9e0:	61 e0       	ldi	r22, 0x01	; 1
     9e2:	8b e5       	ldi	r24, 0x5B	; 91
     9e4:	92 e0       	ldi	r25, 0x02	; 2
     9e6:	0e 94 4e 25 	call	0x4a9c	; 0x4a9c <nokia_lcd_write_string>
     9ea:	64 e1       	ldi	r22, 0x14	; 20
     9ec:	82 e0       	ldi	r24, 0x02	; 2
     9ee:	0e 94 60 25 	call	0x4ac0	; 0x4ac0 <nokia_lcd_set_cursor>
     9f2:	61 e0       	ldi	r22, 0x01	; 1
     9f4:	83 e6       	ldi	r24, 0x63	; 99
     9f6:	92 e0       	ldi	r25, 0x02	; 2
     9f8:	0e 94 4e 25 	call	0x4a9c	; 0x4a9c <nokia_lcd_write_string>
     9fc:	6e e1       	ldi	r22, 0x1E	; 30
     9fe:	82 e0       	ldi	r24, 0x02	; 2
     a00:	0e 94 60 25 	call	0x4ac0	; 0x4ac0 <nokia_lcd_set_cursor>
     a04:	61 e0       	ldi	r22, 0x01	; 1
     a06:	8b e6       	ldi	r24, 0x6B	; 107
     a08:	92 e0       	ldi	r25, 0x02	; 2
     a0a:	0e 94 4e 25 	call	0x4a9c	; 0x4a9c <nokia_lcd_write_string>
     a0e:	68 e2       	ldi	r22, 0x28	; 40
     a10:	82 e0       	ldi	r24, 0x02	; 2
     a12:	0e 94 60 25 	call	0x4ac0	; 0x4ac0 <nokia_lcd_set_cursor>
     a16:	61 e0       	ldi	r22, 0x01	; 1
     a18:	85 e7       	ldi	r24, 0x75	; 117
     a1a:	92 e0       	ldi	r25, 0x02	; 2
     a1c:	0e 94 4e 25 	call	0x4a9c	; 0x4a9c <nokia_lcd_write_string>
     a20:	0c 94 65 25 	jmp	0x4aca	; 0x4aca <nokia_lcd_render>
     a24:	08 95       	ret

00000a26 <add_drink_volume_display>:
     a26:	0e 94 68 24 	call	0x48d0	; 0x48d0 <nokia_lcd_clear>
     a2a:	61 e0       	ldi	r22, 0x01	; 1
     a2c:	8e e7       	ldi	r24, 0x7E	; 126
     a2e:	92 e0       	ldi	r25, 0x02	; 2
     a30:	0e 94 4e 25 	call	0x4a9c	; 0x4a9c <nokia_lcd_write_string>
     a34:	6a e0       	ldi	r22, 0x0A	; 10
     a36:	80 e0       	ldi	r24, 0x00	; 0
     a38:	0e 94 60 25 	call	0x4ac0	; 0x4ac0 <nokia_lcd_set_cursor>
     a3c:	61 e0       	ldi	r22, 0x01	; 1
     a3e:	84 e8       	ldi	r24, 0x84	; 132
     a40:	92 e0       	ldi	r25, 0x02	; 2
     a42:	0e 94 4e 25 	call	0x4a9c	; 0x4a9c <nokia_lcd_write_string>
     a46:	0c 94 65 25 	jmp	0x4aca	; 0x4aca <nokia_lcd_render>
     a4a:	08 95       	ret

00000a4c <add_drink_ac_display>:
     a4c:	0e 94 68 24 	call	0x48d0	; 0x48d0 <nokia_lcd_clear>
     a50:	61 e0       	ldi	r22, 0x01	; 1
     a52:	80 e9       	ldi	r24, 0x90	; 144
     a54:	92 e0       	ldi	r25, 0x02	; 2
     a56:	0e 94 4e 25 	call	0x4a9c	; 0x4a9c <nokia_lcd_write_string>
     a5a:	6a e0       	ldi	r22, 0x0A	; 10
     a5c:	80 e0       	ldi	r24, 0x00	; 0
     a5e:	0e 94 60 25 	call	0x4ac0	; 0x4ac0 <nokia_lcd_set_cursor>
     a62:	61 e0       	ldi	r22, 0x01	; 1
     a64:	8e e9       	ldi	r24, 0x9E	; 158
     a66:	92 e0       	ldi	r25, 0x02	; 2
     a68:	0e 94 4e 25 	call	0x4a9c	; 0x4a9c <nokia_lcd_write_string>
     a6c:	0c 94 65 25 	jmp	0x4aca	; 0x4aca <nokia_lcd_render>
     a70:	08 95       	ret

00000a72 <add_drink_variable_reset>:
     a72:	10 92 5e 0d 	sts	0x0D5E, r1	; 0x800d5e <add_drink_selection>
     a76:	10 92 5d 0d 	sts	0x0D5D, r1	; 0x800d5d <add_drink_prev_select>
     a7a:	e5 e4       	ldi	r30, 0x45	; 69
     a7c:	f1 e0       	ldi	r31, 0x01	; 1
     a7e:	8f e5       	ldi	r24, 0x5F	; 95
     a80:	80 83       	st	Z, r24
     a82:	11 82       	std	Z+1, r1	; 0x01
     a84:	12 82       	std	Z+2, r1	; 0x02
     a86:	13 82       	std	Z+3, r1	; 0x03
     a88:	08 95       	ret

00000a8a <removeusers_intro>:
     a8a:	80 91 6b 0d 	lds	r24, 0x0D6B	; 0x800d6b <number_of_users>
     a8e:	81 30       	cpi	r24, 0x01	; 1
     a90:	c1 f4       	brne	.+48     	; 0xac2 <removeusers_intro+0x38>
     a92:	0e 94 68 24 	call	0x48d0	; 0x48d0 <nokia_lcd_clear>
     a96:	61 e0       	ldi	r22, 0x01	; 1
     a98:	88 ea       	ldi	r24, 0xA8	; 168
     a9a:	92 e0       	ldi	r25, 0x02	; 2
     a9c:	0e 94 4e 25 	call	0x4a9c	; 0x4a9c <nokia_lcd_write_string>
     aa0:	6a e0       	ldi	r22, 0x0A	; 10
     aa2:	80 e0       	ldi	r24, 0x00	; 0
     aa4:	0e 94 60 25 	call	0x4ac0	; 0x4ac0 <nokia_lcd_set_cursor>
     aa8:	61 e0       	ldi	r22, 0x01	; 1
     aaa:	84 eb       	ldi	r24, 0xB4	; 180
     aac:	92 e0       	ldi	r25, 0x02	; 2
     aae:	0e 94 4e 25 	call	0x4a9c	; 0x4a9c <nokia_lcd_write_string>
     ab2:	61 e0       	ldi	r22, 0x01	; 1
     ab4:	86 e5       	ldi	r24, 0x56	; 86
     ab6:	91 e0       	ldi	r25, 0x01	; 1
     ab8:	0e 94 4e 25 	call	0x4a9c	; 0x4a9c <nokia_lcd_write_string>
     abc:	0c 94 65 25 	jmp	0x4aca	; 0x4aca <nokia_lcd_render>
     ac0:	08 95       	ret
     ac2:	82 30       	cpi	r24, 0x02	; 2
     ac4:	31 f5       	brne	.+76     	; 0xb12 <removeusers_intro+0x88>
     ac6:	0e 94 68 24 	call	0x48d0	; 0x48d0 <nokia_lcd_clear>
     aca:	61 e0       	ldi	r22, 0x01	; 1
     acc:	88 ea       	ldi	r24, 0xA8	; 168
     ace:	92 e0       	ldi	r25, 0x02	; 2
     ad0:	0e 94 4e 25 	call	0x4a9c	; 0x4a9c <nokia_lcd_write_string>
     ad4:	6a e0       	ldi	r22, 0x0A	; 10
     ad6:	80 e0       	ldi	r24, 0x00	; 0
     ad8:	0e 94 60 25 	call	0x4ac0	; 0x4ac0 <nokia_lcd_set_cursor>
     adc:	61 e0       	ldi	r22, 0x01	; 1
     ade:	84 eb       	ldi	r24, 0xB4	; 180
     ae0:	92 e0       	ldi	r25, 0x02	; 2
     ae2:	0e 94 4e 25 	call	0x4a9c	; 0x4a9c <nokia_lcd_write_string>
     ae6:	61 e0       	ldi	r22, 0x01	; 1
     ae8:	86 e5       	ldi	r24, 0x56	; 86
     aea:	91 e0       	ldi	r25, 0x01	; 1
     aec:	0e 94 4e 25 	call	0x4a9c	; 0x4a9c <nokia_lcd_write_string>
     af0:	64 e1       	ldi	r22, 0x14	; 20
     af2:	80 e0       	ldi	r24, 0x00	; 0
     af4:	0e 94 60 25 	call	0x4ac0	; 0x4ac0 <nokia_lcd_set_cursor>
     af8:	61 e0       	ldi	r22, 0x01	; 1
     afa:	88 eb       	ldi	r24, 0xB8	; 184
     afc:	92 e0       	ldi	r25, 0x02	; 2
     afe:	0e 94 4e 25 	call	0x4a9c	; 0x4a9c <nokia_lcd_write_string>
     b02:	61 e0       	ldi	r22, 0x01	; 1
     b04:	84 e7       	ldi	r24, 0x74	; 116
     b06:	91 e0       	ldi	r25, 0x01	; 1
     b08:	0e 94 4e 25 	call	0x4a9c	; 0x4a9c <nokia_lcd_write_string>
     b0c:	0c 94 65 25 	jmp	0x4aca	; 0x4aca <nokia_lcd_render>
     b10:	08 95       	ret
     b12:	83 30       	cpi	r24, 0x03	; 3
     b14:	a1 f5       	brne	.+104    	; 0xb7e <removeusers_intro+0xf4>
     b16:	0e 94 68 24 	call	0x48d0	; 0x48d0 <nokia_lcd_clear>
     b1a:	61 e0       	ldi	r22, 0x01	; 1
     b1c:	88 ea       	ldi	r24, 0xA8	; 168
     b1e:	92 e0       	ldi	r25, 0x02	; 2
     b20:	0e 94 4e 25 	call	0x4a9c	; 0x4a9c <nokia_lcd_write_string>
     b24:	6a e0       	ldi	r22, 0x0A	; 10
     b26:	80 e0       	ldi	r24, 0x00	; 0
     b28:	0e 94 60 25 	call	0x4ac0	; 0x4ac0 <nokia_lcd_set_cursor>
     b2c:	61 e0       	ldi	r22, 0x01	; 1
     b2e:	84 eb       	ldi	r24, 0xB4	; 180
     b30:	92 e0       	ldi	r25, 0x02	; 2
     b32:	0e 94 4e 25 	call	0x4a9c	; 0x4a9c <nokia_lcd_write_string>
     b36:	61 e0       	ldi	r22, 0x01	; 1
     b38:	86 e5       	ldi	r24, 0x56	; 86
     b3a:	91 e0       	ldi	r25, 0x01	; 1
     b3c:	0e 94 4e 25 	call	0x4a9c	; 0x4a9c <nokia_lcd_write_string>
     b40:	64 e1       	ldi	r22, 0x14	; 20
     b42:	80 e0       	ldi	r24, 0x00	; 0
     b44:	0e 94 60 25 	call	0x4ac0	; 0x4ac0 <nokia_lcd_set_cursor>
     b48:	61 e0       	ldi	r22, 0x01	; 1
     b4a:	88 eb       	ldi	r24, 0xB8	; 184
     b4c:	92 e0       	ldi	r25, 0x02	; 2
     b4e:	0e 94 4e 25 	call	0x4a9c	; 0x4a9c <nokia_lcd_write_string>
     b52:	61 e0       	ldi	r22, 0x01	; 1
     b54:	84 e7       	ldi	r24, 0x74	; 116
     b56:	91 e0       	ldi	r25, 0x01	; 1
     b58:	0e 94 4e 25 	call	0x4a9c	; 0x4a9c <nokia_lcd_write_string>
     b5c:	6e e1       	ldi	r22, 0x1E	; 30
     b5e:	80 e0       	ldi	r24, 0x00	; 0
     b60:	0e 94 60 25 	call	0x4ac0	; 0x4ac0 <nokia_lcd_set_cursor>
     b64:	61 e0       	ldi	r22, 0x01	; 1
     b66:	8c eb       	ldi	r24, 0xBC	; 188
     b68:	92 e0       	ldi	r25, 0x02	; 2
     b6a:	0e 94 4e 25 	call	0x4a9c	; 0x4a9c <nokia_lcd_write_string>
     b6e:	61 e0       	ldi	r22, 0x01	; 1
     b70:	82 e9       	ldi	r24, 0x92	; 146
     b72:	91 e0       	ldi	r25, 0x01	; 1
     b74:	0e 94 4e 25 	call	0x4a9c	; 0x4a9c <nokia_lcd_write_string>
     b78:	0c 94 65 25 	jmp	0x4aca	; 0x4aca <nokia_lcd_render>
     b7c:	08 95       	ret
     b7e:	84 30       	cpi	r24, 0x04	; 4
     b80:	09 f0       	breq	.+2      	; 0xb84 <removeusers_intro+0xfa>
     b82:	42 c0       	rjmp	.+132    	; 0xc08 <removeusers_intro+0x17e>
     b84:	0e 94 68 24 	call	0x48d0	; 0x48d0 <nokia_lcd_clear>
     b88:	61 e0       	ldi	r22, 0x01	; 1
     b8a:	88 ea       	ldi	r24, 0xA8	; 168
     b8c:	92 e0       	ldi	r25, 0x02	; 2
     b8e:	0e 94 4e 25 	call	0x4a9c	; 0x4a9c <nokia_lcd_write_string>
     b92:	6a e0       	ldi	r22, 0x0A	; 10
     b94:	80 e0       	ldi	r24, 0x00	; 0
     b96:	0e 94 60 25 	call	0x4ac0	; 0x4ac0 <nokia_lcd_set_cursor>
     b9a:	61 e0       	ldi	r22, 0x01	; 1
     b9c:	84 eb       	ldi	r24, 0xB4	; 180
     b9e:	92 e0       	ldi	r25, 0x02	; 2
     ba0:	0e 94 4e 25 	call	0x4a9c	; 0x4a9c <nokia_lcd_write_string>
     ba4:	61 e0       	ldi	r22, 0x01	; 1
     ba6:	86 e5       	ldi	r24, 0x56	; 86
     ba8:	91 e0       	ldi	r25, 0x01	; 1
     baa:	0e 94 4e 25 	call	0x4a9c	; 0x4a9c <nokia_lcd_write_string>
     bae:	64 e1       	ldi	r22, 0x14	; 20
     bb0:	80 e0       	ldi	r24, 0x00	; 0
     bb2:	0e 94 60 25 	call	0x4ac0	; 0x4ac0 <nokia_lcd_set_cursor>
     bb6:	61 e0       	ldi	r22, 0x01	; 1
     bb8:	88 eb       	ldi	r24, 0xB8	; 184
     bba:	92 e0       	ldi	r25, 0x02	; 2
     bbc:	0e 94 4e 25 	call	0x4a9c	; 0x4a9c <nokia_lcd_write_string>
     bc0:	61 e0       	ldi	r22, 0x01	; 1
     bc2:	84 e7       	ldi	r24, 0x74	; 116
     bc4:	91 e0       	ldi	r25, 0x01	; 1
     bc6:	0e 94 4e 25 	call	0x4a9c	; 0x4a9c <nokia_lcd_write_string>
     bca:	6e e1       	ldi	r22, 0x1E	; 30
     bcc:	80 e0       	ldi	r24, 0x00	; 0
     bce:	0e 94 60 25 	call	0x4ac0	; 0x4ac0 <nokia_lcd_set_cursor>
     bd2:	61 e0       	ldi	r22, 0x01	; 1
     bd4:	8c eb       	ldi	r24, 0xBC	; 188
     bd6:	92 e0       	ldi	r25, 0x02	; 2
     bd8:	0e 94 4e 25 	call	0x4a9c	; 0x4a9c <nokia_lcd_write_string>
     bdc:	61 e0       	ldi	r22, 0x01	; 1
     bde:	82 e9       	ldi	r24, 0x92	; 146
     be0:	91 e0       	ldi	r25, 0x01	; 1
     be2:	0e 94 4e 25 	call	0x4a9c	; 0x4a9c <nokia_lcd_write_string>
     be6:	68 e2       	ldi	r22, 0x28	; 40
     be8:	80 e0       	ldi	r24, 0x00	; 0
     bea:	0e 94 60 25 	call	0x4ac0	; 0x4ac0 <nokia_lcd_set_cursor>
     bee:	61 e0       	ldi	r22, 0x01	; 1
     bf0:	80 ec       	ldi	r24, 0xC0	; 192
     bf2:	92 e0       	ldi	r25, 0x02	; 2
     bf4:	0e 94 4e 25 	call	0x4a9c	; 0x4a9c <nokia_lcd_write_string>
     bf8:	61 e0       	ldi	r22, 0x01	; 1
     bfa:	80 eb       	ldi	r24, 0xB0	; 176
     bfc:	91 e0       	ldi	r25, 0x01	; 1
     bfe:	0e 94 4e 25 	call	0x4a9c	; 0x4a9c <nokia_lcd_write_string>
     c02:	0c 94 65 25 	jmp	0x4aca	; 0x4aca <nokia_lcd_render>
     c06:	08 95       	ret
     c08:	0e 94 68 24 	call	0x48d0	; 0x48d0 <nokia_lcd_clear>
     c0c:	61 e0       	ldi	r22, 0x01	; 1
     c0e:	84 ec       	ldi	r24, 0xC4	; 196
     c10:	92 e0       	ldi	r25, 0x02	; 2
     c12:	0e 94 4e 25 	call	0x4a9c	; 0x4a9c <nokia_lcd_write_string>
     c16:	0c 94 65 25 	jmp	0x4aca	; 0x4aca <nokia_lcd_render>
     c1a:	08 95       	ret

00000c1c <AlphaNumPad>:
     c1c:	2f c0       	rjmp	.+94     	; 0xc7c <AlphaNumPad+0x60>
     c1e:	40 91 4b 0d 	lds	r20, 0x0D4B	; 0x800d4b <auto_timer>
     c22:	50 91 4c 0d 	lds	r21, 0x0D4C	; 0x800d4c <auto_timer+0x1>
     c26:	60 91 4d 0d 	lds	r22, 0x0D4D	; 0x800d4d <auto_timer+0x2>
     c2a:	70 91 4e 0d 	lds	r23, 0x0D4E	; 0x800d4e <auto_timer+0x3>
     c2e:	44 31       	cpi	r20, 0x14	; 20
     c30:	51 05       	cpc	r21, r1
     c32:	61 05       	cpc	r22, r1
     c34:	71 05       	cpc	r23, r1
     c36:	49 f4       	brne	.+18     	; 0xc4a <AlphaNumPad+0x2e>
     c38:	10 92 4b 0d 	sts	0x0D4B, r1	; 0x800d4b <auto_timer>
     c3c:	10 92 4c 0d 	sts	0x0D4C, r1	; 0x800d4c <auto_timer+0x1>
     c40:	10 92 4d 0d 	sts	0x0D4D, r1	; 0x800d4d <auto_timer+0x2>
     c44:	10 92 4e 0d 	sts	0x0D4E, r1	; 0x800d4e <auto_timer+0x3>
     c48:	08 95       	ret
     c4a:	87 ea       	ldi	r24, 0xA7	; 167
     c4c:	91 e6       	ldi	r25, 0x61	; 97
     c4e:	01 97       	sbiw	r24, 0x01	; 1
     c50:	f1 f7       	brne	.-4      	; 0xc4e <AlphaNumPad+0x32>
     c52:	00 c0       	rjmp	.+0      	; 0xc54 <AlphaNumPad+0x38>
     c54:	00 00       	nop
     c56:	80 91 4b 0d 	lds	r24, 0x0D4B	; 0x800d4b <auto_timer>
     c5a:	90 91 4c 0d 	lds	r25, 0x0D4C	; 0x800d4c <auto_timer+0x1>
     c5e:	a0 91 4d 0d 	lds	r26, 0x0D4D	; 0x800d4d <auto_timer+0x2>
     c62:	b0 91 4e 0d 	lds	r27, 0x0D4E	; 0x800d4e <auto_timer+0x3>
     c66:	01 96       	adiw	r24, 0x01	; 1
     c68:	a1 1d       	adc	r26, r1
     c6a:	b1 1d       	adc	r27, r1
     c6c:	80 93 4b 0d 	sts	0x0D4B, r24	; 0x800d4b <auto_timer>
     c70:	90 93 4c 0d 	sts	0x0D4C, r25	; 0x800d4c <auto_timer+0x1>
     c74:	a0 93 4d 0d 	sts	0x0D4D, r26	; 0x800d4d <auto_timer+0x2>
     c78:	b0 93 4e 0d 	sts	0x0D4E, r27	; 0x800d4e <auto_timer+0x3>
     c7c:	41 de       	rcall	.-894    	; 0x900 <GetKeypadKey>
     c7e:	80 93 e5 0f 	sts	0x0FE5, r24	; 0x800fe5 <pushed_key_ANP>
     c82:	88 23       	and	r24, r24
     c84:	61 f2       	breq	.-104    	; 0xc1e <AlphaNumPad+0x2>
     c86:	3c de       	rcall	.-904    	; 0x900 <GetKeypadKey>
     c88:	80 93 ea 0f 	sts	0x0FEA, r24	; 0x800fea <tmp_pressed_key>
     c8c:	90 91 e5 0f 	lds	r25, 0x0FE5	; 0x800fe5 <pushed_key_ANP>
     c90:	89 17       	cp	r24, r25
     c92:	c9 f3       	breq	.-14     	; 0xc86 <AlphaNumPad+0x6a>
     c94:	10 92 4b 0d 	sts	0x0D4B, r1	; 0x800d4b <auto_timer>
     c98:	10 92 4c 0d 	sts	0x0D4C, r1	; 0x800d4c <auto_timer+0x1>
     c9c:	10 92 4d 0d 	sts	0x0D4D, r1	; 0x800d4d <auto_timer+0x2>
     ca0:	10 92 4e 0d 	sts	0x0D4E, r1	; 0x800d4e <auto_timer+0x3>
     ca4:	80 91 51 0d 	lds	r24, 0x0D51	; 0x800d51 <previous_key_ANP>
     ca8:	98 13       	cpse	r25, r24
     caa:	8a c0       	rjmp	.+276    	; 0xdc0 <AlphaNumPad+0x1a4>
     cac:	20 91 4f 0d 	lds	r18, 0x0D4F	; 0x800d4f <num_times_key_pushed>
     cb0:	30 91 50 0d 	lds	r19, 0x0D50	; 0x800d50 <num_times_key_pushed+0x1>
     cb4:	23 30       	cpi	r18, 0x03	; 3
     cb6:	31 05       	cpc	r19, r1
     cb8:	38 f4       	brcc	.+14     	; 0xcc8 <AlphaNumPad+0xac>
     cba:	2f 5f       	subi	r18, 0xFF	; 255
     cbc:	3f 4f       	sbci	r19, 0xFF	; 255
     cbe:	30 93 50 0d 	sts	0x0D50, r19	; 0x800d50 <num_times_key_pushed+0x1>
     cc2:	20 93 4f 0d 	sts	0x0D4F, r18	; 0x800d4f <num_times_key_pushed>
     cc6:	04 c0       	rjmp	.+8      	; 0xcd0 <AlphaNumPad+0xb4>
     cc8:	10 92 50 0d 	sts	0x0D50, r1	; 0x800d50 <num_times_key_pushed+0x1>
     ccc:	10 92 4f 0d 	sts	0x0D4F, r1	; 0x800d4f <num_times_key_pushed>
     cd0:	81 33       	cpi	r24, 0x31	; 49
     cd2:	41 f4       	brne	.+16     	; 0xce4 <AlphaNumPad+0xc8>
     cd4:	e0 91 4f 0d 	lds	r30, 0x0D4F	; 0x800d4f <num_times_key_pushed>
     cd8:	f0 91 50 0d 	lds	r31, 0x0D50	; 0x800d50 <num_times_key_pushed+0x1>
     cdc:	ef 5b       	subi	r30, 0xBF	; 191
     cde:	fe 4f       	sbci	r31, 0xFE	; 254
     ce0:	80 81       	ld	r24, Z
     ce2:	08 95       	ret
     ce4:	82 33       	cpi	r24, 0x32	; 50
     ce6:	41 f4       	brne	.+16     	; 0xcf8 <AlphaNumPad+0xdc>
     ce8:	e0 91 4f 0d 	lds	r30, 0x0D4F	; 0x800d4f <num_times_key_pushed>
     cec:	f0 91 50 0d 	lds	r31, 0x0D50	; 0x800d50 <num_times_key_pushed+0x1>
     cf0:	e3 5c       	subi	r30, 0xC3	; 195
     cf2:	fe 4f       	sbci	r31, 0xFE	; 254
     cf4:	80 81       	ld	r24, Z
     cf6:	08 95       	ret
     cf8:	83 33       	cpi	r24, 0x33	; 51
     cfa:	41 f4       	brne	.+16     	; 0xd0c <AlphaNumPad+0xf0>
     cfc:	e0 91 4f 0d 	lds	r30, 0x0D4F	; 0x800d4f <num_times_key_pushed>
     d00:	f0 91 50 0d 	lds	r31, 0x0D50	; 0x800d50 <num_times_key_pushed+0x1>
     d04:	e7 5c       	subi	r30, 0xC7	; 199
     d06:	fe 4f       	sbci	r31, 0xFE	; 254
     d08:	80 81       	ld	r24, Z
     d0a:	08 95       	ret
     d0c:	84 33       	cpi	r24, 0x34	; 52
     d0e:	41 f4       	brne	.+16     	; 0xd20 <AlphaNumPad+0x104>
     d10:	e0 91 4f 0d 	lds	r30, 0x0D4F	; 0x800d4f <num_times_key_pushed>
     d14:	f0 91 50 0d 	lds	r31, 0x0D50	; 0x800d50 <num_times_key_pushed+0x1>
     d18:	eb 5c       	subi	r30, 0xCB	; 203
     d1a:	fe 4f       	sbci	r31, 0xFE	; 254
     d1c:	80 81       	ld	r24, Z
     d1e:	08 95       	ret
     d20:	85 33       	cpi	r24, 0x35	; 53
     d22:	41 f4       	brne	.+16     	; 0xd34 <AlphaNumPad+0x118>
     d24:	e0 91 4f 0d 	lds	r30, 0x0D4F	; 0x800d4f <num_times_key_pushed>
     d28:	f0 91 50 0d 	lds	r31, 0x0D50	; 0x800d50 <num_times_key_pushed+0x1>
     d2c:	ef 5c       	subi	r30, 0xCF	; 207
     d2e:	fe 4f       	sbci	r31, 0xFE	; 254
     d30:	80 81       	ld	r24, Z
     d32:	08 95       	ret
     d34:	86 33       	cpi	r24, 0x36	; 54
     d36:	41 f4       	brne	.+16     	; 0xd48 <AlphaNumPad+0x12c>
     d38:	e0 91 4f 0d 	lds	r30, 0x0D4F	; 0x800d4f <num_times_key_pushed>
     d3c:	f0 91 50 0d 	lds	r31, 0x0D50	; 0x800d50 <num_times_key_pushed+0x1>
     d40:	e3 5d       	subi	r30, 0xD3	; 211
     d42:	fe 4f       	sbci	r31, 0xFE	; 254
     d44:	80 81       	ld	r24, Z
     d46:	08 95       	ret
     d48:	87 33       	cpi	r24, 0x37	; 55
     d4a:	41 f4       	brne	.+16     	; 0xd5c <AlphaNumPad+0x140>
     d4c:	e0 91 4f 0d 	lds	r30, 0x0D4F	; 0x800d4f <num_times_key_pushed>
     d50:	f0 91 50 0d 	lds	r31, 0x0D50	; 0x800d50 <num_times_key_pushed+0x1>
     d54:	e7 5d       	subi	r30, 0xD7	; 215
     d56:	fe 4f       	sbci	r31, 0xFE	; 254
     d58:	80 81       	ld	r24, Z
     d5a:	08 95       	ret
     d5c:	88 33       	cpi	r24, 0x38	; 56
     d5e:	41 f4       	brne	.+16     	; 0xd70 <AlphaNumPad+0x154>
     d60:	e0 91 4f 0d 	lds	r30, 0x0D4F	; 0x800d4f <num_times_key_pushed>
     d64:	f0 91 50 0d 	lds	r31, 0x0D50	; 0x800d50 <num_times_key_pushed+0x1>
     d68:	eb 5d       	subi	r30, 0xDB	; 219
     d6a:	fe 4f       	sbci	r31, 0xFE	; 254
     d6c:	80 81       	ld	r24, Z
     d6e:	08 95       	ret
     d70:	89 33       	cpi	r24, 0x39	; 57
     d72:	41 f4       	brne	.+16     	; 0xd84 <AlphaNumPad+0x168>
     d74:	e0 91 4f 0d 	lds	r30, 0x0D4F	; 0x800d4f <num_times_key_pushed>
     d78:	f0 91 50 0d 	lds	r31, 0x0D50	; 0x800d50 <num_times_key_pushed+0x1>
     d7c:	ef 5d       	subi	r30, 0xDF	; 223
     d7e:	fe 4f       	sbci	r31, 0xFE	; 254
     d80:	80 81       	ld	r24, Z
     d82:	08 95       	ret
     d84:	80 33       	cpi	r24, 0x30	; 48
     d86:	41 f4       	brne	.+16     	; 0xd98 <AlphaNumPad+0x17c>
     d88:	e0 91 4f 0d 	lds	r30, 0x0D4F	; 0x800d4f <num_times_key_pushed>
     d8c:	f0 91 50 0d 	lds	r31, 0x0D50	; 0x800d50 <num_times_key_pushed+0x1>
     d90:	e3 5e       	subi	r30, 0xE3	; 227
     d92:	fe 4f       	sbci	r31, 0xFE	; 254
     d94:	80 81       	ld	r24, Z
     d96:	08 95       	ret
     d98:	8a 32       	cpi	r24, 0x2A	; 42
     d9a:	41 f4       	brne	.+16     	; 0xdac <AlphaNumPad+0x190>
     d9c:	e0 91 4f 0d 	lds	r30, 0x0D4F	; 0x800d4f <num_times_key_pushed>
     da0:	f0 91 50 0d 	lds	r31, 0x0D50	; 0x800d50 <num_times_key_pushed+0x1>
     da4:	e7 5e       	subi	r30, 0xE7	; 231
     da6:	fe 4f       	sbci	r31, 0xFE	; 254
     da8:	80 81       	ld	r24, Z
     daa:	08 95       	ret
     dac:	83 32       	cpi	r24, 0x23	; 35
     dae:	71 f4       	brne	.+28     	; 0xdcc <AlphaNumPad+0x1b0>
     db0:	e0 91 4f 0d 	lds	r30, 0x0D4F	; 0x800d4f <num_times_key_pushed>
     db4:	f0 91 50 0d 	lds	r31, 0x0D50	; 0x800d50 <num_times_key_pushed+0x1>
     db8:	eb 5e       	subi	r30, 0xEB	; 235
     dba:	fe 4f       	sbci	r31, 0xFE	; 254
     dbc:	80 81       	ld	r24, Z
     dbe:	08 95       	ret
     dc0:	90 93 51 0d 	sts	0x0D51, r25	; 0x800d51 <previous_key_ANP>
     dc4:	10 92 50 0d 	sts	0x0D50, r1	; 0x800d50 <num_times_key_pushed+0x1>
     dc8:	10 92 4f 0d 	sts	0x0D4F, r1	; 0x800d4f <num_times_key_pushed>
     dcc:	80 91 51 0d 	lds	r24, 0x0D51	; 0x800d51 <previous_key_ANP>
     dd0:	08 95       	ret

00000dd2 <MainMenu_Init>:
     dd2:	10 92 eb 0f 	sts	0x0FEB, r1	; 0x800feb <mainmenu_state>
     dd6:	e0 cc       	rjmp	.-1600   	; 0x798 <main_menu_display>
     dd8:	08 95       	ret

00000dda <MainMenu_Tick>:
     dda:	e0 91 eb 0f 	lds	r30, 0x0FEB	; 0x800feb <mainmenu_state>
     dde:	8e 2f       	mov	r24, r30
     de0:	90 e0       	ldi	r25, 0x00	; 0
     de2:	8c 30       	cpi	r24, 0x0C	; 12
     de4:	91 05       	cpc	r25, r1
     de6:	08 f0       	brcs	.+2      	; 0xdea <MainMenu_Tick+0x10>
     de8:	ac c0       	rjmp	.+344    	; 0xf42 <MainMenu_Tick+0x168>
     dea:	fc 01       	movw	r30, r24
     dec:	ea 5b       	subi	r30, 0xBA	; 186
     dee:	ff 4f       	sbci	r31, 0xFF	; 255
     df0:	0c 94 ba 2c 	jmp	0x5974	; 0x5974 <__tablejump2__>
     df4:	85 dd       	rcall	.-1270   	; 0x900 <GetKeypadKey>
     df6:	80 93 76 0d 	sts	0x0D76, r24	; 0x800d76 <main_menu_selection>
     dfa:	82 dd       	rcall	.-1276   	; 0x900 <GetKeypadKey>
     dfc:	90 91 76 0d 	lds	r25, 0x0D76	; 0x800d76 <main_menu_selection>
     e00:	89 13       	cpse	r24, r25
     e02:	9f c0       	rjmp	.+318    	; 0xf42 <MainMenu_Tick+0x168>
     e04:	7d dd       	rcall	.-1286   	; 0x900 <GetKeypadKey>
     e06:	90 91 76 0d 	lds	r25, 0x0D76	; 0x800d76 <main_menu_selection>
     e0a:	98 17       	cp	r25, r24
     e0c:	d9 f3       	breq	.-10     	; 0xe04 <MainMenu_Tick+0x2a>
     e0e:	99 c0       	rjmp	.+306    	; 0xf42 <MainMenu_Tick+0x168>
     e10:	77 dd       	rcall	.-1298   	; 0x900 <GetKeypadKey>
     e12:	80 93 75 0d 	sts	0x0D75, r24	; 0x800d75 <temp_menu_selection>
     e16:	74 dd       	rcall	.-1304   	; 0x900 <GetKeypadKey>
     e18:	90 91 75 0d 	lds	r25, 0x0D75	; 0x800d75 <temp_menu_selection>
     e1c:	89 13       	cpse	r24, r25
     e1e:	91 c0       	rjmp	.+290    	; 0xf42 <MainMenu_Tick+0x168>
     e20:	6f dd       	rcall	.-1314   	; 0x900 <GetKeypadKey>
     e22:	90 91 75 0d 	lds	r25, 0x0D75	; 0x800d75 <temp_menu_selection>
     e26:	98 17       	cp	r25, r24
     e28:	d9 f3       	breq	.-10     	; 0xe20 <MainMenu_Tick+0x46>
     e2a:	8b c0       	rjmp	.+278    	; 0xf42 <MainMenu_Tick+0x168>
     e2c:	69 dd       	rcall	.-1326   	; 0x900 <GetKeypadKey>
     e2e:	80 93 75 0d 	sts	0x0D75, r24	; 0x800d75 <temp_menu_selection>
     e32:	66 dd       	rcall	.-1332   	; 0x900 <GetKeypadKey>
     e34:	90 91 75 0d 	lds	r25, 0x0D75	; 0x800d75 <temp_menu_selection>
     e38:	89 13       	cpse	r24, r25
     e3a:	83 c0       	rjmp	.+262    	; 0xf42 <MainMenu_Tick+0x168>
     e3c:	61 dd       	rcall	.-1342   	; 0x900 <GetKeypadKey>
     e3e:	90 91 75 0d 	lds	r25, 0x0D75	; 0x800d75 <temp_menu_selection>
     e42:	98 17       	cp	r25, r24
     e44:	d9 f3       	breq	.-10     	; 0xe3c <MainMenu_Tick+0x62>
     e46:	7d c0       	rjmp	.+250    	; 0xf42 <MainMenu_Tick+0x168>
     e48:	5b dd       	rcall	.-1354   	; 0x900 <GetKeypadKey>
     e4a:	80 93 74 0d 	sts	0x0D74, r24	; 0x800d74 <settings_menu_selection>
     e4e:	58 dd       	rcall	.-1360   	; 0x900 <GetKeypadKey>
     e50:	90 91 74 0d 	lds	r25, 0x0D74	; 0x800d74 <settings_menu_selection>
     e54:	89 13       	cpse	r24, r25
     e56:	75 c0       	rjmp	.+234    	; 0xf42 <MainMenu_Tick+0x168>
     e58:	53 dd       	rcall	.-1370   	; 0x900 <GetKeypadKey>
     e5a:	90 91 74 0d 	lds	r25, 0x0D74	; 0x800d74 <settings_menu_selection>
     e5e:	98 17       	cp	r25, r24
     e60:	d9 f3       	breq	.-10     	; 0xe58 <MainMenu_Tick+0x7e>
     e62:	6f c0       	rjmp	.+222    	; 0xf42 <MainMenu_Tick+0x168>
     e64:	4d dd       	rcall	.-1382   	; 0x900 <GetKeypadKey>
     e66:	80 93 73 0d 	sts	0x0D73, r24	; 0x800d73 <drink_menu_selection>
     e6a:	4a dd       	rcall	.-1388   	; 0x900 <GetKeypadKey>
     e6c:	90 91 73 0d 	lds	r25, 0x0D73	; 0x800d73 <drink_menu_selection>
     e70:	89 13       	cpse	r24, r25
     e72:	67 c0       	rjmp	.+206    	; 0xf42 <MainMenu_Tick+0x168>
     e74:	45 dd       	rcall	.-1398   	; 0x900 <GetKeypadKey>
     e76:	90 91 73 0d 	lds	r25, 0x0D73	; 0x800d73 <drink_menu_selection>
     e7a:	98 17       	cp	r25, r24
     e7c:	d9 f3       	breq	.-10     	; 0xe74 <MainMenu_Tick+0x9a>
     e7e:	61 c0       	rjmp	.+194    	; 0xf42 <MainMenu_Tick+0x168>
     e80:	3f dd       	rcall	.-1410   	; 0x900 <GetKeypadKey>
     e82:	80 93 75 0d 	sts	0x0D75, r24	; 0x800d75 <temp_menu_selection>
     e86:	3c dd       	rcall	.-1416   	; 0x900 <GetKeypadKey>
     e88:	90 91 75 0d 	lds	r25, 0x0D75	; 0x800d75 <temp_menu_selection>
     e8c:	89 13       	cpse	r24, r25
     e8e:	59 c0       	rjmp	.+178    	; 0xf42 <MainMenu_Tick+0x168>
     e90:	37 dd       	rcall	.-1426   	; 0x900 <GetKeypadKey>
     e92:	90 91 75 0d 	lds	r25, 0x0D75	; 0x800d75 <temp_menu_selection>
     e96:	98 17       	cp	r25, r24
     e98:	d9 f3       	breq	.-10     	; 0xe90 <MainMenu_Tick+0xb6>
     e9a:	53 c0       	rjmp	.+166    	; 0xf42 <MainMenu_Tick+0x168>
     e9c:	31 dd       	rcall	.-1438   	; 0x900 <GetKeypadKey>
     e9e:	80 93 75 0d 	sts	0x0D75, r24	; 0x800d75 <temp_menu_selection>
     ea2:	2e dd       	rcall	.-1444   	; 0x900 <GetKeypadKey>
     ea4:	90 91 75 0d 	lds	r25, 0x0D75	; 0x800d75 <temp_menu_selection>
     ea8:	89 13       	cpse	r24, r25
     eaa:	4b c0       	rjmp	.+150    	; 0xf42 <MainMenu_Tick+0x168>
     eac:	29 dd       	rcall	.-1454   	; 0x900 <GetKeypadKey>
     eae:	90 91 75 0d 	lds	r25, 0x0D75	; 0x800d75 <temp_menu_selection>
     eb2:	98 17       	cp	r25, r24
     eb4:	d9 f3       	breq	.-10     	; 0xeac <MainMenu_Tick+0xd2>
     eb6:	45 c0       	rjmp	.+138    	; 0xf42 <MainMenu_Tick+0x168>
     eb8:	23 dd       	rcall	.-1466   	; 0x900 <GetKeypadKey>
     eba:	80 93 72 0d 	sts	0x0D72, r24	; 0x800d72 <user_menu_selection>
     ebe:	20 dd       	rcall	.-1472   	; 0x900 <GetKeypadKey>
     ec0:	90 91 72 0d 	lds	r25, 0x0D72	; 0x800d72 <user_menu_selection>
     ec4:	89 13       	cpse	r24, r25
     ec6:	3d c0       	rjmp	.+122    	; 0xf42 <MainMenu_Tick+0x168>
     ec8:	1b dd       	rcall	.-1482   	; 0x900 <GetKeypadKey>
     eca:	90 91 72 0d 	lds	r25, 0x0D72	; 0x800d72 <user_menu_selection>
     ece:	98 17       	cp	r25, r24
     ed0:	d9 f3       	breq	.-10     	; 0xec8 <MainMenu_Tick+0xee>
     ed2:	37 c0       	rjmp	.+110    	; 0xf42 <MainMenu_Tick+0x168>
     ed4:	15 dd       	rcall	.-1494   	; 0x900 <GetKeypadKey>
     ed6:	80 93 75 0d 	sts	0x0D75, r24	; 0x800d75 <temp_menu_selection>
     eda:	12 dd       	rcall	.-1500   	; 0x900 <GetKeypadKey>
     edc:	90 91 75 0d 	lds	r25, 0x0D75	; 0x800d75 <temp_menu_selection>
     ee0:	89 13       	cpse	r24, r25
     ee2:	2f c0       	rjmp	.+94     	; 0xf42 <MainMenu_Tick+0x168>
     ee4:	0d dd       	rcall	.-1510   	; 0x900 <GetKeypadKey>
     ee6:	90 91 75 0d 	lds	r25, 0x0D75	; 0x800d75 <temp_menu_selection>
     eea:	98 17       	cp	r25, r24
     eec:	d9 f3       	breq	.-10     	; 0xee4 <MainMenu_Tick+0x10a>
     eee:	29 c0       	rjmp	.+82     	; 0xf42 <MainMenu_Tick+0x168>
     ef0:	07 dd       	rcall	.-1522   	; 0x900 <GetKeypadKey>
     ef2:	80 93 75 0d 	sts	0x0D75, r24	; 0x800d75 <temp_menu_selection>
     ef6:	04 dd       	rcall	.-1528   	; 0x900 <GetKeypadKey>
     ef8:	90 91 75 0d 	lds	r25, 0x0D75	; 0x800d75 <temp_menu_selection>
     efc:	89 13       	cpse	r24, r25
     efe:	21 c0       	rjmp	.+66     	; 0xf42 <MainMenu_Tick+0x168>
     f00:	ff dc       	rcall	.-1538   	; 0x900 <GetKeypadKey>
     f02:	90 91 75 0d 	lds	r25, 0x0D75	; 0x800d75 <temp_menu_selection>
     f06:	98 17       	cp	r25, r24
     f08:	d9 f3       	breq	.-10     	; 0xf00 <MainMenu_Tick+0x126>
     f0a:	1b c0       	rjmp	.+54     	; 0xf42 <MainMenu_Tick+0x168>
     f0c:	f9 dc       	rcall	.-1550   	; 0x900 <GetKeypadKey>
     f0e:	80 93 75 0d 	sts	0x0D75, r24	; 0x800d75 <temp_menu_selection>
     f12:	f6 dc       	rcall	.-1556   	; 0x900 <GetKeypadKey>
     f14:	90 91 75 0d 	lds	r25, 0x0D75	; 0x800d75 <temp_menu_selection>
     f18:	89 13       	cpse	r24, r25
     f1a:	13 c0       	rjmp	.+38     	; 0xf42 <MainMenu_Tick+0x168>
     f1c:	f1 dc       	rcall	.-1566   	; 0x900 <GetKeypadKey>
     f1e:	90 91 75 0d 	lds	r25, 0x0D75	; 0x800d75 <temp_menu_selection>
     f22:	98 17       	cp	r25, r24
     f24:	d9 f3       	breq	.-10     	; 0xf1c <MainMenu_Tick+0x142>
     f26:	0d c0       	rjmp	.+26     	; 0xf42 <MainMenu_Tick+0x168>
     f28:	eb dc       	rcall	.-1578   	; 0x900 <GetKeypadKey>
     f2a:	80 93 75 0d 	sts	0x0D75, r24	; 0x800d75 <temp_menu_selection>
     f2e:	e8 dc       	rcall	.-1584   	; 0x900 <GetKeypadKey>
     f30:	90 91 75 0d 	lds	r25, 0x0D75	; 0x800d75 <temp_menu_selection>
     f34:	89 13       	cpse	r24, r25
     f36:	05 c0       	rjmp	.+10     	; 0xf42 <MainMenu_Tick+0x168>
     f38:	e3 dc       	rcall	.-1594   	; 0x900 <GetKeypadKey>
     f3a:	90 91 75 0d 	lds	r25, 0x0D75	; 0x800d75 <temp_menu_selection>
     f3e:	98 17       	cp	r25, r24
     f40:	d9 f3       	breq	.-10     	; 0xf38 <MainMenu_Tick+0x15e>
     f42:	e0 91 eb 0f 	lds	r30, 0x0FEB	; 0x800feb <mainmenu_state>
     f46:	8e 2f       	mov	r24, r30
     f48:	90 e0       	ldi	r25, 0x00	; 0
     f4a:	8b 30       	cpi	r24, 0x0B	; 11
     f4c:	91 05       	cpc	r25, r1
     f4e:	08 f0       	brcs	.+2      	; 0xf52 <MainMenu_Tick+0x178>
     f50:	f9 c0       	rjmp	.+498    	; 0x1144 <MainMenu_Tick+0x36a>
     f52:	fc 01       	movw	r30, r24
     f54:	ee 5a       	subi	r30, 0xAE	; 174
     f56:	ff 4f       	sbci	r31, 0xFF	; 255
     f58:	0c 94 ba 2c 	jmp	0x5974	; 0x5974 <__tablejump2__>
     f5c:	80 91 76 0d 	lds	r24, 0x0D76	; 0x800d76 <main_menu_selection>
     f60:	81 33       	cpi	r24, 0x31	; 49
     f62:	31 f4       	brne	.+12     	; 0xf70 <MainMenu_Tick+0x196>
     f64:	81 e0       	ldi	r24, 0x01	; 1
     f66:	80 93 6e 0d 	sts	0x0D6E, r24	; 0x800d6e <get_drink_flag>
     f6a:	80 93 eb 0f 	sts	0x0FEB, r24	; 0x800feb <mainmenu_state>
     f6e:	08 95       	ret
     f70:	82 33       	cpi	r24, 0x32	; 50
     f72:	39 f4       	brne	.+14     	; 0xf82 <MainMenu_Tick+0x1a8>
     f74:	81 e0       	ldi	r24, 0x01	; 1
     f76:	80 93 6d 0d 	sts	0x0D6D, r24	; 0x800d6d <get_key_flag>
     f7a:	82 e0       	ldi	r24, 0x02	; 2
     f7c:	80 93 eb 0f 	sts	0x0FEB, r24	; 0x800feb <mainmenu_state>
     f80:	08 95       	ret
     f82:	83 33       	cpi	r24, 0x33	; 51
     f84:	09 f0       	breq	.+2      	; 0xf88 <MainMenu_Tick+0x1ae>
     f86:	eb c0       	rjmp	.+470    	; 0x115e <MainMenu_Tick+0x384>
     f88:	83 e0       	ldi	r24, 0x03	; 3
     f8a:	80 93 eb 0f 	sts	0x0FEB, r24	; 0x800feb <mainmenu_state>
     f8e:	29 cc       	rjmp	.-1966   	; 0x7e2 <settings_submenu_display>
     f90:	08 95       	ret
     f92:	80 91 6e 0d 	lds	r24, 0x0D6E	; 0x800d6e <get_drink_flag>
     f96:	81 11       	cpse	r24, r1
     f98:	e2 c0       	rjmp	.+452    	; 0x115e <MainMenu_Tick+0x384>
     f9a:	10 92 76 0d 	sts	0x0D76, r1	; 0x800d76 <main_menu_selection>
     f9e:	10 92 75 0d 	sts	0x0D75, r1	; 0x800d75 <temp_menu_selection>
     fa2:	10 92 74 0d 	sts	0x0D74, r1	; 0x800d74 <settings_menu_selection>
     fa6:	10 92 73 0d 	sts	0x0D73, r1	; 0x800d73 <drink_menu_selection>
     faa:	10 92 72 0d 	sts	0x0D72, r1	; 0x800d72 <user_menu_selection>
     fae:	f4 db       	rcall	.-2072   	; 0x798 <main_menu_display>
     fb0:	10 92 eb 0f 	sts	0x0FEB, r1	; 0x800feb <mainmenu_state>
     fb4:	08 95       	ret
     fb6:	80 91 6d 0d 	lds	r24, 0x0D6D	; 0x800d6d <get_key_flag>
     fba:	81 11       	cpse	r24, r1
     fbc:	d0 c0       	rjmp	.+416    	; 0x115e <MainMenu_Tick+0x384>
     fbe:	10 92 76 0d 	sts	0x0D76, r1	; 0x800d76 <main_menu_selection>
     fc2:	10 92 75 0d 	sts	0x0D75, r1	; 0x800d75 <temp_menu_selection>
     fc6:	10 92 74 0d 	sts	0x0D74, r1	; 0x800d74 <settings_menu_selection>
     fca:	10 92 73 0d 	sts	0x0D73, r1	; 0x800d73 <drink_menu_selection>
     fce:	10 92 72 0d 	sts	0x0D72, r1	; 0x800d72 <user_menu_selection>
     fd2:	e2 db       	rcall	.-2108   	; 0x798 <main_menu_display>
     fd4:	10 92 eb 0f 	sts	0x0FEB, r1	; 0x800feb <mainmenu_state>
     fd8:	08 95       	ret
     fda:	80 91 74 0d 	lds	r24, 0x0D74	; 0x800d74 <settings_menu_selection>
     fde:	81 33       	cpi	r24, 0x31	; 49
     fe0:	29 f4       	brne	.+10     	; 0xfec <MainMenu_Tick+0x212>
     fe2:	84 e0       	ldi	r24, 0x04	; 4
     fe4:	80 93 eb 0f 	sts	0x0FEB, r24	; 0x800feb <mainmenu_state>
     fe8:	21 cc       	rjmp	.-1982   	; 0x82c <drinks_submenu_display>
     fea:	08 95       	ret
     fec:	82 33       	cpi	r24, 0x32	; 50
     fee:	29 f4       	brne	.+10     	; 0xffa <MainMenu_Tick+0x220>
     ff0:	87 e0       	ldi	r24, 0x07	; 7
     ff2:	80 93 eb 0f 	sts	0x0FEB, r24	; 0x800feb <mainmenu_state>
     ff6:	48 cc       	rjmp	.-1904   	; 0x888 <user_submenu_display>
     ff8:	08 95       	ret
     ffa:	83 33       	cpi	r24, 0x33	; 51
     ffc:	09 f0       	breq	.+2      	; 0x1000 <MainMenu_Tick+0x226>
     ffe:	af c0       	rjmp	.+350    	; 0x115e <MainMenu_Tick+0x384>
    1000:	10 92 eb 0f 	sts	0x0FEB, r1	; 0x800feb <mainmenu_state>
    1004:	10 92 76 0d 	sts	0x0D76, r1	; 0x800d76 <main_menu_selection>
    1008:	10 92 75 0d 	sts	0x0D75, r1	; 0x800d75 <temp_menu_selection>
    100c:	10 92 74 0d 	sts	0x0D74, r1	; 0x800d74 <settings_menu_selection>
    1010:	10 92 73 0d 	sts	0x0D73, r1	; 0x800d73 <drink_menu_selection>
    1014:	10 92 72 0d 	sts	0x0D72, r1	; 0x800d72 <user_menu_selection>
    1018:	bf cb       	rjmp	.-2178   	; 0x798 <main_menu_display>
    101a:	08 95       	ret
    101c:	80 91 73 0d 	lds	r24, 0x0D73	; 0x800d73 <drink_menu_selection>
    1020:	81 33       	cpi	r24, 0x31	; 49
    1022:	39 f4       	brne	.+14     	; 0x1032 <MainMenu_Tick+0x258>
    1024:	81 e0       	ldi	r24, 0x01	; 1
    1026:	80 93 5f 0d 	sts	0x0D5F, r24	; 0x800d5f <add_drink_flag>
    102a:	85 e0       	ldi	r24, 0x05	; 5
    102c:	80 93 eb 0f 	sts	0x0FEB, r24	; 0x800feb <mainmenu_state>
    1030:	08 95       	ret
    1032:	82 33       	cpi	r24, 0x32	; 50
    1034:	39 f4       	brne	.+14     	; 0x1044 <MainMenu_Tick+0x26a>
    1036:	81 e0       	ldi	r24, 0x01	; 1
    1038:	80 93 52 0d 	sts	0x0D52, r24	; 0x800d52 <replace_drink_flag>
    103c:	86 e0       	ldi	r24, 0x06	; 6
    103e:	80 93 eb 0f 	sts	0x0FEB, r24	; 0x800feb <mainmenu_state>
    1042:	08 95       	ret
    1044:	83 33       	cpi	r24, 0x33	; 51
    1046:	09 f0       	breq	.+2      	; 0x104a <MainMenu_Tick+0x270>
    1048:	8a c0       	rjmp	.+276    	; 0x115e <MainMenu_Tick+0x384>
    104a:	10 92 eb 0f 	sts	0x0FEB, r1	; 0x800feb <mainmenu_state>
    104e:	10 92 76 0d 	sts	0x0D76, r1	; 0x800d76 <main_menu_selection>
    1052:	10 92 75 0d 	sts	0x0D75, r1	; 0x800d75 <temp_menu_selection>
    1056:	10 92 74 0d 	sts	0x0D74, r1	; 0x800d74 <settings_menu_selection>
    105a:	10 92 73 0d 	sts	0x0D73, r1	; 0x800d73 <drink_menu_selection>
    105e:	10 92 72 0d 	sts	0x0D72, r1	; 0x800d72 <user_menu_selection>
    1062:	9a cb       	rjmp	.-2252   	; 0x798 <main_menu_display>
    1064:	08 95       	ret
    1066:	80 91 5f 0d 	lds	r24, 0x0D5F	; 0x800d5f <add_drink_flag>
    106a:	81 11       	cpse	r24, r1
    106c:	78 c0       	rjmp	.+240    	; 0x115e <MainMenu_Tick+0x384>
    106e:	10 92 eb 0f 	sts	0x0FEB, r1	; 0x800feb <mainmenu_state>
    1072:	10 92 76 0d 	sts	0x0D76, r1	; 0x800d76 <main_menu_selection>
    1076:	10 92 75 0d 	sts	0x0D75, r1	; 0x800d75 <temp_menu_selection>
    107a:	10 92 74 0d 	sts	0x0D74, r1	; 0x800d74 <settings_menu_selection>
    107e:	10 92 73 0d 	sts	0x0D73, r1	; 0x800d73 <drink_menu_selection>
    1082:	10 92 72 0d 	sts	0x0D72, r1	; 0x800d72 <user_menu_selection>
    1086:	88 cb       	rjmp	.-2288   	; 0x798 <main_menu_display>
    1088:	08 95       	ret
    108a:	80 91 52 0d 	lds	r24, 0x0D52	; 0x800d52 <replace_drink_flag>
    108e:	81 11       	cpse	r24, r1
    1090:	66 c0       	rjmp	.+204    	; 0x115e <MainMenu_Tick+0x384>
    1092:	10 92 eb 0f 	sts	0x0FEB, r1	; 0x800feb <mainmenu_state>
    1096:	10 92 76 0d 	sts	0x0D76, r1	; 0x800d76 <main_menu_selection>
    109a:	10 92 75 0d 	sts	0x0D75, r1	; 0x800d75 <temp_menu_selection>
    109e:	10 92 74 0d 	sts	0x0D74, r1	; 0x800d74 <settings_menu_selection>
    10a2:	10 92 73 0d 	sts	0x0D73, r1	; 0x800d73 <drink_menu_selection>
    10a6:	10 92 72 0d 	sts	0x0D72, r1	; 0x800d72 <user_menu_selection>
    10aa:	76 cb       	rjmp	.-2324   	; 0x798 <main_menu_display>
    10ac:	08 95       	ret
    10ae:	80 91 72 0d 	lds	r24, 0x0D72	; 0x800d72 <user_menu_selection>
    10b2:	81 33       	cpi	r24, 0x31	; 49
    10b4:	51 f4       	brne	.+20     	; 0x10ca <MainMenu_Tick+0x2f0>
    10b6:	88 e0       	ldi	r24, 0x08	; 8
    10b8:	80 93 eb 0f 	sts	0x0FEB, r24	; 0x800feb <mainmenu_state>
    10bc:	81 e0       	ldi	r24, 0x01	; 1
    10be:	80 93 71 0d 	sts	0x0D71, r24	; 0x800d71 <adding_user_flag>
    10c2:	8c ef       	ldi	r24, 0xFC	; 252
    10c4:	92 e0       	ldi	r25, 0x02	; 2
    10c6:	05 cc       	rjmp	.-2038   	; 0x8d2 <adduser_name_display>
    10c8:	08 95       	ret
    10ca:	82 33       	cpi	r24, 0x32	; 50
    10cc:	41 f4       	brne	.+16     	; 0x10de <MainMenu_Tick+0x304>
    10ce:	89 e0       	ldi	r24, 0x09	; 9
    10d0:	80 93 eb 0f 	sts	0x0FEB, r24	; 0x800feb <mainmenu_state>
    10d4:	81 e0       	ldi	r24, 0x01	; 1
    10d6:	80 93 70 0d 	sts	0x0D70, r24	; 0x800d70 <removeusers_flag>
    10da:	d7 cc       	rjmp	.-1618   	; 0xa8a <removeusers_intro>
    10dc:	08 95       	ret
    10de:	83 33       	cpi	r24, 0x33	; 51
    10e0:	09 f0       	breq	.+2      	; 0x10e4 <MainMenu_Tick+0x30a>
    10e2:	3d c0       	rjmp	.+122    	; 0x115e <MainMenu_Tick+0x384>
    10e4:	10 92 eb 0f 	sts	0x0FEB, r1	; 0x800feb <mainmenu_state>
    10e8:	10 92 76 0d 	sts	0x0D76, r1	; 0x800d76 <main_menu_selection>
    10ec:	10 92 75 0d 	sts	0x0D75, r1	; 0x800d75 <temp_menu_selection>
    10f0:	10 92 74 0d 	sts	0x0D74, r1	; 0x800d74 <settings_menu_selection>
    10f4:	10 92 73 0d 	sts	0x0D73, r1	; 0x800d73 <drink_menu_selection>
    10f8:	10 92 72 0d 	sts	0x0D72, r1	; 0x800d72 <user_menu_selection>
    10fc:	4d cb       	rjmp	.-2406   	; 0x798 <main_menu_display>
    10fe:	08 95       	ret
    1100:	80 91 71 0d 	lds	r24, 0x0D71	; 0x800d71 <adding_user_flag>
    1104:	81 11       	cpse	r24, r1
    1106:	2b c0       	rjmp	.+86     	; 0x115e <MainMenu_Tick+0x384>
    1108:	47 db       	rcall	.-2418   	; 0x798 <main_menu_display>
    110a:	10 92 eb 0f 	sts	0x0FEB, r1	; 0x800feb <mainmenu_state>
    110e:	08 95       	ret
    1110:	80 91 70 0d 	lds	r24, 0x0D70	; 0x800d70 <removeusers_flag>
    1114:	81 11       	cpse	r24, r1
    1116:	23 c0       	rjmp	.+70     	; 0x115e <MainMenu_Tick+0x384>
    1118:	3f db       	rcall	.-2434   	; 0x798 <main_menu_display>
    111a:	10 92 eb 0f 	sts	0x0FEB, r1	; 0x800feb <mainmenu_state>
    111e:	08 95       	ret
    1120:	80 91 75 0d 	lds	r24, 0x0D75	; 0x800d75 <temp_menu_selection>
    1124:	83 32       	cpi	r24, 0x23	; 35
    1126:	d9 f4       	brne	.+54     	; 0x115e <MainMenu_Tick+0x384>
    1128:	10 92 eb 0f 	sts	0x0FEB, r1	; 0x800feb <mainmenu_state>
    112c:	10 92 76 0d 	sts	0x0D76, r1	; 0x800d76 <main_menu_selection>
    1130:	10 92 75 0d 	sts	0x0D75, r1	; 0x800d75 <temp_menu_selection>
    1134:	10 92 74 0d 	sts	0x0D74, r1	; 0x800d74 <settings_menu_selection>
    1138:	10 92 73 0d 	sts	0x0D73, r1	; 0x800d73 <drink_menu_selection>
    113c:	10 92 72 0d 	sts	0x0D72, r1	; 0x800d72 <user_menu_selection>
    1140:	2b cb       	rjmp	.-2474   	; 0x798 <main_menu_display>
    1142:	08 95       	ret
    1144:	10 92 eb 0f 	sts	0x0FEB, r1	; 0x800feb <mainmenu_state>
    1148:	10 92 76 0d 	sts	0x0D76, r1	; 0x800d76 <main_menu_selection>
    114c:	10 92 75 0d 	sts	0x0D75, r1	; 0x800d75 <temp_menu_selection>
    1150:	10 92 74 0d 	sts	0x0D74, r1	; 0x800d74 <settings_menu_selection>
    1154:	10 92 73 0d 	sts	0x0D73, r1	; 0x800d73 <drink_menu_selection>
    1158:	10 92 72 0d 	sts	0x0D72, r1	; 0x800d72 <user_menu_selection>
    115c:	1d cb       	rjmp	.-2502   	; 0x798 <main_menu_display>
    115e:	08 95       	ret

00001160 <MainMenuTask>:
    1160:	38 de       	rcall	.-912    	; 0xdd2 <MainMenu_Init>
    1162:	3b de       	rcall	.-906    	; 0xdda <MainMenu_Tick>
    1164:	8a e0       	ldi	r24, 0x0A	; 10
    1166:	90 e0       	ldi	r25, 0x00	; 0
    1168:	0e 94 84 29 	call	0x5308	; 0x5308 <vTaskDelay>
    116c:	fa cf       	rjmp	.-12     	; 0x1162 <MainMenuTask+0x2>

0000116e <MainMenuPulse>:
    116e:	af 92       	push	r10
    1170:	bf 92       	push	r11
    1172:	cf 92       	push	r12
    1174:	df 92       	push	r13
    1176:	ef 92       	push	r14
    1178:	ff 92       	push	r15
    117a:	0f 93       	push	r16
    117c:	a1 2c       	mov	r10, r1
    117e:	b1 2c       	mov	r11, r1
    1180:	c1 2c       	mov	r12, r1
    1182:	d1 2c       	mov	r13, r1
    1184:	e1 2c       	mov	r14, r1
    1186:	f1 2c       	mov	r15, r1
    1188:	08 2f       	mov	r16, r24
    118a:	20 e0       	ldi	r18, 0x00	; 0
    118c:	30 e0       	ldi	r19, 0x00	; 0
    118e:	45 e5       	ldi	r20, 0x55	; 85
    1190:	50 e0       	ldi	r21, 0x00	; 0
    1192:	6e ef       	ldi	r22, 0xFE	; 254
    1194:	72 e0       	ldi	r23, 0x02	; 2
    1196:	80 eb       	ldi	r24, 0xB0	; 176
    1198:	98 e0       	ldi	r25, 0x08	; 8
    119a:	0e 94 0c 27 	call	0x4e18	; 0x4e18 <xTaskGenericCreate>
    119e:	0f 91       	pop	r16
    11a0:	ff 90       	pop	r15
    11a2:	ef 90       	pop	r14
    11a4:	df 90       	pop	r13
    11a6:	cf 90       	pop	r12
    11a8:	bf 90       	pop	r11
    11aa:	af 90       	pop	r10
    11ac:	08 95       	ret

000011ae <password_verification>:
    11ae:	90 91 3a 0d 	lds	r25, 0x0D3A	; 0x800d3a <user_password>
    11b2:	80 91 31 0d 	lds	r24, 0x0D31	; 0x800d31 <user_compare_password>
    11b6:	98 13       	cpse	r25, r24
    11b8:	0f c0       	rjmp	.+30     	; 0x11d8 <password_verification+0x2a>
    11ba:	eb e3       	ldi	r30, 0x3B	; 59
    11bc:	fd e0       	ldi	r31, 0x0D	; 13
    11be:	a2 e3       	ldi	r26, 0x32	; 50
    11c0:	bd e0       	ldi	r27, 0x0D	; 13
    11c2:	22 e4       	ldi	r18, 0x42	; 66
    11c4:	3d e0       	ldi	r19, 0x0D	; 13
    11c6:	91 91       	ld	r25, Z+
    11c8:	8d 91       	ld	r24, X+
    11ca:	98 13       	cpse	r25, r24
    11cc:	07 c0       	rjmp	.+14     	; 0x11dc <password_verification+0x2e>
    11ce:	e2 17       	cp	r30, r18
    11d0:	f3 07       	cpc	r31, r19
    11d2:	c9 f7       	brne	.-14     	; 0x11c6 <password_verification+0x18>
    11d4:	81 e0       	ldi	r24, 0x01	; 1
    11d6:	08 95       	ret
    11d8:	80 e0       	ldi	r24, 0x00	; 0
    11da:	08 95       	ret
    11dc:	80 e0       	ldi	r24, 0x00	; 0
    11de:	08 95       	ret

000011e0 <AddUser_Tick>:
    11e0:	cf 92       	push	r12
    11e2:	df 92       	push	r13
    11e4:	ef 92       	push	r14
    11e6:	ff 92       	push	r15
    11e8:	0f 93       	push	r16
    11ea:	1f 93       	push	r17
    11ec:	cf 93       	push	r28
    11ee:	df 93       	push	r29
    11f0:	e0 91 e0 0f 	lds	r30, 0x0FE0	; 0x800fe0 <adduser_state>
    11f4:	8e 2f       	mov	r24, r30
    11f6:	90 e0       	ldi	r25, 0x00	; 0
    11f8:	fc 01       	movw	r30, r24
    11fa:	31 97       	sbiw	r30, 0x01	; 1
    11fc:	e8 30       	cpi	r30, 0x08	; 8
    11fe:	f1 05       	cpc	r31, r1
    1200:	08 f0       	brcs	.+2      	; 0x1204 <AddUser_Tick+0x24>
    1202:	e5 c3       	rjmp	.+1994   	; 0x19ce <AddUser_Tick+0x7ee>
    1204:	e3 5a       	subi	r30, 0xA3	; 163
    1206:	ff 4f       	sbci	r31, 0xFF	; 255
    1208:	0c 94 ba 2c 	jmp	0x5974	; 0x5974 <__tablejump2__>
    120c:	8f e4       	ldi	r24, 0x4F	; 79
    120e:	93 ec       	ldi	r25, 0xC3	; 195
    1210:	01 97       	sbiw	r24, 0x01	; 1
    1212:	f1 f7       	brne	.-4      	; 0x1210 <AddUser_Tick+0x30>
    1214:	00 c0       	rjmp	.+0      	; 0x1216 <AddUser_Tick+0x36>
    1216:	00 00       	nop
    1218:	73 db       	rcall	.-2330   	; 0x900 <GetKeypadKey>
    121a:	80 93 2f 0d 	sts	0x0D2F, r24	; 0x800d2f <keypad_character>
    121e:	88 23       	and	r24, r24
    1220:	a9 f3       	breq	.-22     	; 0x120c <AddUser_Tick+0x2c>
    1222:	06 c0       	rjmp	.+12     	; 0x1230 <AddUser_Tick+0x50>
    1224:	ef e4       	ldi	r30, 0x4F	; 79
    1226:	f3 ec       	ldi	r31, 0xC3	; 195
    1228:	31 97       	sbiw	r30, 0x01	; 1
    122a:	f1 f7       	brne	.-4      	; 0x1228 <AddUser_Tick+0x48>
    122c:	00 c0       	rjmp	.+0      	; 0x122e <AddUser_Tick+0x4e>
    122e:	00 00       	nop
    1230:	67 db       	rcall	.-2354   	; 0x900 <GetKeypadKey>
    1232:	80 93 2e 0d 	sts	0x0D2E, r24	; 0x800d2e <previous_character>
    1236:	90 91 2f 0d 	lds	r25, 0x0D2F	; 0x800d2f <keypad_character>
    123a:	89 17       	cp	r24, r25
    123c:	99 f3       	breq	.-26     	; 0x1224 <AddUser_Tick+0x44>
    123e:	c7 c3       	rjmp	.+1934   	; 0x19ce <AddUser_Tick+0x7ee>
    1240:	ed dc       	rcall	.-1574   	; 0xc1c <AlphaNumPad>
    1242:	80 93 2f 0d 	sts	0x0D2F, r24	; 0x800d2f <keypad_character>
    1246:	10 92 2e 0d 	sts	0x0D2E, r1	; 0x800d2e <previous_character>
    124a:	83 32       	cpi	r24, 0x23	; 35
    124c:	09 f4       	brne	.+2      	; 0x1250 <AddUser_Tick+0x70>
    124e:	9e c6       	rjmp	.+3388   	; 0x1f8c <AddUser_Tick+0xdac>
    1250:	cf e5       	ldi	r28, 0x5F	; 95
    1252:	8a 32       	cpi	r24, 0x2A	; 42
    1254:	b1 f4       	brne	.+44     	; 0x1282 <AddUser_Tick+0xa2>
    1256:	e0 91 4a 0d 	lds	r30, 0x0D4A	; 0x800d4a <user_name_size>
    125a:	ee 23       	and	r30, r30
    125c:	71 f0       	breq	.+28     	; 0x127a <AddUser_Tick+0x9a>
    125e:	e1 50       	subi	r30, 0x01	; 1
    1260:	e0 93 4a 0d 	sts	0x0D4A, r30	; 0x800d4a <user_name_size>
    1264:	f0 e0       	ldi	r31, 0x00	; 0
    1266:	e9 5f       	subi	r30, 0xF9	; 249
    1268:	fe 4f       	sbci	r31, 0xFE	; 254
    126a:	c0 83       	st	Z, r28
    126c:	11 82       	std	Z+1, r1	; 0x01
    126e:	10 92 2e 0d 	sts	0x0D2E, r1	; 0x800d2e <previous_character>
    1272:	87 e0       	ldi	r24, 0x07	; 7
    1274:	91 e0       	ldi	r25, 0x01	; 1
    1276:	2d db       	rcall	.-2470   	; 0x8d2 <adduser_name_display>
    1278:	28 c0       	rjmp	.+80     	; 0x12ca <AddUser_Tick+0xea>
    127a:	87 e0       	ldi	r24, 0x07	; 7
    127c:	91 e0       	ldi	r25, 0x01	; 1
    127e:	29 db       	rcall	.-2478   	; 0x8d2 <adduser_name_display>
    1280:	24 c0       	rjmp	.+72     	; 0x12ca <AddUser_Tick+0xea>
    1282:	88 23       	and	r24, r24
    1284:	69 f0       	breq	.+26     	; 0x12a0 <AddUser_Tick+0xc0>
    1286:	e0 91 4a 0d 	lds	r30, 0x0D4A	; 0x800d4a <user_name_size>
    128a:	f0 e0       	ldi	r31, 0x00	; 0
    128c:	e9 5f       	subi	r30, 0xF9	; 249
    128e:	fe 4f       	sbci	r31, 0xFE	; 254
    1290:	80 83       	st	Z, r24
    1292:	11 82       	std	Z+1, r1	; 0x01
    1294:	80 93 2e 0d 	sts	0x0D2E, r24	; 0x800d2e <previous_character>
    1298:	87 e0       	ldi	r24, 0x07	; 7
    129a:	91 e0       	ldi	r25, 0x01	; 1
    129c:	1a db       	rcall	.-2508   	; 0x8d2 <adduser_name_display>
    129e:	15 c0       	rjmp	.+42     	; 0x12ca <AddUser_Tick+0xea>
    12a0:	80 91 2e 0d 	lds	r24, 0x0D2E	; 0x800d2e <previous_character>
    12a4:	88 23       	and	r24, r24
    12a6:	89 f0       	breq	.+34     	; 0x12ca <AddUser_Tick+0xea>
    12a8:	e0 91 4a 0d 	lds	r30, 0x0D4A	; 0x800d4a <user_name_size>
    12ac:	e9 30       	cpi	r30, 0x09	; 9
    12ae:	68 f4       	brcc	.+26     	; 0x12ca <AddUser_Tick+0xea>
    12b0:	ef 5f       	subi	r30, 0xFF	; 255
    12b2:	e0 93 4a 0d 	sts	0x0D4A, r30	; 0x800d4a <user_name_size>
    12b6:	f0 e0       	ldi	r31, 0x00	; 0
    12b8:	e9 5f       	subi	r30, 0xF9	; 249
    12ba:	fe 4f       	sbci	r31, 0xFE	; 254
    12bc:	c0 83       	st	Z, r28
    12be:	11 82       	std	Z+1, r1	; 0x01
    12c0:	10 92 2e 0d 	sts	0x0D2E, r1	; 0x800d2e <previous_character>
    12c4:	87 e0       	ldi	r24, 0x07	; 7
    12c6:	91 e0       	ldi	r25, 0x01	; 1
    12c8:	04 db       	rcall	.-2552   	; 0x8d2 <adduser_name_display>
    12ca:	a8 dc       	rcall	.-1712   	; 0xc1c <AlphaNumPad>
    12cc:	80 93 2f 0d 	sts	0x0D2F, r24	; 0x800d2f <keypad_character>
    12d0:	83 32       	cpi	r24, 0x23	; 35
    12d2:	09 f0       	breq	.+2      	; 0x12d6 <AddUser_Tick+0xf6>
    12d4:	be cf       	rjmp	.-132    	; 0x1252 <AddUser_Tick+0x72>
    12d6:	5a c6       	rjmp	.+3252   	; 0x1f8c <AddUser_Tick+0xdac>
    12d8:	8f e4       	ldi	r24, 0x4F	; 79
    12da:	93 ec       	ldi	r25, 0xC3	; 195
    12dc:	01 97       	sbiw	r24, 0x01	; 1
    12de:	f1 f7       	brne	.-4      	; 0x12dc <AddUser_Tick+0xfc>
    12e0:	00 c0       	rjmp	.+0      	; 0x12e2 <AddUser_Tick+0x102>
    12e2:	00 00       	nop
    12e4:	0d db       	rcall	.-2534   	; 0x900 <GetKeypadKey>
    12e6:	80 93 2f 0d 	sts	0x0D2F, r24	; 0x800d2f <keypad_character>
    12ea:	88 23       	and	r24, r24
    12ec:	a9 f3       	breq	.-22     	; 0x12d8 <AddUser_Tick+0xf8>
    12ee:	06 c0       	rjmp	.+12     	; 0x12fc <AddUser_Tick+0x11c>
    12f0:	ef e4       	ldi	r30, 0x4F	; 79
    12f2:	f3 ec       	ldi	r31, 0xC3	; 195
    12f4:	31 97       	sbiw	r30, 0x01	; 1
    12f6:	f1 f7       	brne	.-4      	; 0x12f4 <AddUser_Tick+0x114>
    12f8:	00 c0       	rjmp	.+0      	; 0x12fa <AddUser_Tick+0x11a>
    12fa:	00 00       	nop
    12fc:	01 db       	rcall	.-2558   	; 0x900 <GetKeypadKey>
    12fe:	80 93 2e 0d 	sts	0x0D2E, r24	; 0x800d2e <previous_character>
    1302:	90 91 2f 0d 	lds	r25, 0x0D2F	; 0x800d2f <keypad_character>
    1306:	89 17       	cp	r24, r25
    1308:	99 f3       	breq	.-26     	; 0x12f0 <AddUser_Tick+0x110>
    130a:	c2 e0       	ldi	r28, 0x02	; 2
    130c:	d1 e0       	ldi	r29, 0x01	; 1
    130e:	1f e5       	ldi	r17, 0x5F	; 95
    1310:	d7 c0       	rjmp	.+430    	; 0x14c0 <AddUser_Tick+0x2e0>
    1312:	88 23       	and	r24, r24
    1314:	09 f4       	brne	.+2      	; 0x1318 <AddUser_Tick+0x138>
    1316:	c1 c0       	rjmp	.+386    	; 0x149a <AddUser_Tick+0x2ba>
    1318:	8a 32       	cpi	r24, 0x2A	; 42
    131a:	09 f4       	brne	.+2      	; 0x131e <AddUser_Tick+0x13e>
    131c:	96 c0       	rjmp	.+300    	; 0x144a <AddUser_Tick+0x26a>
    131e:	20 91 48 0d 	lds	r18, 0x0D48	; 0x800d48 <user_weight>
    1322:	30 91 49 0d 	lds	r19, 0x0D49	; 0x800d49 <user_weight+0x1>
    1326:	21 15       	cp	r18, r1
    1328:	31 05       	cpc	r19, r1
    132a:	21 f5       	brne	.+72     	; 0x1374 <AddUser_Tick+0x194>
    132c:	28 2f       	mov	r18, r24
    132e:	30 e0       	ldi	r19, 0x00	; 0
    1330:	20 53       	subi	r18, 0x30	; 48
    1332:	31 09       	sbc	r19, r1
    1334:	30 93 49 0d 	sts	0x0D49, r19	; 0x800d49 <user_weight+0x1>
    1338:	20 93 48 0d 	sts	0x0D48, r18	; 0x800d48 <user_weight>
    133c:	88 83       	st	Y, r24
    133e:	0e 94 68 24 	call	0x48d0	; 0x48d0 <nokia_lcd_clear>
    1342:	61 e0       	ldi	r22, 0x01	; 1
    1344:	8b e0       	ldi	r24, 0x0B	; 11
    1346:	93 e0       	ldi	r25, 0x03	; 3
    1348:	0e 94 4e 25 	call	0x4a9c	; 0x4a9c <nokia_lcd_write_string>
    134c:	6a e0       	ldi	r22, 0x0A	; 10
    134e:	80 e0       	ldi	r24, 0x00	; 0
    1350:	0e 94 60 25 	call	0x4ac0	; 0x4ac0 <nokia_lcd_set_cursor>
    1354:	61 e0       	ldi	r22, 0x01	; 1
    1356:	86 e1       	ldi	r24, 0x16	; 22
    1358:	93 e0       	ldi	r25, 0x03	; 3
    135a:	0e 94 4e 25 	call	0x4a9c	; 0x4a9c <nokia_lcd_write_string>
    135e:	64 e1       	ldi	r22, 0x14	; 20
    1360:	80 e0       	ldi	r24, 0x00	; 0
    1362:	0e 94 60 25 	call	0x4ac0	; 0x4ac0 <nokia_lcd_set_cursor>
    1366:	61 e0       	ldi	r22, 0x01	; 1
    1368:	ce 01       	movw	r24, r28
    136a:	0e 94 4e 25 	call	0x4a9c	; 0x4a9c <nokia_lcd_write_string>
    136e:	0e 94 65 25 	call	0x4aca	; 0x4aca <nokia_lcd_render>
    1372:	93 c0       	rjmp	.+294    	; 0x149a <AddUser_Tick+0x2ba>
    1374:	a9 01       	movw	r20, r18
    1376:	41 50       	subi	r20, 0x01	; 1
    1378:	51 09       	sbc	r21, r1
    137a:	49 30       	cpi	r20, 0x09	; 9
    137c:	51 05       	cpc	r21, r1
    137e:	78 f5       	brcc	.+94     	; 0x13de <AddUser_Tick+0x1fe>
    1380:	a9 01       	movw	r20, r18
    1382:	44 0f       	add	r20, r20
    1384:	55 1f       	adc	r21, r21
    1386:	22 0f       	add	r18, r18
    1388:	33 1f       	adc	r19, r19
    138a:	22 0f       	add	r18, r18
    138c:	33 1f       	adc	r19, r19
    138e:	22 0f       	add	r18, r18
    1390:	33 1f       	adc	r19, r19
    1392:	24 0f       	add	r18, r20
    1394:	35 1f       	adc	r19, r21
    1396:	28 0f       	add	r18, r24
    1398:	31 1d       	adc	r19, r1
    139a:	20 53       	subi	r18, 0x30	; 48
    139c:	31 09       	sbc	r19, r1
    139e:	30 93 49 0d 	sts	0x0D49, r19	; 0x800d49 <user_weight+0x1>
    13a2:	20 93 48 0d 	sts	0x0D48, r18	; 0x800d48 <user_weight>
    13a6:	89 83       	std	Y+1, r24	; 0x01
    13a8:	0e 94 68 24 	call	0x48d0	; 0x48d0 <nokia_lcd_clear>
    13ac:	61 e0       	ldi	r22, 0x01	; 1
    13ae:	8b e0       	ldi	r24, 0x0B	; 11
    13b0:	93 e0       	ldi	r25, 0x03	; 3
    13b2:	0e 94 4e 25 	call	0x4a9c	; 0x4a9c <nokia_lcd_write_string>
    13b6:	6a e0       	ldi	r22, 0x0A	; 10
    13b8:	80 e0       	ldi	r24, 0x00	; 0
    13ba:	0e 94 60 25 	call	0x4ac0	; 0x4ac0 <nokia_lcd_set_cursor>
    13be:	61 e0       	ldi	r22, 0x01	; 1
    13c0:	86 e1       	ldi	r24, 0x16	; 22
    13c2:	93 e0       	ldi	r25, 0x03	; 3
    13c4:	0e 94 4e 25 	call	0x4a9c	; 0x4a9c <nokia_lcd_write_string>
    13c8:	64 e1       	ldi	r22, 0x14	; 20
    13ca:	80 e0       	ldi	r24, 0x00	; 0
    13cc:	0e 94 60 25 	call	0x4ac0	; 0x4ac0 <nokia_lcd_set_cursor>
    13d0:	61 e0       	ldi	r22, 0x01	; 1
    13d2:	ce 01       	movw	r24, r28
    13d4:	0e 94 4e 25 	call	0x4a9c	; 0x4a9c <nokia_lcd_write_string>
    13d8:	0e 94 65 25 	call	0x4aca	; 0x4aca <nokia_lcd_render>
    13dc:	5e c0       	rjmp	.+188    	; 0x149a <AddUser_Tick+0x2ba>
    13de:	a9 01       	movw	r20, r18
    13e0:	4a 50       	subi	r20, 0x0A	; 10
    13e2:	51 09       	sbc	r21, r1
    13e4:	4a 35       	cpi	r20, 0x5A	; 90
    13e6:	51 05       	cpc	r21, r1
    13e8:	08 f0       	brcs	.+2      	; 0x13ec <AddUser_Tick+0x20c>
    13ea:	57 c0       	rjmp	.+174    	; 0x149a <AddUser_Tick+0x2ba>
    13ec:	a9 01       	movw	r20, r18
    13ee:	44 0f       	add	r20, r20
    13f0:	55 1f       	adc	r21, r21
    13f2:	22 0f       	add	r18, r18
    13f4:	33 1f       	adc	r19, r19
    13f6:	22 0f       	add	r18, r18
    13f8:	33 1f       	adc	r19, r19
    13fa:	22 0f       	add	r18, r18
    13fc:	33 1f       	adc	r19, r19
    13fe:	24 0f       	add	r18, r20
    1400:	35 1f       	adc	r19, r21
    1402:	28 0f       	add	r18, r24
    1404:	31 1d       	adc	r19, r1
    1406:	20 53       	subi	r18, 0x30	; 48
    1408:	31 09       	sbc	r19, r1
    140a:	30 93 49 0d 	sts	0x0D49, r19	; 0x800d49 <user_weight+0x1>
    140e:	20 93 48 0d 	sts	0x0D48, r18	; 0x800d48 <user_weight>
    1412:	8a 83       	std	Y+2, r24	; 0x02
    1414:	0e 94 68 24 	call	0x48d0	; 0x48d0 <nokia_lcd_clear>
    1418:	61 e0       	ldi	r22, 0x01	; 1
    141a:	8b e0       	ldi	r24, 0x0B	; 11
    141c:	93 e0       	ldi	r25, 0x03	; 3
    141e:	0e 94 4e 25 	call	0x4a9c	; 0x4a9c <nokia_lcd_write_string>
    1422:	6a e0       	ldi	r22, 0x0A	; 10
    1424:	80 e0       	ldi	r24, 0x00	; 0
    1426:	0e 94 60 25 	call	0x4ac0	; 0x4ac0 <nokia_lcd_set_cursor>
    142a:	61 e0       	ldi	r22, 0x01	; 1
    142c:	86 e1       	ldi	r24, 0x16	; 22
    142e:	93 e0       	ldi	r25, 0x03	; 3
    1430:	0e 94 4e 25 	call	0x4a9c	; 0x4a9c <nokia_lcd_write_string>
    1434:	64 e1       	ldi	r22, 0x14	; 20
    1436:	80 e0       	ldi	r24, 0x00	; 0
    1438:	0e 94 60 25 	call	0x4ac0	; 0x4ac0 <nokia_lcd_set_cursor>
    143c:	61 e0       	ldi	r22, 0x01	; 1
    143e:	ce 01       	movw	r24, r28
    1440:	0e 94 4e 25 	call	0x4a9c	; 0x4a9c <nokia_lcd_write_string>
    1444:	0e 94 65 25 	call	0x4aca	; 0x4aca <nokia_lcd_render>
    1448:	28 c0       	rjmp	.+80     	; 0x149a <AddUser_Tick+0x2ba>
    144a:	10 92 49 0d 	sts	0x0D49, r1	; 0x800d49 <user_weight+0x1>
    144e:	10 92 48 0d 	sts	0x0D48, r1	; 0x800d48 <user_weight>
    1452:	18 83       	st	Y, r17
    1454:	19 82       	std	Y+1, r1	; 0x01
    1456:	1a 82       	std	Y+2, r1	; 0x02
    1458:	0e 94 68 24 	call	0x48d0	; 0x48d0 <nokia_lcd_clear>
    145c:	61 e0       	ldi	r22, 0x01	; 1
    145e:	8b e0       	ldi	r24, 0x0B	; 11
    1460:	93 e0       	ldi	r25, 0x03	; 3
    1462:	0e 94 4e 25 	call	0x4a9c	; 0x4a9c <nokia_lcd_write_string>
    1466:	6a e0       	ldi	r22, 0x0A	; 10
    1468:	80 e0       	ldi	r24, 0x00	; 0
    146a:	0e 94 60 25 	call	0x4ac0	; 0x4ac0 <nokia_lcd_set_cursor>
    146e:	61 e0       	ldi	r22, 0x01	; 1
    1470:	86 e1       	ldi	r24, 0x16	; 22
    1472:	93 e0       	ldi	r25, 0x03	; 3
    1474:	0e 94 4e 25 	call	0x4a9c	; 0x4a9c <nokia_lcd_write_string>
    1478:	64 e1       	ldi	r22, 0x14	; 20
    147a:	80 e0       	ldi	r24, 0x00	; 0
    147c:	0e 94 60 25 	call	0x4ac0	; 0x4ac0 <nokia_lcd_set_cursor>
    1480:	61 e0       	ldi	r22, 0x01	; 1
    1482:	ce 01       	movw	r24, r28
    1484:	0e 94 4e 25 	call	0x4a9c	; 0x4a9c <nokia_lcd_write_string>
    1488:	0e 94 65 25 	call	0x4aca	; 0x4aca <nokia_lcd_render>
    148c:	06 c0       	rjmp	.+12     	; 0x149a <AddUser_Tick+0x2ba>
    148e:	87 ea       	ldi	r24, 0xA7	; 167
    1490:	91 e6       	ldi	r25, 0x61	; 97
    1492:	01 97       	sbiw	r24, 0x01	; 1
    1494:	f1 f7       	brne	.-4      	; 0x1492 <AddUser_Tick+0x2b2>
    1496:	00 c0       	rjmp	.+0      	; 0x1498 <AddUser_Tick+0x2b8>
    1498:	00 00       	nop
    149a:	32 da       	rcall	.-2972   	; 0x900 <GetKeypadKey>
    149c:	80 93 2f 0d 	sts	0x0D2F, r24	; 0x800d2f <keypad_character>
    14a0:	88 23       	and	r24, r24
    14a2:	a9 f3       	breq	.-22     	; 0x148e <AddUser_Tick+0x2ae>
    14a4:	06 c0       	rjmp	.+12     	; 0x14b2 <AddUser_Tick+0x2d2>
    14a6:	e7 ea       	ldi	r30, 0xA7	; 167
    14a8:	f1 e6       	ldi	r31, 0x61	; 97
    14aa:	31 97       	sbiw	r30, 0x01	; 1
    14ac:	f1 f7       	brne	.-4      	; 0x14aa <AddUser_Tick+0x2ca>
    14ae:	00 c0       	rjmp	.+0      	; 0x14b0 <AddUser_Tick+0x2d0>
    14b0:	00 00       	nop
    14b2:	26 da       	rcall	.-2996   	; 0x900 <GetKeypadKey>
    14b4:	80 93 2e 0d 	sts	0x0D2E, r24	; 0x800d2e <previous_character>
    14b8:	90 91 2f 0d 	lds	r25, 0x0D2F	; 0x800d2f <keypad_character>
    14bc:	89 17       	cp	r24, r25
    14be:	99 f3       	breq	.-26     	; 0x14a6 <AddUser_Tick+0x2c6>
    14c0:	80 91 2f 0d 	lds	r24, 0x0D2F	; 0x800d2f <keypad_character>
    14c4:	83 32       	cpi	r24, 0x23	; 35
    14c6:	09 f0       	breq	.+2      	; 0x14ca <AddUser_Tick+0x2ea>
    14c8:	24 cf       	rjmp	.-440    	; 0x1312 <AddUser_Tick+0x132>
    14ca:	60 c5       	rjmp	.+2752   	; 0x1f8c <AddUser_Tick+0xdac>
    14cc:	8f e4       	ldi	r24, 0x4F	; 79
    14ce:	93 ec       	ldi	r25, 0xC3	; 195
    14d0:	01 97       	sbiw	r24, 0x01	; 1
    14d2:	f1 f7       	brne	.-4      	; 0x14d0 <AddUser_Tick+0x2f0>
    14d4:	00 c0       	rjmp	.+0      	; 0x14d6 <AddUser_Tick+0x2f6>
    14d6:	00 00       	nop
    14d8:	13 da       	rcall	.-3034   	; 0x900 <GetKeypadKey>
    14da:	80 93 2f 0d 	sts	0x0D2F, r24	; 0x800d2f <keypad_character>
    14de:	88 23       	and	r24, r24
    14e0:	a9 f3       	breq	.-22     	; 0x14cc <AddUser_Tick+0x2ec>
    14e2:	06 c0       	rjmp	.+12     	; 0x14f0 <AddUser_Tick+0x310>
    14e4:	ef e4       	ldi	r30, 0x4F	; 79
    14e6:	f3 ec       	ldi	r31, 0xC3	; 195
    14e8:	31 97       	sbiw	r30, 0x01	; 1
    14ea:	f1 f7       	brne	.-4      	; 0x14e8 <AddUser_Tick+0x308>
    14ec:	00 c0       	rjmp	.+0      	; 0x14ee <AddUser_Tick+0x30e>
    14ee:	00 00       	nop
    14f0:	07 da       	rcall	.-3058   	; 0x900 <GetKeypadKey>
    14f2:	80 93 2e 0d 	sts	0x0D2E, r24	; 0x800d2e <previous_character>
    14f6:	90 91 2f 0d 	lds	r25, 0x0D2F	; 0x800d2f <keypad_character>
    14fa:	89 17       	cp	r24, r25
    14fc:	99 f3       	breq	.-26     	; 0x14e4 <AddUser_Tick+0x304>
    14fe:	c1 e0       	ldi	r28, 0x01	; 1
    1500:	d2 e0       	ldi	r29, 0x02	; 2
    1502:	6c c0       	rjmp	.+216    	; 0x15dc <AddUser_Tick+0x3fc>
    1504:	81 33       	cpi	r24, 0x31	; 49
    1506:	31 f5       	brne	.+76     	; 0x1554 <AddUser_Tick+0x374>
    1508:	c0 93 47 0d 	sts	0x0D47, r28	; 0x800d47 <user_gender>
    150c:	0e 94 68 24 	call	0x48d0	; 0x48d0 <nokia_lcd_clear>
    1510:	6c 2f       	mov	r22, r28
    1512:	84 e2       	ldi	r24, 0x24	; 36
    1514:	93 e0       	ldi	r25, 0x03	; 3
    1516:	0e 94 4e 25 	call	0x4a9c	; 0x4a9c <nokia_lcd_write_string>
    151a:	6a e0       	ldi	r22, 0x0A	; 10
    151c:	80 e0       	ldi	r24, 0x00	; 0
    151e:	0e 94 60 25 	call	0x4ac0	; 0x4ac0 <nokia_lcd_set_cursor>
    1522:	6c 2f       	mov	r22, r28
    1524:	82 e3       	ldi	r24, 0x32	; 50
    1526:	93 e0       	ldi	r25, 0x03	; 3
    1528:	0e 94 4e 25 	call	0x4a9c	; 0x4a9c <nokia_lcd_write_string>
    152c:	64 e1       	ldi	r22, 0x14	; 20
    152e:	80 e0       	ldi	r24, 0x00	; 0
    1530:	0e 94 60 25 	call	0x4ac0	; 0x4ac0 <nokia_lcd_set_cursor>
    1534:	6c 2f       	mov	r22, r28
    1536:	8a e3       	ldi	r24, 0x3A	; 58
    1538:	93 e0       	ldi	r25, 0x03	; 3
    153a:	0e 94 4e 25 	call	0x4a9c	; 0x4a9c <nokia_lcd_write_string>
    153e:	6e e1       	ldi	r22, 0x1E	; 30
    1540:	80 e0       	ldi	r24, 0x00	; 0
    1542:	0e 94 60 25 	call	0x4ac0	; 0x4ac0 <nokia_lcd_set_cursor>
    1546:	6c 2f       	mov	r22, r28
    1548:	85 e3       	ldi	r24, 0x35	; 53
    154a:	93 e0       	ldi	r25, 0x03	; 3
    154c:	0e 94 4e 25 	call	0x4a9c	; 0x4a9c <nokia_lcd_write_string>
    1550:	0e 94 65 25 	call	0x4aca	; 0x4aca <nokia_lcd_render>
    1554:	80 91 2f 0d 	lds	r24, 0x0D2F	; 0x800d2f <keypad_character>
    1558:	82 33       	cpi	r24, 0x32	; 50
    155a:	69 f5       	brne	.+90     	; 0x15b6 <AddUser_Tick+0x3d6>
    155c:	d0 93 47 0d 	sts	0x0D47, r29	; 0x800d47 <user_gender>
    1560:	0e 94 68 24 	call	0x48d0	; 0x48d0 <nokia_lcd_clear>
    1564:	6c 2f       	mov	r22, r28
    1566:	84 e2       	ldi	r24, 0x24	; 36
    1568:	93 e0       	ldi	r25, 0x03	; 3
    156a:	0e 94 4e 25 	call	0x4a9c	; 0x4a9c <nokia_lcd_write_string>
    156e:	6a e0       	ldi	r22, 0x0A	; 10
    1570:	80 e0       	ldi	r24, 0x00	; 0
    1572:	0e 94 60 25 	call	0x4ac0	; 0x4ac0 <nokia_lcd_set_cursor>
    1576:	6c 2f       	mov	r22, r28
    1578:	82 e3       	ldi	r24, 0x32	; 50
    157a:	93 e0       	ldi	r25, 0x03	; 3
    157c:	0e 94 4e 25 	call	0x4a9c	; 0x4a9c <nokia_lcd_write_string>
    1580:	64 e1       	ldi	r22, 0x14	; 20
    1582:	80 e0       	ldi	r24, 0x00	; 0
    1584:	0e 94 60 25 	call	0x4ac0	; 0x4ac0 <nokia_lcd_set_cursor>
    1588:	6c 2f       	mov	r22, r28
    158a:	8a e3       	ldi	r24, 0x3A	; 58
    158c:	93 e0       	ldi	r25, 0x03	; 3
    158e:	0e 94 4e 25 	call	0x4a9c	; 0x4a9c <nokia_lcd_write_string>
    1592:	6e e1       	ldi	r22, 0x1E	; 30
    1594:	80 e0       	ldi	r24, 0x00	; 0
    1596:	0e 94 60 25 	call	0x4ac0	; 0x4ac0 <nokia_lcd_set_cursor>
    159a:	6c 2f       	mov	r22, r28
    159c:	8d e3       	ldi	r24, 0x3D	; 61
    159e:	93 e0       	ldi	r25, 0x03	; 3
    15a0:	0e 94 4e 25 	call	0x4a9c	; 0x4a9c <nokia_lcd_write_string>
    15a4:	0e 94 65 25 	call	0x4aca	; 0x4aca <nokia_lcd_render>
    15a8:	06 c0       	rjmp	.+12     	; 0x15b6 <AddUser_Tick+0x3d6>
    15aa:	8f e4       	ldi	r24, 0x4F	; 79
    15ac:	93 ec       	ldi	r25, 0xC3	; 195
    15ae:	01 97       	sbiw	r24, 0x01	; 1
    15b0:	f1 f7       	brne	.-4      	; 0x15ae <AddUser_Tick+0x3ce>
    15b2:	00 c0       	rjmp	.+0      	; 0x15b4 <AddUser_Tick+0x3d4>
    15b4:	00 00       	nop
    15b6:	a4 d9       	rcall	.-3256   	; 0x900 <GetKeypadKey>
    15b8:	80 93 2f 0d 	sts	0x0D2F, r24	; 0x800d2f <keypad_character>
    15bc:	88 23       	and	r24, r24
    15be:	a9 f3       	breq	.-22     	; 0x15aa <AddUser_Tick+0x3ca>
    15c0:	06 c0       	rjmp	.+12     	; 0x15ce <AddUser_Tick+0x3ee>
    15c2:	ef e4       	ldi	r30, 0x4F	; 79
    15c4:	f3 ec       	ldi	r31, 0xC3	; 195
    15c6:	31 97       	sbiw	r30, 0x01	; 1
    15c8:	f1 f7       	brne	.-4      	; 0x15c6 <AddUser_Tick+0x3e6>
    15ca:	00 c0       	rjmp	.+0      	; 0x15cc <AddUser_Tick+0x3ec>
    15cc:	00 00       	nop
    15ce:	98 d9       	rcall	.-3280   	; 0x900 <GetKeypadKey>
    15d0:	80 93 2e 0d 	sts	0x0D2E, r24	; 0x800d2e <previous_character>
    15d4:	90 91 2f 0d 	lds	r25, 0x0D2F	; 0x800d2f <keypad_character>
    15d8:	89 17       	cp	r24, r25
    15da:	99 f3       	breq	.-26     	; 0x15c2 <AddUser_Tick+0x3e2>
    15dc:	80 91 2f 0d 	lds	r24, 0x0D2F	; 0x800d2f <keypad_character>
    15e0:	83 32       	cpi	r24, 0x23	; 35
    15e2:	09 f0       	breq	.+2      	; 0x15e6 <AddUser_Tick+0x406>
    15e4:	8f cf       	rjmp	.-226    	; 0x1504 <AddUser_Tick+0x324>
    15e6:	d2 c4       	rjmp	.+2468   	; 0x1f8c <AddUser_Tick+0xdac>
    15e8:	8a e0       	ldi	r24, 0x0A	; 10
    15ea:	1e d8       	rcall	.-4036   	; 0x628 <HX711_1_get_units>
    15ec:	0e 94 12 2b 	call	0x5624	; 0x5624 <__fixsfsi>
    15f0:	16 16       	cp	r1, r22
    15f2:	17 06       	cpc	r1, r23
    15f4:	18 06       	cpc	r1, r24
    15f6:	19 06       	cpc	r1, r25
    15f8:	94 f4       	brge	.+36     	; 0x161e <AddUser_Tick+0x43e>
    15fa:	0e 94 68 24 	call	0x48d0	; 0x48d0 <nokia_lcd_clear>
    15fe:	61 e0       	ldi	r22, 0x01	; 1
    1600:	84 e4       	ldi	r24, 0x44	; 68
    1602:	93 e0       	ldi	r25, 0x03	; 3
    1604:	0e 94 4e 25 	call	0x4a9c	; 0x4a9c <nokia_lcd_write_string>
    1608:	0e 94 65 25 	call	0x4aca	; 0x4aca <nokia_lcd_render>
    160c:	8a e0       	ldi	r24, 0x0A	; 10
    160e:	0c d8       	rcall	.-4072   	; 0x628 <HX711_1_get_units>
    1610:	0e 94 12 2b 	call	0x5624	; 0x5624 <__fixsfsi>
    1614:	16 16       	cp	r1, r22
    1616:	17 06       	cpc	r1, r23
    1618:	18 06       	cpc	r1, r24
    161a:	19 06       	cpc	r1, r25
    161c:	74 f3       	brlt	.-36     	; 0x15fa <AddUser_Tick+0x41a>
    161e:	0e 94 68 24 	call	0x48d0	; 0x48d0 <nokia_lcd_clear>
    1622:	61 e0       	ldi	r22, 0x01	; 1
    1624:	8d e5       	ldi	r24, 0x5D	; 93
    1626:	93 e0       	ldi	r25, 0x03	; 3
    1628:	0e 94 4e 25 	call	0x4a9c	; 0x4a9c <nokia_lcd_write_string>
    162c:	0e 94 65 25 	call	0x4aca	; 0x4aca <nokia_lcd_render>
    1630:	8a e0       	ldi	r24, 0x0A	; 10
    1632:	0e 94 14 03 	call	0x628	; 0x628 <HX711_1_get_units>
    1636:	0e 94 12 2b 	call	0x5624	; 0x5624 <__fixsfsi>
    163a:	16 16       	cp	r1, r22
    163c:	17 06       	cpc	r1, r23
    163e:	18 06       	cpc	r1, r24
    1640:	19 06       	cpc	r1, r25
    1642:	6c f7       	brge	.-38     	; 0x161e <AddUser_Tick+0x43e>
    1644:	8a e0       	ldi	r24, 0x0A	; 10
    1646:	0e 94 14 03 	call	0x628	; 0x628 <HX711_1_get_units>
    164a:	8a e0       	ldi	r24, 0x0A	; 10
    164c:	0e 94 14 03 	call	0x628	; 0x628 <HX711_1_get_units>
    1650:	8a e0       	ldi	r24, 0x0A	; 10
    1652:	0e 94 14 03 	call	0x628	; 0x628 <HX711_1_get_units>
    1656:	8a e0       	ldi	r24, 0x0A	; 10
    1658:	0e 94 14 03 	call	0x628	; 0x628 <HX711_1_get_units>
    165c:	8a e0       	ldi	r24, 0x0A	; 10
    165e:	0e 94 14 03 	call	0x628	; 0x628 <HX711_1_get_units>
    1662:	0e 94 12 2b 	call	0x5624	; 0x5624 <__fixsfsi>
    1666:	6b 01       	movw	r12, r22
    1668:	7c 01       	movw	r14, r24
    166a:	67 2b       	or	r22, r23
    166c:	68 2b       	or	r22, r24
    166e:	69 2b       	or	r22, r25
    1670:	99 f0       	breq	.+38     	; 0x1698 <AddUser_Tick+0x4b8>
    1672:	0e 94 68 24 	call	0x48d0	; 0x48d0 <nokia_lcd_clear>
    1676:	61 e0       	ldi	r22, 0x01	; 1
    1678:	84 e4       	ldi	r24, 0x44	; 68
    167a:	93 e0       	ldi	r25, 0x03	; 3
    167c:	0e 94 4e 25 	call	0x4a9c	; 0x4a9c <nokia_lcd_write_string>
    1680:	0e 94 65 25 	call	0x4aca	; 0x4aca <nokia_lcd_render>
    1684:	8a e0       	ldi	r24, 0x0A	; 10
    1686:	0e 94 14 03 	call	0x628	; 0x628 <HX711_1_get_units>
    168a:	0e 94 12 2b 	call	0x5624	; 0x5624 <__fixsfsi>
    168e:	16 16       	cp	r1, r22
    1690:	17 06       	cpc	r1, r23
    1692:	18 06       	cpc	r1, r24
    1694:	19 06       	cpc	r1, r25
    1696:	6c f3       	brlt	.-38     	; 0x1672 <AddUser_Tick+0x492>
    1698:	c0 92 43 0d 	sts	0x0D43, r12	; 0x800d43 <user_key>
    169c:	d0 92 44 0d 	sts	0x0D44, r13	; 0x800d44 <user_key+0x1>
    16a0:	e0 92 45 0d 	sts	0x0D45, r14	; 0x800d45 <user_key+0x2>
    16a4:	f0 92 46 0d 	sts	0x0D46, r15	; 0x800d46 <user_key+0x3>
    16a8:	92 c1       	rjmp	.+804    	; 0x19ce <AddUser_Tick+0x7ee>
    16aa:	8f e4       	ldi	r24, 0x4F	; 79
    16ac:	93 ec       	ldi	r25, 0xC3	; 195
    16ae:	01 97       	sbiw	r24, 0x01	; 1
    16b0:	f1 f7       	brne	.-4      	; 0x16ae <AddUser_Tick+0x4ce>
    16b2:	00 c0       	rjmp	.+0      	; 0x16b4 <AddUser_Tick+0x4d4>
    16b4:	00 00       	nop
    16b6:	24 d9       	rcall	.-3512   	; 0x900 <GetKeypadKey>
    16b8:	80 93 2f 0d 	sts	0x0D2F, r24	; 0x800d2f <keypad_character>
    16bc:	88 23       	and	r24, r24
    16be:	a9 f3       	breq	.-22     	; 0x16aa <AddUser_Tick+0x4ca>
    16c0:	06 c0       	rjmp	.+12     	; 0x16ce <AddUser_Tick+0x4ee>
    16c2:	ef e4       	ldi	r30, 0x4F	; 79
    16c4:	f3 ec       	ldi	r31, 0xC3	; 195
    16c6:	31 97       	sbiw	r30, 0x01	; 1
    16c8:	f1 f7       	brne	.-4      	; 0x16c6 <AddUser_Tick+0x4e6>
    16ca:	00 c0       	rjmp	.+0      	; 0x16cc <AddUser_Tick+0x4ec>
    16cc:	00 00       	nop
    16ce:	18 d9       	rcall	.-3536   	; 0x900 <GetKeypadKey>
    16d0:	80 93 2e 0d 	sts	0x0D2E, r24	; 0x800d2e <previous_character>
    16d4:	90 91 2f 0d 	lds	r25, 0x0D2F	; 0x800d2f <keypad_character>
    16d8:	89 17       	cp	r24, r25
    16da:	99 f3       	breq	.-26     	; 0x16c2 <AddUser_Tick+0x4e2>
    16dc:	c2 e4       	ldi	r28, 0x42	; 66
    16de:	dd e0       	ldi	r29, 0x0D	; 13
    16e0:	0a e3       	ldi	r16, 0x3A	; 58
    16e2:	1d e0       	ldi	r17, 0x0D	; 13
    16e4:	0f 2e       	mov	r0, r31
    16e6:	fa e2       	ldi	r31, 0x2A	; 42
    16e8:	ff 2e       	mov	r15, r31
    16ea:	f0 2d       	mov	r31, r0
    16ec:	79 c0       	rjmp	.+242    	; 0x17e0 <AddUser_Tick+0x600>
    16ee:	88 23       	and	r24, r24
    16f0:	09 f4       	brne	.+2      	; 0x16f4 <AddUser_Tick+0x514>
    16f2:	63 c0       	rjmp	.+198    	; 0x17ba <AddUser_Tick+0x5da>
    16f4:	8a 32       	cpi	r24, 0x2A	; 42
    16f6:	b1 f1       	breq	.+108    	; 0x1764 <AddUser_Tick+0x584>
    16f8:	20 91 30 0d 	lds	r18, 0x0D30	; 0x800d30 <password_size>
    16fc:	28 30       	cpi	r18, 0x08	; 8
    16fe:	08 f0       	brcs	.+2      	; 0x1702 <AddUser_Tick+0x522>
    1700:	5c c0       	rjmp	.+184    	; 0x17ba <AddUser_Tick+0x5da>
    1702:	30 e0       	ldi	r19, 0x00	; 0
    1704:	f9 01       	movw	r30, r18
    1706:	e6 5c       	subi	r30, 0xC6	; 198
    1708:	f2 4f       	sbci	r31, 0xF2	; 242
    170a:	80 83       	st	Z, r24
    170c:	2f 5f       	subi	r18, 0xFF	; 255
    170e:	3f 4f       	sbci	r19, 0xFF	; 255
    1710:	28 30       	cpi	r18, 0x08	; 8
    1712:	31 05       	cpc	r19, r1
    1714:	24 f4       	brge	.+8      	; 0x171e <AddUser_Tick+0x53e>
    1716:	f9 01       	movw	r30, r18
    1718:	e6 5c       	subi	r30, 0xC6	; 198
    171a:	f2 4f       	sbci	r31, 0xF2	; 242
    171c:	f0 82       	st	Z, r15
    171e:	0e 94 68 24 	call	0x48d0	; 0x48d0 <nokia_lcd_clear>
    1722:	61 e0       	ldi	r22, 0x01	; 1
    1724:	81 e7       	ldi	r24, 0x71	; 113
    1726:	93 e0       	ldi	r25, 0x03	; 3
    1728:	0e 94 4e 25 	call	0x4a9c	; 0x4a9c <nokia_lcd_write_string>
    172c:	6a e0       	ldi	r22, 0x0A	; 10
    172e:	80 e0       	ldi	r24, 0x00	; 0
    1730:	0e 94 60 25 	call	0x4ac0	; 0x4ac0 <nokia_lcd_set_cursor>
    1734:	61 e0       	ldi	r22, 0x01	; 1
    1736:	88 e7       	ldi	r24, 0x78	; 120
    1738:	93 e0       	ldi	r25, 0x03	; 3
    173a:	0e 94 4e 25 	call	0x4a9c	; 0x4a9c <nokia_lcd_write_string>
    173e:	64 e1       	ldi	r22, 0x14	; 20
    1740:	80 e0       	ldi	r24, 0x00	; 0
    1742:	0e 94 60 25 	call	0x4ac0	; 0x4ac0 <nokia_lcd_set_cursor>
    1746:	61 e0       	ldi	r22, 0x01	; 1
    1748:	c8 01       	movw	r24, r16
    174a:	0e 94 4e 25 	call	0x4a9c	; 0x4a9c <nokia_lcd_write_string>
    174e:	0e 94 65 25 	call	0x4aca	; 0x4aca <nokia_lcd_render>
    1752:	80 91 30 0d 	lds	r24, 0x0D30	; 0x800d30 <password_size>
    1756:	8f 5f       	subi	r24, 0xFF	; 255
    1758:	80 93 30 0d 	sts	0x0D30, r24	; 0x800d30 <password_size>
    175c:	80 91 2f 0d 	lds	r24, 0x0D2F	; 0x800d2f <keypad_character>
    1760:	8a 32       	cpi	r24, 0x2A	; 42
    1762:	59 f5       	brne	.+86     	; 0x17ba <AddUser_Tick+0x5da>
    1764:	10 92 30 0d 	sts	0x0D30, r1	; 0x800d30 <password_size>
    1768:	ea e3       	ldi	r30, 0x3A	; 58
    176a:	fd e0       	ldi	r31, 0x0D	; 13
    176c:	11 92       	st	Z+, r1
    176e:	ce 17       	cp	r28, r30
    1770:	df 07       	cpc	r29, r31
    1772:	e1 f7       	brne	.-8      	; 0x176c <AddUser_Tick+0x58c>
    1774:	f8 01       	movw	r30, r16
    1776:	f0 82       	st	Z, r15
    1778:	0e 94 68 24 	call	0x48d0	; 0x48d0 <nokia_lcd_clear>
    177c:	61 e0       	ldi	r22, 0x01	; 1
    177e:	81 e7       	ldi	r24, 0x71	; 113
    1780:	93 e0       	ldi	r25, 0x03	; 3
    1782:	0e 94 4e 25 	call	0x4a9c	; 0x4a9c <nokia_lcd_write_string>
    1786:	6a e0       	ldi	r22, 0x0A	; 10
    1788:	80 e0       	ldi	r24, 0x00	; 0
    178a:	0e 94 60 25 	call	0x4ac0	; 0x4ac0 <nokia_lcd_set_cursor>
    178e:	61 e0       	ldi	r22, 0x01	; 1
    1790:	88 e7       	ldi	r24, 0x78	; 120
    1792:	93 e0       	ldi	r25, 0x03	; 3
    1794:	0e 94 4e 25 	call	0x4a9c	; 0x4a9c <nokia_lcd_write_string>
    1798:	64 e1       	ldi	r22, 0x14	; 20
    179a:	80 e0       	ldi	r24, 0x00	; 0
    179c:	0e 94 60 25 	call	0x4ac0	; 0x4ac0 <nokia_lcd_set_cursor>
    17a0:	61 e0       	ldi	r22, 0x01	; 1
    17a2:	c8 01       	movw	r24, r16
    17a4:	0e 94 4e 25 	call	0x4a9c	; 0x4a9c <nokia_lcd_write_string>
    17a8:	0e 94 65 25 	call	0x4aca	; 0x4aca <nokia_lcd_render>
    17ac:	06 c0       	rjmp	.+12     	; 0x17ba <AddUser_Tick+0x5da>
    17ae:	8f e4       	ldi	r24, 0x4F	; 79
    17b0:	93 ec       	ldi	r25, 0xC3	; 195
    17b2:	01 97       	sbiw	r24, 0x01	; 1
    17b4:	f1 f7       	brne	.-4      	; 0x17b2 <AddUser_Tick+0x5d2>
    17b6:	00 c0       	rjmp	.+0      	; 0x17b8 <AddUser_Tick+0x5d8>
    17b8:	00 00       	nop
    17ba:	a2 d8       	rcall	.-3772   	; 0x900 <GetKeypadKey>
    17bc:	80 93 2f 0d 	sts	0x0D2F, r24	; 0x800d2f <keypad_character>
    17c0:	88 23       	and	r24, r24
    17c2:	a9 f3       	breq	.-22     	; 0x17ae <AddUser_Tick+0x5ce>
    17c4:	06 c0       	rjmp	.+12     	; 0x17d2 <AddUser_Tick+0x5f2>
    17c6:	ef e4       	ldi	r30, 0x4F	; 79
    17c8:	f3 ec       	ldi	r31, 0xC3	; 195
    17ca:	31 97       	sbiw	r30, 0x01	; 1
    17cc:	f1 f7       	brne	.-4      	; 0x17ca <AddUser_Tick+0x5ea>
    17ce:	00 c0       	rjmp	.+0      	; 0x17d0 <AddUser_Tick+0x5f0>
    17d0:	00 00       	nop
    17d2:	96 d8       	rcall	.-3796   	; 0x900 <GetKeypadKey>
    17d4:	80 93 2e 0d 	sts	0x0D2E, r24	; 0x800d2e <previous_character>
    17d8:	90 91 2f 0d 	lds	r25, 0x0D2F	; 0x800d2f <keypad_character>
    17dc:	89 17       	cp	r24, r25
    17de:	99 f3       	breq	.-26     	; 0x17c6 <AddUser_Tick+0x5e6>
    17e0:	80 91 2f 0d 	lds	r24, 0x0D2F	; 0x800d2f <keypad_character>
    17e4:	83 32       	cpi	r24, 0x23	; 35
    17e6:	09 f0       	breq	.+2      	; 0x17ea <AddUser_Tick+0x60a>
    17e8:	82 cf       	rjmp	.-252    	; 0x16ee <AddUser_Tick+0x50e>
    17ea:	d0 c3       	rjmp	.+1952   	; 0x1f8c <AddUser_Tick+0xdac>
    17ec:	8f e4       	ldi	r24, 0x4F	; 79
    17ee:	93 ec       	ldi	r25, 0xC3	; 195
    17f0:	01 97       	sbiw	r24, 0x01	; 1
    17f2:	f1 f7       	brne	.-4      	; 0x17f0 <AddUser_Tick+0x610>
    17f4:	00 c0       	rjmp	.+0      	; 0x17f6 <AddUser_Tick+0x616>
    17f6:	00 00       	nop
    17f8:	83 d8       	rcall	.-3834   	; 0x900 <GetKeypadKey>
    17fa:	80 93 2f 0d 	sts	0x0D2F, r24	; 0x800d2f <keypad_character>
    17fe:	88 23       	and	r24, r24
    1800:	a9 f3       	breq	.-22     	; 0x17ec <AddUser_Tick+0x60c>
    1802:	06 c0       	rjmp	.+12     	; 0x1810 <AddUser_Tick+0x630>
    1804:	ef e4       	ldi	r30, 0x4F	; 79
    1806:	f3 ec       	ldi	r31, 0xC3	; 195
    1808:	31 97       	sbiw	r30, 0x01	; 1
    180a:	f1 f7       	brne	.-4      	; 0x1808 <AddUser_Tick+0x628>
    180c:	00 c0       	rjmp	.+0      	; 0x180e <AddUser_Tick+0x62e>
    180e:	00 00       	nop
    1810:	77 d8       	rcall	.-3858   	; 0x900 <GetKeypadKey>
    1812:	80 93 2e 0d 	sts	0x0D2E, r24	; 0x800d2e <previous_character>
    1816:	90 91 2f 0d 	lds	r25, 0x0D2F	; 0x800d2f <keypad_character>
    181a:	89 17       	cp	r24, r25
    181c:	99 f3       	breq	.-26     	; 0x1804 <AddUser_Tick+0x624>
    181e:	c9 e3       	ldi	r28, 0x39	; 57
    1820:	dd e0       	ldi	r29, 0x0D	; 13
    1822:	01 e3       	ldi	r16, 0x31	; 49
    1824:	1d e0       	ldi	r17, 0x0D	; 13
    1826:	0f 2e       	mov	r0, r31
    1828:	fa e2       	ldi	r31, 0x2A	; 42
    182a:	ff 2e       	mov	r15, r31
    182c:	f0 2d       	mov	r31, r0
    182e:	90 c0       	rjmp	.+288    	; 0x1950 <AddUser_Tick+0x770>
    1830:	88 23       	and	r24, r24
    1832:	09 f4       	brne	.+2      	; 0x1836 <AddUser_Tick+0x656>
    1834:	78 c0       	rjmp	.+240    	; 0x1926 <AddUser_Tick+0x746>
    1836:	8a 32       	cpi	r24, 0x2A	; 42
    1838:	09 f4       	brne	.+2      	; 0x183c <AddUser_Tick+0x65c>
    183a:	40 c0       	rjmp	.+128    	; 0x18bc <AddUser_Tick+0x6dc>
    183c:	20 91 30 0d 	lds	r18, 0x0D30	; 0x800d30 <password_size>
    1840:	28 30       	cpi	r18, 0x08	; 8
    1842:	08 f0       	brcs	.+2      	; 0x1846 <AddUser_Tick+0x666>
    1844:	70 c0       	rjmp	.+224    	; 0x1926 <AddUser_Tick+0x746>
    1846:	30 e0       	ldi	r19, 0x00	; 0
    1848:	f9 01       	movw	r30, r18
    184a:	ef 5c       	subi	r30, 0xCF	; 207
    184c:	f2 4f       	sbci	r31, 0xF2	; 242
    184e:	80 83       	st	Z, r24
    1850:	2f 5f       	subi	r18, 0xFF	; 255
    1852:	3f 4f       	sbci	r19, 0xFF	; 255
    1854:	28 30       	cpi	r18, 0x08	; 8
    1856:	31 05       	cpc	r19, r1
    1858:	24 f4       	brge	.+8      	; 0x1862 <AddUser_Tick+0x682>
    185a:	f9 01       	movw	r30, r18
    185c:	ef 5c       	subi	r30, 0xCF	; 207
    185e:	f2 4f       	sbci	r31, 0xF2	; 242
    1860:	f0 82       	st	Z, r15
    1862:	0e 94 68 24 	call	0x48d0	; 0x48d0 <nokia_lcd_clear>
    1866:	61 e0       	ldi	r22, 0x01	; 1
    1868:	86 e7       	ldi	r24, 0x76	; 118
    186a:	94 e0       	ldi	r25, 0x04	; 4
    186c:	0e 94 4e 25 	call	0x4a9c	; 0x4a9c <nokia_lcd_write_string>
    1870:	6a e0       	ldi	r22, 0x0A	; 10
    1872:	80 e0       	ldi	r24, 0x00	; 0
    1874:	0e 94 60 25 	call	0x4ac0	; 0x4ac0 <nokia_lcd_set_cursor>
    1878:	61 e0       	ldi	r22, 0x01	; 1
    187a:	81 e8       	ldi	r24, 0x81	; 129
    187c:	93 e0       	ldi	r25, 0x03	; 3
    187e:	0e 94 4e 25 	call	0x4a9c	; 0x4a9c <nokia_lcd_write_string>
    1882:	6a e0       	ldi	r22, 0x0A	; 10
    1884:	8c e3       	ldi	r24, 0x3C	; 60
    1886:	0e 94 60 25 	call	0x4ac0	; 0x4ac0 <nokia_lcd_set_cursor>
    188a:	80 91 2d 0d 	lds	r24, 0x0D2D	; 0x800d2d <password_attempt_fails>
    188e:	61 e0       	ldi	r22, 0x01	; 1
    1890:	80 5d       	subi	r24, 0xD0	; 208
    1892:	0e 94 a4 24 	call	0x4948	; 0x4948 <nokia_lcd_write_char>
    1896:	64 e1       	ldi	r22, 0x14	; 20
    1898:	80 e0       	ldi	r24, 0x00	; 0
    189a:	0e 94 60 25 	call	0x4ac0	; 0x4ac0 <nokia_lcd_set_cursor>
    189e:	61 e0       	ldi	r22, 0x01	; 1
    18a0:	c8 01       	movw	r24, r16
    18a2:	0e 94 4e 25 	call	0x4a9c	; 0x4a9c <nokia_lcd_write_string>
    18a6:	0e 94 65 25 	call	0x4aca	; 0x4aca <nokia_lcd_render>
    18aa:	80 91 30 0d 	lds	r24, 0x0D30	; 0x800d30 <password_size>
    18ae:	8f 5f       	subi	r24, 0xFF	; 255
    18b0:	80 93 30 0d 	sts	0x0D30, r24	; 0x800d30 <password_size>
    18b4:	80 91 2f 0d 	lds	r24, 0x0D2F	; 0x800d2f <keypad_character>
    18b8:	8a 32       	cpi	r24, 0x2A	; 42
    18ba:	a9 f5       	brne	.+106    	; 0x1926 <AddUser_Tick+0x746>
    18bc:	10 92 30 0d 	sts	0x0D30, r1	; 0x800d30 <password_size>
    18c0:	e1 e3       	ldi	r30, 0x31	; 49
    18c2:	fd e0       	ldi	r31, 0x0D	; 13
    18c4:	11 92       	st	Z+, r1
    18c6:	ec 17       	cp	r30, r28
    18c8:	fd 07       	cpc	r31, r29
    18ca:	e1 f7       	brne	.-8      	; 0x18c4 <AddUser_Tick+0x6e4>
    18cc:	f8 01       	movw	r30, r16
    18ce:	f0 82       	st	Z, r15
    18d0:	0e 94 68 24 	call	0x48d0	; 0x48d0 <nokia_lcd_clear>
    18d4:	61 e0       	ldi	r22, 0x01	; 1
    18d6:	86 e7       	ldi	r24, 0x76	; 118
    18d8:	94 e0       	ldi	r25, 0x04	; 4
    18da:	0e 94 4e 25 	call	0x4a9c	; 0x4a9c <nokia_lcd_write_string>
    18de:	6a e0       	ldi	r22, 0x0A	; 10
    18e0:	80 e0       	ldi	r24, 0x00	; 0
    18e2:	0e 94 60 25 	call	0x4ac0	; 0x4ac0 <nokia_lcd_set_cursor>
    18e6:	61 e0       	ldi	r22, 0x01	; 1
    18e8:	81 e8       	ldi	r24, 0x81	; 129
    18ea:	93 e0       	ldi	r25, 0x03	; 3
    18ec:	0e 94 4e 25 	call	0x4a9c	; 0x4a9c <nokia_lcd_write_string>
    18f0:	6a e0       	ldi	r22, 0x0A	; 10
    18f2:	8c e3       	ldi	r24, 0x3C	; 60
    18f4:	0e 94 60 25 	call	0x4ac0	; 0x4ac0 <nokia_lcd_set_cursor>
    18f8:	80 91 2d 0d 	lds	r24, 0x0D2D	; 0x800d2d <password_attempt_fails>
    18fc:	61 e0       	ldi	r22, 0x01	; 1
    18fe:	80 5d       	subi	r24, 0xD0	; 208
    1900:	0e 94 a4 24 	call	0x4948	; 0x4948 <nokia_lcd_write_char>
    1904:	64 e1       	ldi	r22, 0x14	; 20
    1906:	80 e0       	ldi	r24, 0x00	; 0
    1908:	0e 94 60 25 	call	0x4ac0	; 0x4ac0 <nokia_lcd_set_cursor>
    190c:	61 e0       	ldi	r22, 0x01	; 1
    190e:	c8 01       	movw	r24, r16
    1910:	0e 94 4e 25 	call	0x4a9c	; 0x4a9c <nokia_lcd_write_string>
    1914:	0e 94 65 25 	call	0x4aca	; 0x4aca <nokia_lcd_render>
    1918:	06 c0       	rjmp	.+12     	; 0x1926 <AddUser_Tick+0x746>
    191a:	8f e4       	ldi	r24, 0x4F	; 79
    191c:	93 ec       	ldi	r25, 0xC3	; 195
    191e:	01 97       	sbiw	r24, 0x01	; 1
    1920:	f1 f7       	brne	.-4      	; 0x191e <AddUser_Tick+0x73e>
    1922:	00 c0       	rjmp	.+0      	; 0x1924 <AddUser_Tick+0x744>
    1924:	00 00       	nop
    1926:	0e 94 80 04 	call	0x900	; 0x900 <GetKeypadKey>
    192a:	80 93 2f 0d 	sts	0x0D2F, r24	; 0x800d2f <keypad_character>
    192e:	88 23       	and	r24, r24
    1930:	a1 f3       	breq	.-24     	; 0x191a <AddUser_Tick+0x73a>
    1932:	06 c0       	rjmp	.+12     	; 0x1940 <AddUser_Tick+0x760>
    1934:	ef e4       	ldi	r30, 0x4F	; 79
    1936:	f3 ec       	ldi	r31, 0xC3	; 195
    1938:	31 97       	sbiw	r30, 0x01	; 1
    193a:	f1 f7       	brne	.-4      	; 0x1938 <AddUser_Tick+0x758>
    193c:	00 c0       	rjmp	.+0      	; 0x193e <AddUser_Tick+0x75e>
    193e:	00 00       	nop
    1940:	0e 94 80 04 	call	0x900	; 0x900 <GetKeypadKey>
    1944:	80 93 2e 0d 	sts	0x0D2E, r24	; 0x800d2e <previous_character>
    1948:	90 91 2f 0d 	lds	r25, 0x0D2F	; 0x800d2f <keypad_character>
    194c:	89 17       	cp	r24, r25
    194e:	91 f3       	breq	.-28     	; 0x1934 <AddUser_Tick+0x754>
    1950:	80 91 2f 0d 	lds	r24, 0x0D2F	; 0x800d2f <keypad_character>
    1954:	83 32       	cpi	r24, 0x23	; 35
    1956:	09 f0       	breq	.+2      	; 0x195a <AddUser_Tick+0x77a>
    1958:	6b cf       	rjmp	.-298    	; 0x1830 <AddUser_Tick+0x650>
    195a:	29 dc       	rcall	.-1966   	; 0x11ae <password_verification>
    195c:	81 11       	cpse	r24, r1
    195e:	06 c0       	rjmp	.+12     	; 0x196c <AddUser_Tick+0x78c>
    1960:	80 91 2d 0d 	lds	r24, 0x0D2D	; 0x800d2d <password_attempt_fails>
    1964:	8f 5f       	subi	r24, 0xFF	; 255
    1966:	80 93 2d 0d 	sts	0x0D2D, r24	; 0x800d2d <password_attempt_fails>
    196a:	10 c3       	rjmp	.+1568   	; 0x1f8c <AddUser_Tick+0xdac>
    196c:	10 92 2d 0d 	sts	0x0D2D, r1	; 0x800d2d <password_attempt_fails>
    1970:	0d c3       	rjmp	.+1562   	; 0x1f8c <AddUser_Tick+0xdac>
    1972:	8f e4       	ldi	r24, 0x4F	; 79
    1974:	93 ec       	ldi	r25, 0xC3	; 195
    1976:	01 97       	sbiw	r24, 0x01	; 1
    1978:	f1 f7       	brne	.-4      	; 0x1976 <AddUser_Tick+0x796>
    197a:	00 c0       	rjmp	.+0      	; 0x197c <AddUser_Tick+0x79c>
    197c:	00 00       	nop
    197e:	0e 94 80 04 	call	0x900	; 0x900 <GetKeypadKey>
    1982:	80 93 2f 0d 	sts	0x0D2F, r24	; 0x800d2f <keypad_character>
    1986:	88 23       	and	r24, r24
    1988:	a1 f3       	breq	.-24     	; 0x1972 <AddUser_Tick+0x792>
    198a:	06 c0       	rjmp	.+12     	; 0x1998 <AddUser_Tick+0x7b8>
    198c:	ef e4       	ldi	r30, 0x4F	; 79
    198e:	f3 ec       	ldi	r31, 0xC3	; 195
    1990:	31 97       	sbiw	r30, 0x01	; 1
    1992:	f1 f7       	brne	.-4      	; 0x1990 <AddUser_Tick+0x7b0>
    1994:	00 c0       	rjmp	.+0      	; 0x1996 <AddUser_Tick+0x7b6>
    1996:	00 00       	nop
    1998:	0e 94 80 04 	call	0x900	; 0x900 <GetKeypadKey>
    199c:	80 93 2e 0d 	sts	0x0D2E, r24	; 0x800d2e <previous_character>
    19a0:	90 91 2f 0d 	lds	r25, 0x0D2F	; 0x800d2f <keypad_character>
    19a4:	89 17       	cp	r24, r25
    19a6:	91 f3       	breq	.-28     	; 0x198c <AddUser_Tick+0x7ac>
    19a8:	93 32       	cpi	r25, 0x23	; 35
    19aa:	09 f0       	breq	.+2      	; 0x19ae <AddUser_Tick+0x7ce>
    19ac:	ff cf       	rjmp	.-2      	; 0x19ac <AddUser_Tick+0x7cc>
    19ae:	81 e0       	ldi	r24, 0x01	; 1
    19b0:	80 93 2c 0d 	sts	0x0D2C, r24	; 0x800d2c <adding_user_finished>
    19b4:	e0 91 e0 0f 	lds	r30, 0x0FE0	; 0x800fe0 <adduser_state>
    19b8:	8e 2f       	mov	r24, r30
    19ba:	90 e0       	ldi	r25, 0x00	; 0
    19bc:	89 30       	cpi	r24, 0x09	; 9
    19be:	91 05       	cpc	r25, r1
    19c0:	08 f0       	brcs	.+2      	; 0x19c4 <AddUser_Tick+0x7e4>
    19c2:	d5 c2       	rjmp	.+1450   	; 0x1f6e <AddUser_Tick+0xd8e>
    19c4:	fc 01       	movw	r30, r24
    19c6:	eb 59       	subi	r30, 0x9B	; 155
    19c8:	ff 4f       	sbci	r31, 0xFF	; 255
    19ca:	0c 94 ba 2c 	jmp	0x5974	; 0x5974 <__tablejump2__>
    19ce:	e0 91 e0 0f 	lds	r30, 0x0FE0	; 0x800fe0 <adduser_state>
    19d2:	8e 2f       	mov	r24, r30
    19d4:	90 e0       	ldi	r25, 0x00	; 0
    19d6:	89 30       	cpi	r24, 0x09	; 9
    19d8:	91 05       	cpc	r25, r1
    19da:	08 f0       	brcs	.+2      	; 0x19de <AddUser_Tick+0x7fe>
    19dc:	c8 c2       	rjmp	.+1424   	; 0x1f6e <AddUser_Tick+0xd8e>
    19de:	fc 01       	movw	r30, r24
    19e0:	e2 59       	subi	r30, 0x92	; 146
    19e2:	ff 4f       	sbci	r31, 0xFF	; 255
    19e4:	0c 94 ba 2c 	jmp	0x5974	; 0x5974 <__tablejump2__>
    19e8:	80 91 71 0d 	lds	r24, 0x0D71	; 0x800d71 <adding_user_flag>
    19ec:	88 23       	and	r24, r24
    19ee:	09 f4       	brne	.+2      	; 0x19f2 <AddUser_Tick+0x812>
    19f0:	d9 c2       	rjmp	.+1458   	; 0x1fa4 <AddUser_Tick+0xdc4>
    19f2:	80 91 60 0d 	lds	r24, 0x0D60	; 0x800d60 <keys_have_been_deposited>
    19f6:	81 11       	cpse	r24, r1
    19f8:	53 c0       	rjmp	.+166    	; 0x1aa0 <AddUser_Tick+0x8c0>
    19fa:	80 91 6b 0d 	lds	r24, 0x0D6B	; 0x800d6b <number_of_users>
    19fe:	84 30       	cpi	r24, 0x04	; 4
    1a00:	29 f4       	brne	.+10     	; 0x1a0c <AddUser_Tick+0x82c>
    1a02:	10 92 71 0d 	sts	0x0D71, r1	; 0x800d71 <adding_user_flag>
    1a06:	10 92 e0 0f 	sts	0x0FE0, r1	; 0x800fe0 <adduser_state>
    1a0a:	cc c2       	rjmp	.+1432   	; 0x1fa4 <AddUser_Tick+0xdc4>
    1a0c:	a7 e0       	ldi	r26, 0x07	; 7
    1a0e:	b1 e0       	ldi	r27, 0x01	; 1
    1a10:	e2 e0       	ldi	r30, 0x02	; 2
    1a12:	f1 e0       	ldi	r31, 0x01	; 1
    1a14:	80 e0       	ldi	r24, 0x00	; 0
    1a16:	1d 92       	st	X+, r1
    1a18:	85 30       	cpi	r24, 0x05	; 5
    1a1a:	08 f4       	brcc	.+2      	; 0x1a1e <AddUser_Tick+0x83e>
    1a1c:	10 82       	st	Z, r1
    1a1e:	8f 5f       	subi	r24, 0xFF	; 255
    1a20:	31 96       	adiw	r30, 0x01	; 1
    1a22:	8e 30       	cpi	r24, 0x0E	; 14
    1a24:	c1 f7       	brne	.-16     	; 0x1a16 <AddUser_Tick+0x836>
    1a26:	8f e5       	ldi	r24, 0x5F	; 95
    1a28:	80 93 07 01 	sts	0x0107, r24	; 0x800107 <user_name>
    1a2c:	80 93 02 01 	sts	0x0102, r24	; 0x800102 <weight_output>
    1a30:	10 92 4a 0d 	sts	0x0D4A, r1	; 0x800d4a <user_name_size>
    1a34:	10 92 49 0d 	sts	0x0D49, r1	; 0x800d49 <user_weight+0x1>
    1a38:	10 92 48 0d 	sts	0x0D48, r1	; 0x800d48 <user_weight>
    1a3c:	10 92 47 0d 	sts	0x0D47, r1	; 0x800d47 <user_gender>
    1a40:	ea e3       	ldi	r30, 0x3A	; 58
    1a42:	fd e0       	ldi	r31, 0x0D	; 13
    1a44:	a1 e3       	ldi	r26, 0x31	; 49
    1a46:	bd e0       	ldi	r27, 0x0D	; 13
    1a48:	82 e4       	ldi	r24, 0x42	; 66
    1a4a:	9d e0       	ldi	r25, 0x0D	; 13
    1a4c:	11 92       	st	Z+, r1
    1a4e:	1d 92       	st	X+, r1
    1a50:	e8 17       	cp	r30, r24
    1a52:	f9 07       	cpc	r31, r25
    1a54:	d9 f7       	brne	.-10     	; 0x1a4c <AddUser_Tick+0x86c>
    1a56:	8a e2       	ldi	r24, 0x2A	; 42
    1a58:	80 93 3a 0d 	sts	0x0D3A, r24	; 0x800d3a <user_password>
    1a5c:	10 92 31 0d 	sts	0x0D31, r1	; 0x800d31 <user_compare_password>
    1a60:	10 92 30 0d 	sts	0x0D30, r1	; 0x800d30 <password_size>
    1a64:	10 92 2f 0d 	sts	0x0D2F, r1	; 0x800d2f <keypad_character>
    1a68:	10 92 2e 0d 	sts	0x0D2E, r1	; 0x800d2e <previous_character>
    1a6c:	10 92 2d 0d 	sts	0x0D2D, r1	; 0x800d2d <password_attempt_fails>
    1a70:	10 92 2c 0d 	sts	0x0D2C, r1	; 0x800d2c <adding_user_finished>
    1a74:	0e 94 68 24 	call	0x48d0	; 0x48d0 <nokia_lcd_clear>
    1a78:	61 e0       	ldi	r22, 0x01	; 1
    1a7a:	82 e4       	ldi	r24, 0x42	; 66
    1a7c:	92 e0       	ldi	r25, 0x02	; 2
    1a7e:	0e 94 4e 25 	call	0x4a9c	; 0x4a9c <nokia_lcd_write_string>
    1a82:	6a e0       	ldi	r22, 0x0A	; 10
    1a84:	80 e0       	ldi	r24, 0x00	; 0
    1a86:	0e 94 60 25 	call	0x4ac0	; 0x4ac0 <nokia_lcd_set_cursor>
    1a8a:	61 e0       	ldi	r22, 0x01	; 1
    1a8c:	87 e0       	ldi	r24, 0x07	; 7
    1a8e:	91 e0       	ldi	r25, 0x01	; 1
    1a90:	0e 94 4e 25 	call	0x4a9c	; 0x4a9c <nokia_lcd_write_string>
    1a94:	0e 94 65 25 	call	0x4aca	; 0x4aca <nokia_lcd_render>
    1a98:	82 e0       	ldi	r24, 0x02	; 2
    1a9a:	80 93 e0 0f 	sts	0x0FE0, r24	; 0x800fe0 <adduser_state>
    1a9e:	82 c2       	rjmp	.+1284   	; 0x1fa4 <AddUser_Tick+0xdc4>
    1aa0:	0e 94 68 24 	call	0x48d0	; 0x48d0 <nokia_lcd_clear>
    1aa4:	61 e0       	ldi	r22, 0x01	; 1
    1aa6:	8b e8       	ldi	r24, 0x8B	; 139
    1aa8:	93 e0       	ldi	r25, 0x03	; 3
    1aaa:	0e 94 4e 25 	call	0x4a9c	; 0x4a9c <nokia_lcd_write_string>
    1aae:	0e 94 65 25 	call	0x4aca	; 0x4aca <nokia_lcd_render>
    1ab2:	81 e0       	ldi	r24, 0x01	; 1
    1ab4:	80 93 e0 0f 	sts	0x0FE0, r24	; 0x800fe0 <adduser_state>
    1ab8:	75 c2       	rjmp	.+1258   	; 0x1fa4 <AddUser_Tick+0xdc4>
    1aba:	80 91 2f 0d 	lds	r24, 0x0D2F	; 0x800d2f <keypad_character>
    1abe:	88 23       	and	r24, r24
    1ac0:	09 f4       	brne	.+2      	; 0x1ac4 <AddUser_Tick+0x8e4>
    1ac2:	70 c2       	rjmp	.+1248   	; 0x1fa4 <AddUser_Tick+0xdc4>
    1ac4:	10 92 71 0d 	sts	0x0D71, r1	; 0x800d71 <adding_user_flag>
    1ac8:	10 92 e0 0f 	sts	0x0FE0, r1	; 0x800fe0 <adduser_state>
    1acc:	6b c2       	rjmp	.+1238   	; 0x1fa4 <AddUser_Tick+0xdc4>
    1ace:	80 91 2f 0d 	lds	r24, 0x0D2F	; 0x800d2f <keypad_character>
    1ad2:	83 32       	cpi	r24, 0x23	; 35
    1ad4:	a1 f5       	brne	.+104    	; 0x1b3e <AddUser_Tick+0x95e>
    1ad6:	80 91 4a 0d 	lds	r24, 0x0D4A	; 0x800d4a <user_name_size>
    1ada:	88 23       	and	r24, r24
    1adc:	a1 f1       	breq	.+104    	; 0x1b46 <AddUser_Tick+0x966>
    1ade:	90 91 71 0d 	lds	r25, 0x0D71	; 0x800d71 <adding_user_flag>
    1ae2:	99 23       	and	r25, r25
    1ae4:	09 f4       	brne	.+2      	; 0x1ae8 <AddUser_Tick+0x908>
    1ae6:	3f c0       	rjmp	.+126    	; 0x1b66 <AddUser_Tick+0x986>
    1ae8:	e8 2f       	mov	r30, r24
    1aea:	f0 e0       	ldi	r31, 0x00	; 0
    1aec:	e9 5f       	subi	r30, 0xF9	; 249
    1aee:	fe 4f       	sbci	r31, 0xFE	; 254
    1af0:	10 82       	st	Z, r1
    1af2:	81 50       	subi	r24, 0x01	; 1
    1af4:	80 93 4a 0d 	sts	0x0D4A, r24	; 0x800d4a <user_name_size>
    1af8:	10 92 49 0d 	sts	0x0D49, r1	; 0x800d49 <user_weight+0x1>
    1afc:	10 92 48 0d 	sts	0x0D48, r1	; 0x800d48 <user_weight>
    1b00:	0e 94 68 24 	call	0x48d0	; 0x48d0 <nokia_lcd_clear>
    1b04:	61 e0       	ldi	r22, 0x01	; 1
    1b06:	8b e0       	ldi	r24, 0x0B	; 11
    1b08:	93 e0       	ldi	r25, 0x03	; 3
    1b0a:	0e 94 4e 25 	call	0x4a9c	; 0x4a9c <nokia_lcd_write_string>
    1b0e:	6a e0       	ldi	r22, 0x0A	; 10
    1b10:	80 e0       	ldi	r24, 0x00	; 0
    1b12:	0e 94 60 25 	call	0x4ac0	; 0x4ac0 <nokia_lcd_set_cursor>
    1b16:	61 e0       	ldi	r22, 0x01	; 1
    1b18:	86 e1       	ldi	r24, 0x16	; 22
    1b1a:	93 e0       	ldi	r25, 0x03	; 3
    1b1c:	0e 94 4e 25 	call	0x4a9c	; 0x4a9c <nokia_lcd_write_string>
    1b20:	64 e1       	ldi	r22, 0x14	; 20
    1b22:	80 e0       	ldi	r24, 0x00	; 0
    1b24:	0e 94 60 25 	call	0x4ac0	; 0x4ac0 <nokia_lcd_set_cursor>
    1b28:	61 e0       	ldi	r22, 0x01	; 1
    1b2a:	8c ef       	ldi	r24, 0xFC	; 252
    1b2c:	92 e0       	ldi	r25, 0x02	; 2
    1b2e:	0e 94 4e 25 	call	0x4a9c	; 0x4a9c <nokia_lcd_write_string>
    1b32:	0e 94 65 25 	call	0x4aca	; 0x4aca <nokia_lcd_render>
    1b36:	83 e0       	ldi	r24, 0x03	; 3
    1b38:	80 93 e0 0f 	sts	0x0FE0, r24	; 0x800fe0 <adduser_state>
    1b3c:	33 c2       	rjmp	.+1126   	; 0x1fa4 <AddUser_Tick+0xdc4>
    1b3e:	80 91 4a 0d 	lds	r24, 0x0D4A	; 0x800d4a <user_name_size>
    1b42:	81 11       	cpse	r24, r1
    1b44:	0c c0       	rjmp	.+24     	; 0x1b5e <AddUser_Tick+0x97e>
    1b46:	80 91 71 0d 	lds	r24, 0x0D71	; 0x800d71 <adding_user_flag>
    1b4a:	88 23       	and	r24, r24
    1b4c:	61 f0       	breq	.+24     	; 0x1b66 <AddUser_Tick+0x986>
    1b4e:	8c ef       	ldi	r24, 0xFC	; 252
    1b50:	92 e0       	ldi	r25, 0x02	; 2
    1b52:	0e 94 69 04 	call	0x8d2	; 0x8d2 <adduser_name_display>
    1b56:	82 e0       	ldi	r24, 0x02	; 2
    1b58:	80 93 e0 0f 	sts	0x0FE0, r24	; 0x800fe0 <adduser_state>
    1b5c:	23 c2       	rjmp	.+1094   	; 0x1fa4 <AddUser_Tick+0xdc4>
    1b5e:	80 91 71 0d 	lds	r24, 0x0D71	; 0x800d71 <adding_user_flag>
    1b62:	81 11       	cpse	r24, r1
    1b64:	1f c2       	rjmp	.+1086   	; 0x1fa4 <AddUser_Tick+0xdc4>
    1b66:	10 92 e0 0f 	sts	0x0FE0, r1	; 0x800fe0 <adduser_state>
    1b6a:	1c c2       	rjmp	.+1080   	; 0x1fa4 <AddUser_Tick+0xdc4>
    1b6c:	80 91 48 0d 	lds	r24, 0x0D48	; 0x800d48 <user_weight>
    1b70:	90 91 49 0d 	lds	r25, 0x0D49	; 0x800d49 <user_weight+0x1>
    1b74:	8b 35       	cpi	r24, 0x5B	; 91
    1b76:	91 05       	cpc	r25, r1
    1b78:	78 f1       	brcs	.+94     	; 0x1bd8 <AddUser_Tick+0x9f8>
    1b7a:	20 91 71 0d 	lds	r18, 0x0D71	; 0x800d71 <adding_user_flag>
    1b7e:	22 23       	and	r18, r18
    1b80:	09 f4       	brne	.+2      	; 0x1b84 <AddUser_Tick+0x9a4>
    1b82:	f9 c1       	rjmp	.+1010   	; 0x1f76 <AddUser_Tick+0xd96>
    1b84:	10 92 47 0d 	sts	0x0D47, r1	; 0x800d47 <user_gender>
    1b88:	0e 94 68 24 	call	0x48d0	; 0x48d0 <nokia_lcd_clear>
    1b8c:	61 e0       	ldi	r22, 0x01	; 1
    1b8e:	84 e2       	ldi	r24, 0x24	; 36
    1b90:	93 e0       	ldi	r25, 0x03	; 3
    1b92:	0e 94 4e 25 	call	0x4a9c	; 0x4a9c <nokia_lcd_write_string>
    1b96:	6a e0       	ldi	r22, 0x0A	; 10
    1b98:	80 e0       	ldi	r24, 0x00	; 0
    1b9a:	0e 94 60 25 	call	0x4ac0	; 0x4ac0 <nokia_lcd_set_cursor>
    1b9e:	61 e0       	ldi	r22, 0x01	; 1
    1ba0:	82 e3       	ldi	r24, 0x32	; 50
    1ba2:	93 e0       	ldi	r25, 0x03	; 3
    1ba4:	0e 94 4e 25 	call	0x4a9c	; 0x4a9c <nokia_lcd_write_string>
    1ba8:	64 e1       	ldi	r22, 0x14	; 20
    1baa:	80 e0       	ldi	r24, 0x00	; 0
    1bac:	0e 94 60 25 	call	0x4ac0	; 0x4ac0 <nokia_lcd_set_cursor>
    1bb0:	61 e0       	ldi	r22, 0x01	; 1
    1bb2:	8a e3       	ldi	r24, 0x3A	; 58
    1bb4:	93 e0       	ldi	r25, 0x03	; 3
    1bb6:	0e 94 4e 25 	call	0x4a9c	; 0x4a9c <nokia_lcd_write_string>
    1bba:	6e e1       	ldi	r22, 0x1E	; 30
    1bbc:	80 e0       	ldi	r24, 0x00	; 0
    1bbe:	0e 94 60 25 	call	0x4ac0	; 0x4ac0 <nokia_lcd_set_cursor>
    1bc2:	61 e0       	ldi	r22, 0x01	; 1
    1bc4:	8c ef       	ldi	r24, 0xFC	; 252
    1bc6:	92 e0       	ldi	r25, 0x02	; 2
    1bc8:	0e 94 4e 25 	call	0x4a9c	; 0x4a9c <nokia_lcd_write_string>
    1bcc:	0e 94 65 25 	call	0x4aca	; 0x4aca <nokia_lcd_render>
    1bd0:	84 e0       	ldi	r24, 0x04	; 4
    1bd2:	80 93 e0 0f 	sts	0x0FE0, r24	; 0x800fe0 <adduser_state>
    1bd6:	e6 c1       	rjmp	.+972    	; 0x1fa4 <AddUser_Tick+0xdc4>
    1bd8:	8a 35       	cpi	r24, 0x5A	; 90
    1bda:	91 05       	cpc	r25, r1
    1bdc:	60 f4       	brcc	.+24     	; 0x1bf6 <AddUser_Tick+0xa16>
    1bde:	80 91 71 0d 	lds	r24, 0x0D71	; 0x800d71 <adding_user_flag>
    1be2:	88 23       	and	r24, r24
    1be4:	61 f0       	breq	.+24     	; 0x1bfe <AddUser_Tick+0xa1e>
    1be6:	10 92 49 0d 	sts	0x0D49, r1	; 0x800d49 <user_weight+0x1>
    1bea:	10 92 48 0d 	sts	0x0D48, r1	; 0x800d48 <user_weight>
    1bee:	83 e0       	ldi	r24, 0x03	; 3
    1bf0:	80 93 e0 0f 	sts	0x0FE0, r24	; 0x800fe0 <adduser_state>
    1bf4:	d7 c1       	rjmp	.+942    	; 0x1fa4 <AddUser_Tick+0xdc4>
    1bf6:	80 91 71 0d 	lds	r24, 0x0D71	; 0x800d71 <adding_user_flag>
    1bfa:	81 11       	cpse	r24, r1
    1bfc:	d3 c1       	rjmp	.+934    	; 0x1fa4 <AddUser_Tick+0xdc4>
    1bfe:	10 92 e0 0f 	sts	0x0FE0, r1	; 0x800fe0 <adduser_state>
    1c02:	d0 c1       	rjmp	.+928    	; 0x1fa4 <AddUser_Tick+0xdc4>
    1c04:	80 91 47 0d 	lds	r24, 0x0D47	; 0x800d47 <user_gender>
    1c08:	88 23       	and	r24, r24
    1c0a:	e9 f0       	breq	.+58     	; 0x1c46 <AddUser_Tick+0xa66>
    1c0c:	80 91 71 0d 	lds	r24, 0x0D71	; 0x800d71 <adding_user_flag>
    1c10:	88 23       	and	r24, r24
    1c12:	e9 f0       	breq	.+58     	; 0x1c4e <AddUser_Tick+0xa6e>
    1c14:	81 e0       	ldi	r24, 0x01	; 1
    1c16:	80 93 63 0d 	sts	0x0D63, r24	; 0x800d63 <key_door_signal>
    1c1a:	28 9a       	sbi	0x05, 0	; 5
    1c1c:	0e 94 68 24 	call	0x48d0	; 0x48d0 <nokia_lcd_clear>
    1c20:	61 e0       	ldi	r22, 0x01	; 1
    1c22:	8e ea       	ldi	r24, 0xAE	; 174
    1c24:	93 e0       	ldi	r25, 0x03	; 3
    1c26:	0e 94 4e 25 	call	0x4a9c	; 0x4a9c <nokia_lcd_write_string>
    1c2a:	0e 94 65 25 	call	0x4aca	; 0x4aca <nokia_lcd_render>
    1c2e:	10 92 43 0d 	sts	0x0D43, r1	; 0x800d43 <user_key>
    1c32:	10 92 44 0d 	sts	0x0D44, r1	; 0x800d44 <user_key+0x1>
    1c36:	10 92 45 0d 	sts	0x0D45, r1	; 0x800d45 <user_key+0x2>
    1c3a:	10 92 46 0d 	sts	0x0D46, r1	; 0x800d46 <user_key+0x3>
    1c3e:	85 e0       	ldi	r24, 0x05	; 5
    1c40:	80 93 e0 0f 	sts	0x0FE0, r24	; 0x800fe0 <adduser_state>
    1c44:	af c1       	rjmp	.+862    	; 0x1fa4 <AddUser_Tick+0xdc4>
    1c46:	80 91 71 0d 	lds	r24, 0x0D71	; 0x800d71 <adding_user_flag>
    1c4a:	81 11       	cpse	r24, r1
    1c4c:	ab c1       	rjmp	.+854    	; 0x1fa4 <AddUser_Tick+0xdc4>
    1c4e:	10 92 e0 0f 	sts	0x0FE0, r1	; 0x800fe0 <adduser_state>
    1c52:	a8 c1       	rjmp	.+848    	; 0x1fa4 <AddUser_Tick+0xdc4>
    1c54:	80 91 43 0d 	lds	r24, 0x0D43	; 0x800d43 <user_key>
    1c58:	90 91 44 0d 	lds	r25, 0x0D44	; 0x800d44 <user_key+0x1>
    1c5c:	a0 91 45 0d 	lds	r26, 0x0D45	; 0x800d45 <user_key+0x2>
    1c60:	b0 91 46 0d 	lds	r27, 0x0D46	; 0x800d46 <user_key+0x3>
    1c64:	18 16       	cp	r1, r24
    1c66:	19 06       	cpc	r1, r25
    1c68:	1a 06       	cpc	r1, r26
    1c6a:	1b 06       	cpc	r1, r27
    1c6c:	8c f5       	brge	.+98     	; 0x1cd0 <AddUser_Tick+0xaf0>
    1c6e:	20 91 71 0d 	lds	r18, 0x0D71	; 0x800d71 <adding_user_flag>
    1c72:	22 23       	and	r18, r18
    1c74:	09 f4       	brne	.+2      	; 0x1c78 <AddUser_Tick+0xa98>
    1c76:	84 c1       	rjmp	.+776    	; 0x1f80 <AddUser_Tick+0xda0>
    1c78:	10 92 30 0d 	sts	0x0D30, r1	; 0x800d30 <password_size>
    1c7c:	ea e3       	ldi	r30, 0x3A	; 58
    1c7e:	fd e0       	ldi	r31, 0x0D	; 13
    1c80:	82 e4       	ldi	r24, 0x42	; 66
    1c82:	9d e0       	ldi	r25, 0x0D	; 13
    1c84:	11 92       	st	Z+, r1
    1c86:	8e 17       	cp	r24, r30
    1c88:	9f 07       	cpc	r25, r31
    1c8a:	e1 f7       	brne	.-8      	; 0x1c84 <AddUser_Tick+0xaa4>
    1c8c:	8a e2       	ldi	r24, 0x2A	; 42
    1c8e:	80 93 3a 0d 	sts	0x0D3A, r24	; 0x800d3a <user_password>
    1c92:	0e 94 68 24 	call	0x48d0	; 0x48d0 <nokia_lcd_clear>
    1c96:	61 e0       	ldi	r22, 0x01	; 1
    1c98:	81 e7       	ldi	r24, 0x71	; 113
    1c9a:	93 e0       	ldi	r25, 0x03	; 3
    1c9c:	0e 94 4e 25 	call	0x4a9c	; 0x4a9c <nokia_lcd_write_string>
    1ca0:	6a e0       	ldi	r22, 0x0A	; 10
    1ca2:	80 e0       	ldi	r24, 0x00	; 0
    1ca4:	0e 94 60 25 	call	0x4ac0	; 0x4ac0 <nokia_lcd_set_cursor>
    1ca8:	61 e0       	ldi	r22, 0x01	; 1
    1caa:	88 e7       	ldi	r24, 0x78	; 120
    1cac:	93 e0       	ldi	r25, 0x03	; 3
    1cae:	0e 94 4e 25 	call	0x4a9c	; 0x4a9c <nokia_lcd_write_string>
    1cb2:	64 e1       	ldi	r22, 0x14	; 20
    1cb4:	80 e0       	ldi	r24, 0x00	; 0
    1cb6:	0e 94 60 25 	call	0x4ac0	; 0x4ac0 <nokia_lcd_set_cursor>
    1cba:	61 e0       	ldi	r22, 0x01	; 1
    1cbc:	8c eb       	ldi	r24, 0xBC	; 188
    1cbe:	93 e0       	ldi	r25, 0x03	; 3
    1cc0:	0e 94 4e 25 	call	0x4a9c	; 0x4a9c <nokia_lcd_write_string>
    1cc4:	0e 94 65 25 	call	0x4aca	; 0x4aca <nokia_lcd_render>
    1cc8:	86 e0       	ldi	r24, 0x06	; 6
    1cca:	80 93 e0 0f 	sts	0x0FE0, r24	; 0x800fe0 <adduser_state>
    1cce:	6a c1       	rjmp	.+724    	; 0x1fa4 <AddUser_Tick+0xdc4>
    1cd0:	89 2b       	or	r24, r25
    1cd2:	8a 2b       	or	r24, r26
    1cd4:	8b 2b       	or	r24, r27
    1cd6:	29 f4       	brne	.+10     	; 0x1ce2 <AddUser_Tick+0xb02>
    1cd8:	80 91 71 0d 	lds	r24, 0x0D71	; 0x800d71 <adding_user_flag>
    1cdc:	81 11       	cpse	r24, r1
    1cde:	62 c1       	rjmp	.+708    	; 0x1fa4 <AddUser_Tick+0xdc4>
    1ce0:	04 c0       	rjmp	.+8      	; 0x1cea <AddUser_Tick+0xb0a>
    1ce2:	80 91 71 0d 	lds	r24, 0x0D71	; 0x800d71 <adding_user_flag>
    1ce6:	81 11       	cpse	r24, r1
    1ce8:	5d c1       	rjmp	.+698    	; 0x1fa4 <AddUser_Tick+0xdc4>
    1cea:	10 92 e0 0f 	sts	0x0FE0, r1	; 0x800fe0 <adduser_state>
    1cee:	5a c1       	rjmp	.+692    	; 0x1fa4 <AddUser_Tick+0xdc4>
    1cf0:	80 91 30 0d 	lds	r24, 0x0D30	; 0x800d30 <password_size>
    1cf4:	88 30       	cpi	r24, 0x08	; 8
    1cf6:	e1 f5       	brne	.+120    	; 0x1d70 <AddUser_Tick+0xb90>
    1cf8:	80 91 71 0d 	lds	r24, 0x0D71	; 0x800d71 <adding_user_flag>
    1cfc:	88 23       	and	r24, r24
    1cfe:	e1 f1       	breq	.+120    	; 0x1d78 <AddUser_Tick+0xb98>
    1d00:	0e 94 68 24 	call	0x48d0	; 0x48d0 <nokia_lcd_clear>
    1d04:	61 e0       	ldi	r22, 0x01	; 1
    1d06:	86 e7       	ldi	r24, 0x76	; 118
    1d08:	94 e0       	ldi	r25, 0x04	; 4
    1d0a:	0e 94 4e 25 	call	0x4a9c	; 0x4a9c <nokia_lcd_write_string>
    1d0e:	6a e0       	ldi	r22, 0x0A	; 10
    1d10:	80 e0       	ldi	r24, 0x00	; 0
    1d12:	0e 94 60 25 	call	0x4ac0	; 0x4ac0 <nokia_lcd_set_cursor>
    1d16:	61 e0       	ldi	r22, 0x01	; 1
    1d18:	8e eb       	ldi	r24, 0xBE	; 190
    1d1a:	93 e0       	ldi	r25, 0x03	; 3
    1d1c:	0e 94 4e 25 	call	0x4a9c	; 0x4a9c <nokia_lcd_write_string>
    1d20:	6a e0       	ldi	r22, 0x0A	; 10
    1d22:	8c e3       	ldi	r24, 0x3C	; 60
    1d24:	0e 94 60 25 	call	0x4ac0	; 0x4ac0 <nokia_lcd_set_cursor>
    1d28:	80 91 2d 0d 	lds	r24, 0x0D2D	; 0x800d2d <password_attempt_fails>
    1d2c:	61 e0       	ldi	r22, 0x01	; 1
    1d2e:	80 5d       	subi	r24, 0xD0	; 208
    1d30:	0e 94 a4 24 	call	0x4948	; 0x4948 <nokia_lcd_write_char>
    1d34:	64 e1       	ldi	r22, 0x14	; 20
    1d36:	80 e0       	ldi	r24, 0x00	; 0
    1d38:	0e 94 60 25 	call	0x4ac0	; 0x4ac0 <nokia_lcd_set_cursor>
    1d3c:	61 e0       	ldi	r22, 0x01	; 1
    1d3e:	8c eb       	ldi	r24, 0xBC	; 188
    1d40:	93 e0       	ldi	r25, 0x03	; 3
    1d42:	0e 94 4e 25 	call	0x4a9c	; 0x4a9c <nokia_lcd_write_string>
    1d46:	0e 94 65 25 	call	0x4aca	; 0x4aca <nokia_lcd_render>
    1d4a:	10 92 30 0d 	sts	0x0D30, r1	; 0x800d30 <password_size>
    1d4e:	10 92 2d 0d 	sts	0x0D2D, r1	; 0x800d2d <password_attempt_fails>
    1d52:	e1 e3       	ldi	r30, 0x31	; 49
    1d54:	fd e0       	ldi	r31, 0x0D	; 13
    1d56:	89 e3       	ldi	r24, 0x39	; 57
    1d58:	9d e0       	ldi	r25, 0x0D	; 13
    1d5a:	11 92       	st	Z+, r1
    1d5c:	8e 17       	cp	r24, r30
    1d5e:	9f 07       	cpc	r25, r31
    1d60:	e1 f7       	brne	.-8      	; 0x1d5a <AddUser_Tick+0xb7a>
    1d62:	8a e2       	ldi	r24, 0x2A	; 42
    1d64:	80 93 31 0d 	sts	0x0D31, r24	; 0x800d31 <user_compare_password>
    1d68:	87 e0       	ldi	r24, 0x07	; 7
    1d6a:	80 93 e0 0f 	sts	0x0FE0, r24	; 0x800fe0 <adduser_state>
    1d6e:	1a c1       	rjmp	.+564    	; 0x1fa4 <AddUser_Tick+0xdc4>
    1d70:	80 91 71 0d 	lds	r24, 0x0D71	; 0x800d71 <adding_user_flag>
    1d74:	81 11       	cpse	r24, r1
    1d76:	16 c1       	rjmp	.+556    	; 0x1fa4 <AddUser_Tick+0xdc4>
    1d78:	10 92 e0 0f 	sts	0x0FE0, r1	; 0x800fe0 <adduser_state>
    1d7c:	13 c1       	rjmp	.+550    	; 0x1fa4 <AddUser_Tick+0xdc4>
    1d7e:	80 91 2d 0d 	lds	r24, 0x0D2D	; 0x800d2d <password_attempt_fails>
    1d82:	81 11       	cpse	r24, r1
    1d84:	3c c0       	rjmp	.+120    	; 0x1dfe <AddUser_Tick+0xc1e>
    1d86:	80 91 71 0d 	lds	r24, 0x0D71	; 0x800d71 <adding_user_flag>
    1d8a:	88 23       	and	r24, r24
    1d8c:	09 f4       	brne	.+2      	; 0x1d90 <AddUser_Tick+0xbb0>
    1d8e:	ab c0       	rjmp	.+342    	; 0x1ee6 <AddUser_Tick+0xd06>
    1d90:	0e 94 68 24 	call	0x48d0	; 0x48d0 <nokia_lcd_clear>
    1d94:	61 e0       	ldi	r22, 0x01	; 1
    1d96:	87 e0       	ldi	r24, 0x07	; 7
    1d98:	91 e0       	ldi	r25, 0x01	; 1
    1d9a:	0e 94 4e 25 	call	0x4a9c	; 0x4a9c <nokia_lcd_write_string>
    1d9e:	6a e0       	ldi	r22, 0x0A	; 10
    1da0:	80 e0       	ldi	r24, 0x00	; 0
    1da2:	0e 94 60 25 	call	0x4ac0	; 0x4ac0 <nokia_lcd_set_cursor>
    1da6:	61 e0       	ldi	r22, 0x01	; 1
    1da8:	82 e0       	ldi	r24, 0x02	; 2
    1daa:	91 e0       	ldi	r25, 0x01	; 1
    1dac:	0e 94 4e 25 	call	0x4a9c	; 0x4a9c <nokia_lcd_write_string>
    1db0:	6a e0       	ldi	r22, 0x0A	; 10
    1db2:	84 e1       	ldi	r24, 0x14	; 20
    1db4:	0e 94 60 25 	call	0x4ac0	; 0x4ac0 <nokia_lcd_set_cursor>
    1db8:	61 e0       	ldi	r22, 0x01	; 1
    1dba:	80 e2       	ldi	r24, 0x20	; 32
    1dbc:	93 e0       	ldi	r25, 0x03	; 3
    1dbe:	0e 94 4e 25 	call	0x4a9c	; 0x4a9c <nokia_lcd_write_string>
    1dc2:	64 e1       	ldi	r22, 0x14	; 20
    1dc4:	80 e0       	ldi	r24, 0x00	; 0
    1dc6:	0e 94 60 25 	call	0x4ac0	; 0x4ac0 <nokia_lcd_set_cursor>
    1dca:	80 91 47 0d 	lds	r24, 0x0D47	; 0x800d47 <user_gender>
    1dce:	81 30       	cpi	r24, 0x01	; 1
    1dd0:	31 f4       	brne	.+12     	; 0x1dde <AddUser_Tick+0xbfe>
    1dd2:	61 e0       	ldi	r22, 0x01	; 1
    1dd4:	85 e3       	ldi	r24, 0x35	; 53
    1dd6:	93 e0       	ldi	r25, 0x03	; 3
    1dd8:	0e 94 4e 25 	call	0x4a9c	; 0x4a9c <nokia_lcd_write_string>
    1ddc:	07 c0       	rjmp	.+14     	; 0x1dec <AddUser_Tick+0xc0c>
    1dde:	82 30       	cpi	r24, 0x02	; 2
    1de0:	29 f4       	brne	.+10     	; 0x1dec <AddUser_Tick+0xc0c>
    1de2:	61 e0       	ldi	r22, 0x01	; 1
    1de4:	8d e3       	ldi	r24, 0x3D	; 61
    1de6:	93 e0       	ldi	r25, 0x03	; 3
    1de8:	0e 94 4e 25 	call	0x4a9c	; 0x4a9c <nokia_lcd_write_string>
    1dec:	0e 94 65 25 	call	0x4aca	; 0x4aca <nokia_lcd_render>
    1df0:	81 e0       	ldi	r24, 0x01	; 1
    1df2:	80 93 2c 0d 	sts	0x0D2C, r24	; 0x800d2c <adding_user_finished>
    1df6:	88 e0       	ldi	r24, 0x08	; 8
    1df8:	80 93 e0 0f 	sts	0x0FE0, r24	; 0x800fe0 <adduser_state>
    1dfc:	d3 c0       	rjmp	.+422    	; 0x1fa4 <AddUser_Tick+0xdc4>
    1dfe:	83 30       	cpi	r24, 0x03	; 3
    1e00:	c1 f5       	brne	.+112    	; 0x1e72 <AddUser_Tick+0xc92>
    1e02:	80 91 71 0d 	lds	r24, 0x0D71	; 0x800d71 <adding_user_flag>
    1e06:	88 23       	and	r24, r24
    1e08:	09 f4       	brne	.+2      	; 0x1e0c <AddUser_Tick+0xc2c>
    1e0a:	6d c0       	rjmp	.+218    	; 0x1ee6 <AddUser_Tick+0xd06>
    1e0c:	0e 94 68 24 	call	0x48d0	; 0x48d0 <nokia_lcd_clear>
    1e10:	61 e0       	ldi	r22, 0x01	; 1
    1e12:	81 e7       	ldi	r24, 0x71	; 113
    1e14:	93 e0       	ldi	r25, 0x03	; 3
    1e16:	0e 94 4e 25 	call	0x4a9c	; 0x4a9c <nokia_lcd_write_string>
    1e1a:	6a e0       	ldi	r22, 0x0A	; 10
    1e1c:	80 e0       	ldi	r24, 0x00	; 0
    1e1e:	0e 94 60 25 	call	0x4ac0	; 0x4ac0 <nokia_lcd_set_cursor>
    1e22:	61 e0       	ldi	r22, 0x01	; 1
    1e24:	88 e7       	ldi	r24, 0x78	; 120
    1e26:	93 e0       	ldi	r25, 0x03	; 3
    1e28:	0e 94 4e 25 	call	0x4a9c	; 0x4a9c <nokia_lcd_write_string>
    1e2c:	64 e1       	ldi	r22, 0x14	; 20
    1e2e:	80 e0       	ldi	r24, 0x00	; 0
    1e30:	0e 94 60 25 	call	0x4ac0	; 0x4ac0 <nokia_lcd_set_cursor>
    1e34:	61 e0       	ldi	r22, 0x01	; 1
    1e36:	8c eb       	ldi	r24, 0xBC	; 188
    1e38:	93 e0       	ldi	r25, 0x03	; 3
    1e3a:	0e 94 4e 25 	call	0x4a9c	; 0x4a9c <nokia_lcd_write_string>
    1e3e:	0e 94 65 25 	call	0x4aca	; 0x4aca <nokia_lcd_render>
    1e42:	10 92 2d 0d 	sts	0x0D2D, r1	; 0x800d2d <password_attempt_fails>
    1e46:	10 92 30 0d 	sts	0x0D30, r1	; 0x800d30 <password_size>
    1e4a:	ea e3       	ldi	r30, 0x3A	; 58
    1e4c:	fd e0       	ldi	r31, 0x0D	; 13
    1e4e:	a1 e3       	ldi	r26, 0x31	; 49
    1e50:	bd e0       	ldi	r27, 0x0D	; 13
    1e52:	82 e4       	ldi	r24, 0x42	; 66
    1e54:	9d e0       	ldi	r25, 0x0D	; 13
    1e56:	11 92       	st	Z+, r1
    1e58:	1d 92       	st	X+, r1
    1e5a:	8e 17       	cp	r24, r30
    1e5c:	9f 07       	cpc	r25, r31
    1e5e:	d9 f7       	brne	.-10     	; 0x1e56 <AddUser_Tick+0xc76>
    1e60:	8a e2       	ldi	r24, 0x2A	; 42
    1e62:	80 93 3a 0d 	sts	0x0D3A, r24	; 0x800d3a <user_password>
    1e66:	10 92 31 0d 	sts	0x0D31, r1	; 0x800d31 <user_compare_password>
    1e6a:	86 e0       	ldi	r24, 0x06	; 6
    1e6c:	80 93 e0 0f 	sts	0x0FE0, r24	; 0x800fe0 <adduser_state>
    1e70:	99 c0       	rjmp	.+306    	; 0x1fa4 <AddUser_Tick+0xdc4>
    1e72:	80 91 71 0d 	lds	r24, 0x0D71	; 0x800d71 <adding_user_flag>
    1e76:	88 23       	and	r24, r24
    1e78:	b1 f1       	breq	.+108    	; 0x1ee6 <AddUser_Tick+0xd06>
    1e7a:	0e 94 68 24 	call	0x48d0	; 0x48d0 <nokia_lcd_clear>
    1e7e:	61 e0       	ldi	r22, 0x01	; 1
    1e80:	86 e7       	ldi	r24, 0x76	; 118
    1e82:	94 e0       	ldi	r25, 0x04	; 4
    1e84:	0e 94 4e 25 	call	0x4a9c	; 0x4a9c <nokia_lcd_write_string>
    1e88:	6a e0       	ldi	r22, 0x0A	; 10
    1e8a:	80 e0       	ldi	r24, 0x00	; 0
    1e8c:	0e 94 60 25 	call	0x4ac0	; 0x4ac0 <nokia_lcd_set_cursor>
    1e90:	61 e0       	ldi	r22, 0x01	; 1
    1e92:	8e eb       	ldi	r24, 0xBE	; 190
    1e94:	93 e0       	ldi	r25, 0x03	; 3
    1e96:	0e 94 4e 25 	call	0x4a9c	; 0x4a9c <nokia_lcd_write_string>
    1e9a:	6a e0       	ldi	r22, 0x0A	; 10
    1e9c:	8c e3       	ldi	r24, 0x3C	; 60
    1e9e:	0e 94 60 25 	call	0x4ac0	; 0x4ac0 <nokia_lcd_set_cursor>
    1ea2:	80 91 2d 0d 	lds	r24, 0x0D2D	; 0x800d2d <password_attempt_fails>
    1ea6:	61 e0       	ldi	r22, 0x01	; 1
    1ea8:	80 5d       	subi	r24, 0xD0	; 208
    1eaa:	0e 94 a4 24 	call	0x4948	; 0x4948 <nokia_lcd_write_char>
    1eae:	64 e1       	ldi	r22, 0x14	; 20
    1eb0:	80 e0       	ldi	r24, 0x00	; 0
    1eb2:	0e 94 60 25 	call	0x4ac0	; 0x4ac0 <nokia_lcd_set_cursor>
    1eb6:	61 e0       	ldi	r22, 0x01	; 1
    1eb8:	8c eb       	ldi	r24, 0xBC	; 188
    1eba:	93 e0       	ldi	r25, 0x03	; 3
    1ebc:	0e 94 4e 25 	call	0x4a9c	; 0x4a9c <nokia_lcd_write_string>
    1ec0:	0e 94 65 25 	call	0x4aca	; 0x4aca <nokia_lcd_render>
    1ec4:	10 92 30 0d 	sts	0x0D30, r1	; 0x800d30 <password_size>
    1ec8:	e1 e3       	ldi	r30, 0x31	; 49
    1eca:	fd e0       	ldi	r31, 0x0D	; 13
    1ecc:	89 e3       	ldi	r24, 0x39	; 57
    1ece:	9d e0       	ldi	r25, 0x0D	; 13
    1ed0:	11 92       	st	Z+, r1
    1ed2:	e8 17       	cp	r30, r24
    1ed4:	f9 07       	cpc	r31, r25
    1ed6:	e1 f7       	brne	.-8      	; 0x1ed0 <AddUser_Tick+0xcf0>
    1ed8:	8a e2       	ldi	r24, 0x2A	; 42
    1eda:	80 93 31 0d 	sts	0x0D31, r24	; 0x800d31 <user_compare_password>
    1ede:	87 e0       	ldi	r24, 0x07	; 7
    1ee0:	80 93 e0 0f 	sts	0x0FE0, r24	; 0x800fe0 <adduser_state>
    1ee4:	5f c0       	rjmp	.+190    	; 0x1fa4 <AddUser_Tick+0xdc4>
    1ee6:	10 92 e0 0f 	sts	0x0FE0, r1	; 0x800fe0 <adduser_state>
    1eea:	5c c0       	rjmp	.+184    	; 0x1fa4 <AddUser_Tick+0xdc4>
    1eec:	80 91 2c 0d 	lds	r24, 0x0D2C	; 0x800d2c <adding_user_finished>
    1ef0:	88 23       	and	r24, r24
    1ef2:	09 f4       	brne	.+2      	; 0x1ef6 <AddUser_Tick+0xd16>
    1ef4:	57 c0       	rjmp	.+174    	; 0x1fa4 <AddUser_Tick+0xdc4>
    1ef6:	10 92 2c 0d 	sts	0x0D2C, r1	; 0x800d2c <adding_user_finished>
    1efa:	10 92 71 0d 	sts	0x0D71, r1	; 0x800d71 <adding_user_flag>
    1efe:	c0 91 6b 0d 	lds	r28, 0x0D6B	; 0x800d6b <number_of_users>
    1f02:	fe e1       	ldi	r31, 0x1E	; 30
    1f04:	cf 9f       	mul	r28, r31
    1f06:	70 01       	movw	r14, r0
    1f08:	11 24       	eor	r1, r1
    1f0a:	87 01       	movw	r16, r14
    1f0c:	0a 5a       	subi	r16, 0xAA	; 170
    1f0e:	1e 4f       	sbci	r17, 0xFE	; 254
    1f10:	4e e0       	ldi	r20, 0x0E	; 14
    1f12:	50 e0       	ldi	r21, 0x00	; 0
    1f14:	67 e0       	ldi	r22, 0x07	; 7
    1f16:	71 e0       	ldi	r23, 0x01	; 1
    1f18:	c8 01       	movw	r24, r16
    1f1a:	0e 94 d9 2c 	call	0x59b2	; 0x59b2 <strncpy>
    1f1e:	49 e0       	ldi	r20, 0x09	; 9
    1f20:	50 e0       	ldi	r21, 0x00	; 0
    1f22:	6a e3       	ldi	r22, 0x3A	; 58
    1f24:	7d e0       	ldi	r23, 0x0D	; 13
    1f26:	c7 01       	movw	r24, r14
    1f28:	85 59       	subi	r24, 0x95	; 149
    1f2a:	9e 4f       	sbci	r25, 0xFE	; 254
    1f2c:	0e 94 d9 2c 	call	0x59b2	; 0x59b2 <strncpy>
    1f30:	80 91 47 0d 	lds	r24, 0x0D47	; 0x800d47 <user_gender>
    1f34:	f8 01       	movw	r30, r16
    1f36:	80 8b       	std	Z+16, r24	; 0x10
    1f38:	80 91 48 0d 	lds	r24, 0x0D48	; 0x800d48 <user_weight>
    1f3c:	90 91 49 0d 	lds	r25, 0x0D49	; 0x800d49 <user_weight+0x1>
    1f40:	97 87       	std	Z+15, r25	; 0x0f
    1f42:	86 87       	std	Z+14, r24	; 0x0e
    1f44:	80 91 43 0d 	lds	r24, 0x0D43	; 0x800d43 <user_key>
    1f48:	90 91 44 0d 	lds	r25, 0x0D44	; 0x800d44 <user_key+0x1>
    1f4c:	a0 91 45 0d 	lds	r26, 0x0D45	; 0x800d45 <user_key+0x2>
    1f50:	b0 91 46 0d 	lds	r27, 0x0D46	; 0x800d46 <user_key+0x3>
    1f54:	81 8b       	std	Z+17, r24	; 0x11
    1f56:	92 8b       	std	Z+18, r25	; 0x12
    1f58:	a3 8b       	std	Z+19, r26	; 0x13
    1f5a:	b4 8b       	std	Z+20, r27	; 0x14
    1f5c:	cf 5f       	subi	r28, 0xFF	; 255
    1f5e:	c0 93 6b 0d 	sts	0x0D6B, r28	; 0x800d6b <number_of_users>
    1f62:	10 92 63 0d 	sts	0x0D63, r1	; 0x800d63 <key_door_signal>
    1f66:	28 98       	cbi	0x05, 0	; 5
    1f68:	10 92 e0 0f 	sts	0x0FE0, r1	; 0x800fe0 <adduser_state>
    1f6c:	1b c0       	rjmp	.+54     	; 0x1fa4 <AddUser_Tick+0xdc4>
    1f6e:	82 e0       	ldi	r24, 0x02	; 2
    1f70:	80 93 e0 0f 	sts	0x0FE0, r24	; 0x800fe0 <adduser_state>
    1f74:	17 c0       	rjmp	.+46     	; 0x1fa4 <AddUser_Tick+0xdc4>
    1f76:	8a 35       	cpi	r24, 0x5A	; 90
    1f78:	91 05       	cpc	r25, r1
    1f7a:	08 f4       	brcc	.+2      	; 0x1f7e <AddUser_Tick+0xd9e>
    1f7c:	40 ce       	rjmp	.-896    	; 0x1bfe <AddUser_Tick+0xa1e>
    1f7e:	3b ce       	rjmp	.-906    	; 0x1bf6 <AddUser_Tick+0xa16>
    1f80:	89 2b       	or	r24, r25
    1f82:	8a 2b       	or	r24, r26
    1f84:	8b 2b       	or	r24, r27
    1f86:	09 f4       	brne	.+2      	; 0x1f8a <AddUser_Tick+0xdaa>
    1f88:	b0 ce       	rjmp	.-672    	; 0x1cea <AddUser_Tick+0xb0a>
    1f8a:	ab ce       	rjmp	.-682    	; 0x1ce2 <AddUser_Tick+0xb02>
    1f8c:	e0 91 e0 0f 	lds	r30, 0x0FE0	; 0x800fe0 <adduser_state>
    1f90:	8e 2f       	mov	r24, r30
    1f92:	90 e0       	ldi	r25, 0x00	; 0
    1f94:	89 30       	cpi	r24, 0x09	; 9
    1f96:	91 05       	cpc	r25, r1
    1f98:	50 f7       	brcc	.-44     	; 0x1f6e <AddUser_Tick+0xd8e>
    1f9a:	fc 01       	movw	r30, r24
    1f9c:	e9 58       	subi	r30, 0x89	; 137
    1f9e:	ff 4f       	sbci	r31, 0xFF	; 255
    1fa0:	0c 94 ba 2c 	jmp	0x5974	; 0x5974 <__tablejump2__>
    1fa4:	df 91       	pop	r29
    1fa6:	cf 91       	pop	r28
    1fa8:	1f 91       	pop	r17
    1faa:	0f 91       	pop	r16
    1fac:	ff 90       	pop	r15
    1fae:	ef 90       	pop	r14
    1fb0:	df 90       	pop	r13
    1fb2:	cf 90       	pop	r12
    1fb4:	08 95       	ret

00001fb6 <AddUserTask>:
    1fb6:	10 92 e0 0f 	sts	0x0FE0, r1	; 0x800fe0 <adduser_state>
    1fba:	12 d9       	rcall	.-3548   	; 0x11e0 <AddUser_Tick>
    1fbc:	84 e6       	ldi	r24, 0x64	; 100
    1fbe:	90 e0       	ldi	r25, 0x00	; 0
    1fc0:	0e 94 84 29 	call	0x5308	; 0x5308 <vTaskDelay>
    1fc4:	fa cf       	rjmp	.-12     	; 0x1fba <AddUserTask+0x4>

00001fc6 <AddUserPulse>:
    1fc6:	af 92       	push	r10
    1fc8:	bf 92       	push	r11
    1fca:	cf 92       	push	r12
    1fcc:	df 92       	push	r13
    1fce:	ef 92       	push	r14
    1fd0:	ff 92       	push	r15
    1fd2:	0f 93       	push	r16
    1fd4:	a1 2c       	mov	r10, r1
    1fd6:	b1 2c       	mov	r11, r1
    1fd8:	c1 2c       	mov	r12, r1
    1fda:	d1 2c       	mov	r13, r1
    1fdc:	e1 2c       	mov	r14, r1
    1fde:	f1 2c       	mov	r15, r1
    1fe0:	08 2f       	mov	r16, r24
    1fe2:	20 e0       	ldi	r18, 0x00	; 0
    1fe4:	30 e0       	ldi	r19, 0x00	; 0
    1fe6:	45 e5       	ldi	r20, 0x55	; 85
    1fe8:	50 e0       	ldi	r21, 0x00	; 0
    1fea:	69 ec       	ldi	r22, 0xC9	; 201
    1fec:	73 e0       	ldi	r23, 0x03	; 3
    1fee:	8b ed       	ldi	r24, 0xDB	; 219
    1ff0:	9f e0       	ldi	r25, 0x0F	; 15
    1ff2:	0e 94 0c 27 	call	0x4e18	; 0x4e18 <xTaskGenericCreate>
    1ff6:	0f 91       	pop	r16
    1ff8:	ff 90       	pop	r15
    1ffa:	ef 90       	pop	r14
    1ffc:	df 90       	pop	r13
    1ffe:	cf 90       	pop	r12
    2000:	bf 90       	pop	r11
    2002:	af 90       	pop	r10
    2004:	08 95       	ret

00002006 <swap_users>:
    2006:	af 92       	push	r10
    2008:	bf 92       	push	r11
    200a:	cf 92       	push	r12
    200c:	df 92       	push	r13
    200e:	ef 92       	push	r14
    2010:	ff 92       	push	r15
    2012:	0f 93       	push	r16
    2014:	1f 93       	push	r17
    2016:	cf 93       	push	r28
    2018:	df 93       	push	r29
    201a:	cd b7       	in	r28, 0x3d	; 61
    201c:	de b7       	in	r29, 0x3e	; 62
    201e:	67 97       	sbiw	r28, 0x17	; 23
    2020:	0f b6       	in	r0, 0x3f	; 63
    2022:	f8 94       	cli
    2024:	de bf       	out	0x3e, r29	; 62
    2026:	0f be       	out	0x3f, r0	; 63
    2028:	cd bf       	out	0x3d, r28	; 61
    202a:	c6 2e       	mov	r12, r22
    202c:	20 e2       	ldi	r18, 0x20	; 32
    202e:	30 e0       	ldi	r19, 0x00	; 0
    2030:	3a 83       	std	Y+2, r19	; 0x02
    2032:	29 83       	std	Y+1, r18	; 0x01
    2034:	fe 01       	movw	r30, r28
    2036:	33 96       	adiw	r30, 0x03	; 3
    2038:	9c e0       	ldi	r25, 0x0C	; 12
    203a:	df 01       	movw	r26, r30
    203c:	1d 92       	st	X+, r1
    203e:	9a 95       	dec	r25
    2040:	e9 f7       	brne	.-6      	; 0x203c <swap_users+0x36>
    2042:	38 8b       	std	Y+16, r19	; 0x10
    2044:	2f 87       	std	Y+15, r18	; 0x0f
    2046:	3e 96       	adiw	r30, 0x0e	; 14
    2048:	97 e0       	ldi	r25, 0x07	; 7
    204a:	df 01       	movw	r26, r30
    204c:	1d 92       	st	X+, r1
    204e:	9a 95       	dec	r25
    2050:	e9 f7       	brne	.-6      	; 0x204c <swap_users+0x46>
    2052:	1e e1       	ldi	r17, 0x1E	; 30
    2054:	18 9f       	mul	r17, r24
    2056:	50 01       	movw	r10, r0
    2058:	11 24       	eor	r1, r1
    205a:	f5 01       	movw	r30, r10
    205c:	ea 5a       	subi	r30, 0xAA	; 170
    205e:	fe 4f       	sbci	r31, 0xFE	; 254
    2060:	7f 01       	movw	r14, r30
    2062:	4e e0       	ldi	r20, 0x0E	; 14
    2064:	50 e0       	ldi	r21, 0x00	; 0
    2066:	bf 01       	movw	r22, r30
    2068:	ce 01       	movw	r24, r28
    206a:	01 96       	adiw	r24, 0x01	; 1
    206c:	0e 94 d9 2c 	call	0x59b2	; 0x59b2 <strncpy>
    2070:	1c 9d       	mul	r17, r12
    2072:	60 01       	movw	r12, r0
    2074:	11 24       	eor	r1, r1
    2076:	86 01       	movw	r16, r12
    2078:	0a 5a       	subi	r16, 0xAA	; 170
    207a:	1e 4f       	sbci	r17, 0xFE	; 254
    207c:	4e e0       	ldi	r20, 0x0E	; 14
    207e:	50 e0       	ldi	r21, 0x00	; 0
    2080:	b8 01       	movw	r22, r16
    2082:	c7 01       	movw	r24, r14
    2084:	0e 94 d9 2c 	call	0x59b2	; 0x59b2 <strncpy>
    2088:	4e e0       	ldi	r20, 0x0E	; 14
    208a:	50 e0       	ldi	r21, 0x00	; 0
    208c:	be 01       	movw	r22, r28
    208e:	6f 5f       	subi	r22, 0xFF	; 255
    2090:	7f 4f       	sbci	r23, 0xFF	; 255
    2092:	c8 01       	movw	r24, r16
    2094:	0e 94 d9 2c 	call	0x59b2	; 0x59b2 <strncpy>
    2098:	c5 01       	movw	r24, r10
    209a:	85 59       	subi	r24, 0x95	; 149
    209c:	9e 4f       	sbci	r25, 0xFE	; 254
    209e:	5c 01       	movw	r10, r24
    20a0:	49 e0       	ldi	r20, 0x09	; 9
    20a2:	50 e0       	ldi	r21, 0x00	; 0
    20a4:	bc 01       	movw	r22, r24
    20a6:	ce 01       	movw	r24, r28
    20a8:	0f 96       	adiw	r24, 0x0f	; 15
    20aa:	0e 94 d9 2c 	call	0x59b2	; 0x59b2 <strncpy>
    20ae:	d6 01       	movw	r26, r12
    20b0:	a5 59       	subi	r26, 0x95	; 149
    20b2:	be 4f       	sbci	r27, 0xFE	; 254
    20b4:	6d 01       	movw	r12, r26
    20b6:	49 e0       	ldi	r20, 0x09	; 9
    20b8:	50 e0       	ldi	r21, 0x00	; 0
    20ba:	bd 01       	movw	r22, r26
    20bc:	c5 01       	movw	r24, r10
    20be:	0e 94 d9 2c 	call	0x59b2	; 0x59b2 <strncpy>
    20c2:	49 e0       	ldi	r20, 0x09	; 9
    20c4:	50 e0       	ldi	r21, 0x00	; 0
    20c6:	be 01       	movw	r22, r28
    20c8:	61 5f       	subi	r22, 0xF1	; 241
    20ca:	7f 4f       	sbci	r23, 0xFF	; 255
    20cc:	c6 01       	movw	r24, r12
    20ce:	0e 94 d9 2c 	call	0x59b2	; 0x59b2 <strncpy>
    20d2:	f7 01       	movw	r30, r14
    20d4:	86 85       	ldd	r24, Z+14	; 0x0e
    20d6:	97 85       	ldd	r25, Z+15	; 0x0f
    20d8:	d8 01       	movw	r26, r16
    20da:	1e 96       	adiw	r26, 0x0e	; 14
    20dc:	2d 91       	ld	r18, X+
    20de:	3c 91       	ld	r19, X
    20e0:	1f 97       	sbiw	r26, 0x0f	; 15
    20e2:	37 87       	std	Z+15, r19	; 0x0f
    20e4:	26 87       	std	Z+14, r18	; 0x0e
    20e6:	1f 96       	adiw	r26, 0x0f	; 15
    20e8:	9c 93       	st	X, r25
    20ea:	8e 93       	st	-X, r24
    20ec:	1e 97       	sbiw	r26, 0x0e	; 14
    20ee:	80 89       	ldd	r24, Z+16	; 0x10
    20f0:	50 96       	adiw	r26, 0x10	; 16
    20f2:	9c 91       	ld	r25, X
    20f4:	50 97       	sbiw	r26, 0x10	; 16
    20f6:	90 8b       	std	Z+16, r25	; 0x10
    20f8:	50 96       	adiw	r26, 0x10	; 16
    20fa:	8c 93       	st	X, r24
    20fc:	81 89       	ldd	r24, Z+17	; 0x11
    20fe:	92 89       	ldd	r25, Z+18	; 0x12
    2100:	a3 89       	ldd	r26, Z+19	; 0x13
    2102:	b4 89       	ldd	r27, Z+20	; 0x14
    2104:	f8 01       	movw	r30, r16
    2106:	41 89       	ldd	r20, Z+17	; 0x11
    2108:	52 89       	ldd	r21, Z+18	; 0x12
    210a:	63 89       	ldd	r22, Z+19	; 0x13
    210c:	74 89       	ldd	r23, Z+20	; 0x14
    210e:	f7 01       	movw	r30, r14
    2110:	41 8b       	std	Z+17, r20	; 0x11
    2112:	52 8b       	std	Z+18, r21	; 0x12
    2114:	63 8b       	std	Z+19, r22	; 0x13
    2116:	74 8b       	std	Z+20, r23	; 0x14
    2118:	f8 01       	movw	r30, r16
    211a:	81 8b       	std	Z+17, r24	; 0x11
    211c:	92 8b       	std	Z+18, r25	; 0x12
    211e:	a3 8b       	std	Z+19, r26	; 0x13
    2120:	b4 8b       	std	Z+20, r27	; 0x14
    2122:	67 96       	adiw	r28, 0x17	; 23
    2124:	0f b6       	in	r0, 0x3f	; 63
    2126:	f8 94       	cli
    2128:	de bf       	out	0x3e, r29	; 62
    212a:	0f be       	out	0x3f, r0	; 63
    212c:	cd bf       	out	0x3d, r28	; 61
    212e:	df 91       	pop	r29
    2130:	cf 91       	pop	r28
    2132:	1f 91       	pop	r17
    2134:	0f 91       	pop	r16
    2136:	ff 90       	pop	r15
    2138:	ef 90       	pop	r14
    213a:	df 90       	pop	r13
    213c:	cf 90       	pop	r12
    213e:	bf 90       	pop	r11
    2140:	af 90       	pop	r10
    2142:	08 95       	ret

00002144 <remove_password_verification>:
    2144:	e0 91 01 01 	lds	r30, 0x0101	; 0x800101 <user_to_remove>
    2148:	8e e1       	ldi	r24, 0x1E	; 30
    214a:	e8 9f       	mul	r30, r24
    214c:	d0 01       	movw	r26, r0
    214e:	11 24       	eor	r1, r1
    2150:	aa 5a       	subi	r26, 0xAA	; 170
    2152:	be 4f       	sbci	r27, 0xFE	; 254
    2154:	55 96       	adiw	r26, 0x15	; 21
    2156:	9c 91       	ld	r25, X
    2158:	80 91 20 0d 	lds	r24, 0x0D20	; 0x800d20 <temporary_password>
    215c:	98 13       	cpse	r25, r24
    215e:	13 c0       	rjmp	.+38     	; 0x2186 <remove_password_verification+0x42>
    2160:	8e e1       	ldi	r24, 0x1E	; 30
    2162:	e8 9f       	mul	r30, r24
    2164:	f0 01       	movw	r30, r0
    2166:	11 24       	eor	r1, r1
    2168:	e4 59       	subi	r30, 0x94	; 148
    216a:	fe 4f       	sbci	r31, 0xFE	; 254
    216c:	a1 e2       	ldi	r26, 0x21	; 33
    216e:	bd e0       	ldi	r27, 0x0D	; 13
    2170:	28 e2       	ldi	r18, 0x28	; 40
    2172:	3d e0       	ldi	r19, 0x0D	; 13
    2174:	91 91       	ld	r25, Z+
    2176:	8d 91       	ld	r24, X+
    2178:	98 13       	cpse	r25, r24
    217a:	07 c0       	rjmp	.+14     	; 0x218a <remove_password_verification+0x46>
    217c:	a2 17       	cp	r26, r18
    217e:	b3 07       	cpc	r27, r19
    2180:	c9 f7       	brne	.-14     	; 0x2174 <remove_password_verification+0x30>
    2182:	81 e0       	ldi	r24, 0x01	; 1
    2184:	08 95       	ret
    2186:	80 e0       	ldi	r24, 0x00	; 0
    2188:	08 95       	ret
    218a:	80 e0       	ldi	r24, 0x00	; 0
    218c:	08 95       	ret

0000218e <RemoveUsers_Tick>:
    218e:	ff 92       	push	r15
    2190:	0f 93       	push	r16
    2192:	1f 93       	push	r17
    2194:	cf 93       	push	r28
    2196:	df 93       	push	r29
    2198:	80 91 e4 0f 	lds	r24, 0x0FE4	; 0x800fe4 <removeusers>
    219c:	83 30       	cpi	r24, 0x03	; 3
    219e:	09 f4       	brne	.+2      	; 0x21a2 <RemoveUsers_Tick+0x14>
    21a0:	4b c0       	rjmp	.+150    	; 0x2238 <RemoveUsers_Tick+0xaa>
    21a2:	28 f4       	brcc	.+10     	; 0x21ae <RemoveUsers_Tick+0x20>
    21a4:	81 30       	cpi	r24, 0x01	; 1
    21a6:	81 f0       	breq	.+32     	; 0x21c8 <RemoveUsers_Tick+0x3a>
    21a8:	82 30       	cpi	r24, 0x02	; 2
    21aa:	51 f1       	breq	.+84     	; 0x2200 <RemoveUsers_Tick+0x72>
    21ac:	35 c1       	rjmp	.+618    	; 0x2418 <RemoveUsers_Tick+0x28a>
    21ae:	84 30       	cpi	r24, 0x04	; 4
    21b0:	09 f4       	brne	.+2      	; 0x21b4 <RemoveUsers_Tick+0x26>
    21b2:	61 c0       	rjmp	.+194    	; 0x2276 <RemoveUsers_Tick+0xe8>
    21b4:	85 30       	cpi	r24, 0x05	; 5
    21b6:	09 f4       	brne	.+2      	; 0x21ba <RemoveUsers_Tick+0x2c>
    21b8:	1a c1       	rjmp	.+564    	; 0x23ee <RemoveUsers_Tick+0x260>
    21ba:	2e c1       	rjmp	.+604    	; 0x2418 <RemoveUsers_Tick+0x28a>
    21bc:	8f e4       	ldi	r24, 0x4F	; 79
    21be:	93 ec       	ldi	r25, 0xC3	; 195
    21c0:	01 97       	sbiw	r24, 0x01	; 1
    21c2:	f1 f7       	brne	.-4      	; 0x21c0 <RemoveUsers_Tick+0x32>
    21c4:	00 c0       	rjmp	.+0      	; 0x21c6 <RemoveUsers_Tick+0x38>
    21c6:	00 00       	nop
    21c8:	0e 94 80 04 	call	0x900	; 0x900 <GetKeypadKey>
    21cc:	80 93 2b 0d 	sts	0x0D2B, r24	; 0x800d2b <removeuser_selection>
    21d0:	88 23       	and	r24, r24
    21d2:	a1 f3       	breq	.-24     	; 0x21bc <RemoveUsers_Tick+0x2e>
    21d4:	06 c0       	rjmp	.+12     	; 0x21e2 <RemoveUsers_Tick+0x54>
    21d6:	ef e4       	ldi	r30, 0x4F	; 79
    21d8:	f3 ec       	ldi	r31, 0xC3	; 195
    21da:	31 97       	sbiw	r30, 0x01	; 1
    21dc:	f1 f7       	brne	.-4      	; 0x21da <RemoveUsers_Tick+0x4c>
    21de:	00 c0       	rjmp	.+0      	; 0x21e0 <RemoveUsers_Tick+0x52>
    21e0:	00 00       	nop
    21e2:	0e 94 80 04 	call	0x900	; 0x900 <GetKeypadKey>
    21e6:	80 93 2a 0d 	sts	0x0D2A, r24	; 0x800d2a <removeuser_prev_selection>
    21ea:	90 91 2b 0d 	lds	r25, 0x0D2B	; 0x800d2b <removeuser_selection>
    21ee:	89 17       	cp	r24, r25
    21f0:	91 f3       	breq	.-28     	; 0x21d6 <RemoveUsers_Tick+0x48>
    21f2:	12 c1       	rjmp	.+548    	; 0x2418 <RemoveUsers_Tick+0x28a>
    21f4:	8f e4       	ldi	r24, 0x4F	; 79
    21f6:	93 ec       	ldi	r25, 0xC3	; 195
    21f8:	01 97       	sbiw	r24, 0x01	; 1
    21fa:	f1 f7       	brne	.-4      	; 0x21f8 <RemoveUsers_Tick+0x6a>
    21fc:	00 c0       	rjmp	.+0      	; 0x21fe <RemoveUsers_Tick+0x70>
    21fe:	00 00       	nop
    2200:	0e 94 80 04 	call	0x900	; 0x900 <GetKeypadKey>
    2204:	80 93 2b 0d 	sts	0x0D2B, r24	; 0x800d2b <removeuser_selection>
    2208:	88 23       	and	r24, r24
    220a:	a1 f3       	breq	.-24     	; 0x21f4 <RemoveUsers_Tick+0x66>
    220c:	06 c0       	rjmp	.+12     	; 0x221a <RemoveUsers_Tick+0x8c>
    220e:	ef e4       	ldi	r30, 0x4F	; 79
    2210:	f3 ec       	ldi	r31, 0xC3	; 195
    2212:	31 97       	sbiw	r30, 0x01	; 1
    2214:	f1 f7       	brne	.-4      	; 0x2212 <RemoveUsers_Tick+0x84>
    2216:	00 c0       	rjmp	.+0      	; 0x2218 <RemoveUsers_Tick+0x8a>
    2218:	00 00       	nop
    221a:	0e 94 80 04 	call	0x900	; 0x900 <GetKeypadKey>
    221e:	80 93 2a 0d 	sts	0x0D2A, r24	; 0x800d2a <removeuser_prev_selection>
    2222:	90 91 2b 0d 	lds	r25, 0x0D2B	; 0x800d2b <removeuser_selection>
    2226:	89 17       	cp	r24, r25
    2228:	91 f3       	breq	.-28     	; 0x220e <RemoveUsers_Tick+0x80>
    222a:	f6 c0       	rjmp	.+492    	; 0x2418 <RemoveUsers_Tick+0x28a>
    222c:	8f e4       	ldi	r24, 0x4F	; 79
    222e:	93 ec       	ldi	r25, 0xC3	; 195
    2230:	01 97       	sbiw	r24, 0x01	; 1
    2232:	f1 f7       	brne	.-4      	; 0x2230 <RemoveUsers_Tick+0xa2>
    2234:	00 c0       	rjmp	.+0      	; 0x2236 <RemoveUsers_Tick+0xa8>
    2236:	00 00       	nop
    2238:	0e 94 80 04 	call	0x900	; 0x900 <GetKeypadKey>
    223c:	80 93 2b 0d 	sts	0x0D2B, r24	; 0x800d2b <removeuser_selection>
    2240:	88 23       	and	r24, r24
    2242:	a1 f3       	breq	.-24     	; 0x222c <RemoveUsers_Tick+0x9e>
    2244:	06 c0       	rjmp	.+12     	; 0x2252 <RemoveUsers_Tick+0xc4>
    2246:	ef e4       	ldi	r30, 0x4F	; 79
    2248:	f3 ec       	ldi	r31, 0xC3	; 195
    224a:	31 97       	sbiw	r30, 0x01	; 1
    224c:	f1 f7       	brne	.-4      	; 0x224a <RemoveUsers_Tick+0xbc>
    224e:	00 c0       	rjmp	.+0      	; 0x2250 <RemoveUsers_Tick+0xc2>
    2250:	00 00       	nop
    2252:	0e 94 80 04 	call	0x900	; 0x900 <GetKeypadKey>
    2256:	80 93 2a 0d 	sts	0x0D2A, r24	; 0x800d2a <removeuser_prev_selection>
    225a:	90 91 2b 0d 	lds	r25, 0x0D2B	; 0x800d2b <removeuser_selection>
    225e:	89 17       	cp	r24, r25
    2260:	91 f3       	breq	.-28     	; 0x2246 <RemoveUsers_Tick+0xb8>
    2262:	91 53       	subi	r25, 0x31	; 49
    2264:	90 93 2b 0d 	sts	0x0D2B, r25	; 0x800d2b <removeuser_selection>
    2268:	d7 c0       	rjmp	.+430    	; 0x2418 <RemoveUsers_Tick+0x28a>
    226a:	8f e4       	ldi	r24, 0x4F	; 79
    226c:	93 ec       	ldi	r25, 0xC3	; 195
    226e:	01 97       	sbiw	r24, 0x01	; 1
    2270:	f1 f7       	brne	.-4      	; 0x226e <RemoveUsers_Tick+0xe0>
    2272:	00 c0       	rjmp	.+0      	; 0x2274 <RemoveUsers_Tick+0xe6>
    2274:	00 00       	nop
    2276:	0e 94 80 04 	call	0x900	; 0x900 <GetKeypadKey>
    227a:	80 93 2b 0d 	sts	0x0D2B, r24	; 0x800d2b <removeuser_selection>
    227e:	88 23       	and	r24, r24
    2280:	a1 f3       	breq	.-24     	; 0x226a <RemoveUsers_Tick+0xdc>
    2282:	06 c0       	rjmp	.+12     	; 0x2290 <RemoveUsers_Tick+0x102>
    2284:	ef e4       	ldi	r30, 0x4F	; 79
    2286:	f3 ec       	ldi	r31, 0xC3	; 195
    2288:	31 97       	sbiw	r30, 0x01	; 1
    228a:	f1 f7       	brne	.-4      	; 0x2288 <RemoveUsers_Tick+0xfa>
    228c:	00 c0       	rjmp	.+0      	; 0x228e <RemoveUsers_Tick+0x100>
    228e:	00 00       	nop
    2290:	0e 94 80 04 	call	0x900	; 0x900 <GetKeypadKey>
    2294:	80 93 2a 0d 	sts	0x0D2A, r24	; 0x800d2a <removeuser_prev_selection>
    2298:	90 91 2b 0d 	lds	r25, 0x0D2B	; 0x800d2b <removeuser_selection>
    229c:	89 17       	cp	r24, r25
    229e:	91 f3       	breq	.-28     	; 0x2284 <RemoveUsers_Tick+0xf6>
    22a0:	c8 e2       	ldi	r28, 0x28	; 40
    22a2:	dd e0       	ldi	r29, 0x0D	; 13
    22a4:	00 e2       	ldi	r16, 0x20	; 32
    22a6:	1d e0       	ldi	r17, 0x0D	; 13
    22a8:	0f 2e       	mov	r0, r31
    22aa:	fa e2       	ldi	r31, 0x2A	; 42
    22ac:	ff 2e       	mov	r15, r31
    22ae:	f0 2d       	mov	r31, r0
    22b0:	87 c0       	rjmp	.+270    	; 0x23c0 <RemoveUsers_Tick+0x232>
    22b2:	88 23       	and	r24, r24
    22b4:	09 f4       	brne	.+2      	; 0x22b8 <RemoveUsers_Tick+0x12a>
    22b6:	6f c0       	rjmp	.+222    	; 0x2396 <RemoveUsers_Tick+0x208>
    22b8:	8a 32       	cpi	r24, 0x2A	; 42
    22ba:	e1 f1       	breq	.+120    	; 0x2334 <RemoveUsers_Tick+0x1a6>
    22bc:	20 91 30 0d 	lds	r18, 0x0D30	; 0x800d30 <password_size>
    22c0:	28 30       	cpi	r18, 0x08	; 8
    22c2:	08 f0       	brcs	.+2      	; 0x22c6 <RemoveUsers_Tick+0x138>
    22c4:	68 c0       	rjmp	.+208    	; 0x2396 <RemoveUsers_Tick+0x208>
    22c6:	30 e0       	ldi	r19, 0x00	; 0
    22c8:	f9 01       	movw	r30, r18
    22ca:	e0 5e       	subi	r30, 0xE0	; 224
    22cc:	f2 4f       	sbci	r31, 0xF2	; 242
    22ce:	80 83       	st	Z, r24
    22d0:	2f 5f       	subi	r18, 0xFF	; 255
    22d2:	3f 4f       	sbci	r19, 0xFF	; 255
    22d4:	28 30       	cpi	r18, 0x08	; 8
    22d6:	31 05       	cpc	r19, r1
    22d8:	24 f4       	brge	.+8      	; 0x22e2 <RemoveUsers_Tick+0x154>
    22da:	f9 01       	movw	r30, r18
    22dc:	e0 5e       	subi	r30, 0xE0	; 224
    22de:	f2 4f       	sbci	r31, 0xF2	; 242
    22e0:	f0 82       	st	Z, r15
    22e2:	0e 94 68 24 	call	0x48d0	; 0x48d0 <nokia_lcd_clear>
    22e6:	61 e0       	ldi	r22, 0x01	; 1
    22e8:	8e e7       	ldi	r24, 0x7E	; 126
    22ea:	92 e0       	ldi	r25, 0x02	; 2
    22ec:	0e 94 4e 25 	call	0x4a9c	; 0x4a9c <nokia_lcd_write_string>
    22f0:	6a e0       	ldi	r22, 0x0A	; 10
    22f2:	80 e0       	ldi	r24, 0x00	; 0
    22f4:	0e 94 60 25 	call	0x4ac0	; 0x4ac0 <nokia_lcd_set_cursor>
    22f8:	61 e0       	ldi	r22, 0x01	; 1
    22fa:	8e eb       	ldi	r24, 0xBE	; 190
    22fc:	93 e0       	ldi	r25, 0x03	; 3
    22fe:	0e 94 4e 25 	call	0x4a9c	; 0x4a9c <nokia_lcd_write_string>
    2302:	80 91 29 0d 	lds	r24, 0x0D29	; 0x800d29 <removeuser_password_fails>
    2306:	61 e0       	ldi	r22, 0x01	; 1
    2308:	80 5d       	subi	r24, 0xD0	; 208
    230a:	0e 94 a4 24 	call	0x4948	; 0x4948 <nokia_lcd_write_char>
    230e:	64 e1       	ldi	r22, 0x14	; 20
    2310:	80 e0       	ldi	r24, 0x00	; 0
    2312:	0e 94 60 25 	call	0x4ac0	; 0x4ac0 <nokia_lcd_set_cursor>
    2316:	61 e0       	ldi	r22, 0x01	; 1
    2318:	c8 01       	movw	r24, r16
    231a:	0e 94 4e 25 	call	0x4a9c	; 0x4a9c <nokia_lcd_write_string>
    231e:	0e 94 65 25 	call	0x4aca	; 0x4aca <nokia_lcd_render>
    2322:	80 91 30 0d 	lds	r24, 0x0D30	; 0x800d30 <password_size>
    2326:	8f 5f       	subi	r24, 0xFF	; 255
    2328:	80 93 30 0d 	sts	0x0D30, r24	; 0x800d30 <password_size>
    232c:	80 91 2b 0d 	lds	r24, 0x0D2B	; 0x800d2b <removeuser_selection>
    2330:	8a 32       	cpi	r24, 0x2A	; 42
    2332:	89 f5       	brne	.+98     	; 0x2396 <RemoveUsers_Tick+0x208>
    2334:	10 92 30 0d 	sts	0x0D30, r1	; 0x800d30 <password_size>
    2338:	e0 e2       	ldi	r30, 0x20	; 32
    233a:	fd e0       	ldi	r31, 0x0D	; 13
    233c:	11 92       	st	Z+, r1
    233e:	ce 17       	cp	r28, r30
    2340:	df 07       	cpc	r29, r31
    2342:	e1 f7       	brne	.-8      	; 0x233c <RemoveUsers_Tick+0x1ae>
    2344:	f8 01       	movw	r30, r16
    2346:	f0 82       	st	Z, r15
    2348:	0e 94 68 24 	call	0x48d0	; 0x48d0 <nokia_lcd_clear>
    234c:	61 e0       	ldi	r22, 0x01	; 1
    234e:	8e e7       	ldi	r24, 0x7E	; 126
    2350:	92 e0       	ldi	r25, 0x02	; 2
    2352:	0e 94 4e 25 	call	0x4a9c	; 0x4a9c <nokia_lcd_write_string>
    2356:	6a e0       	ldi	r22, 0x0A	; 10
    2358:	80 e0       	ldi	r24, 0x00	; 0
    235a:	0e 94 60 25 	call	0x4ac0	; 0x4ac0 <nokia_lcd_set_cursor>
    235e:	61 e0       	ldi	r22, 0x01	; 1
    2360:	8e eb       	ldi	r24, 0xBE	; 190
    2362:	93 e0       	ldi	r25, 0x03	; 3
    2364:	0e 94 4e 25 	call	0x4a9c	; 0x4a9c <nokia_lcd_write_string>
    2368:	80 91 29 0d 	lds	r24, 0x0D29	; 0x800d29 <removeuser_password_fails>
    236c:	61 e0       	ldi	r22, 0x01	; 1
    236e:	80 5d       	subi	r24, 0xD0	; 208
    2370:	0e 94 a4 24 	call	0x4948	; 0x4948 <nokia_lcd_write_char>
    2374:	64 e1       	ldi	r22, 0x14	; 20
    2376:	80 e0       	ldi	r24, 0x00	; 0
    2378:	0e 94 60 25 	call	0x4ac0	; 0x4ac0 <nokia_lcd_set_cursor>
    237c:	61 e0       	ldi	r22, 0x01	; 1
    237e:	c8 01       	movw	r24, r16
    2380:	0e 94 4e 25 	call	0x4a9c	; 0x4a9c <nokia_lcd_write_string>
    2384:	0e 94 65 25 	call	0x4aca	; 0x4aca <nokia_lcd_render>
    2388:	06 c0       	rjmp	.+12     	; 0x2396 <RemoveUsers_Tick+0x208>
    238a:	8f e4       	ldi	r24, 0x4F	; 79
    238c:	93 ec       	ldi	r25, 0xC3	; 195
    238e:	01 97       	sbiw	r24, 0x01	; 1
    2390:	f1 f7       	brne	.-4      	; 0x238e <RemoveUsers_Tick+0x200>
    2392:	00 c0       	rjmp	.+0      	; 0x2394 <RemoveUsers_Tick+0x206>
    2394:	00 00       	nop
    2396:	0e 94 80 04 	call	0x900	; 0x900 <GetKeypadKey>
    239a:	80 93 2b 0d 	sts	0x0D2B, r24	; 0x800d2b <removeuser_selection>
    239e:	88 23       	and	r24, r24
    23a0:	a1 f3       	breq	.-24     	; 0x238a <RemoveUsers_Tick+0x1fc>
    23a2:	06 c0       	rjmp	.+12     	; 0x23b0 <RemoveUsers_Tick+0x222>
    23a4:	ef e4       	ldi	r30, 0x4F	; 79
    23a6:	f3 ec       	ldi	r31, 0xC3	; 195
    23a8:	31 97       	sbiw	r30, 0x01	; 1
    23aa:	f1 f7       	brne	.-4      	; 0x23a8 <RemoveUsers_Tick+0x21a>
    23ac:	00 c0       	rjmp	.+0      	; 0x23ae <RemoveUsers_Tick+0x220>
    23ae:	00 00       	nop
    23b0:	0e 94 80 04 	call	0x900	; 0x900 <GetKeypadKey>
    23b4:	80 93 2a 0d 	sts	0x0D2A, r24	; 0x800d2a <removeuser_prev_selection>
    23b8:	90 91 2b 0d 	lds	r25, 0x0D2B	; 0x800d2b <removeuser_selection>
    23bc:	89 17       	cp	r24, r25
    23be:	91 f3       	breq	.-28     	; 0x23a4 <RemoveUsers_Tick+0x216>
    23c0:	80 91 2b 0d 	lds	r24, 0x0D2B	; 0x800d2b <removeuser_selection>
    23c4:	83 32       	cpi	r24, 0x23	; 35
    23c6:	09 f0       	breq	.+2      	; 0x23ca <RemoveUsers_Tick+0x23c>
    23c8:	74 cf       	rjmp	.-280    	; 0x22b2 <RemoveUsers_Tick+0x124>
    23ca:	bc de       	rcall	.-648    	; 0x2144 <remove_password_verification>
    23cc:	81 11       	cpse	r24, r1
    23ce:	06 c0       	rjmp	.+12     	; 0x23dc <RemoveUsers_Tick+0x24e>
    23d0:	80 91 29 0d 	lds	r24, 0x0D29	; 0x800d29 <removeuser_password_fails>
    23d4:	8f 5f       	subi	r24, 0xFF	; 255
    23d6:	80 93 29 0d 	sts	0x0D29, r24	; 0x800d29 <removeuser_password_fails>
    23da:	d1 c1       	rjmp	.+930    	; 0x277e <RemoveUsers_Tick+0x5f0>
    23dc:	10 92 29 0d 	sts	0x0D29, r1	; 0x800d29 <removeuser_password_fails>
    23e0:	ce c1       	rjmp	.+924    	; 0x277e <RemoveUsers_Tick+0x5f0>
    23e2:	8f e4       	ldi	r24, 0x4F	; 79
    23e4:	93 ec       	ldi	r25, 0xC3	; 195
    23e6:	01 97       	sbiw	r24, 0x01	; 1
    23e8:	f1 f7       	brne	.-4      	; 0x23e6 <RemoveUsers_Tick+0x258>
    23ea:	00 c0       	rjmp	.+0      	; 0x23ec <RemoveUsers_Tick+0x25e>
    23ec:	00 00       	nop
    23ee:	0e 94 80 04 	call	0x900	; 0x900 <GetKeypadKey>
    23f2:	80 93 2b 0d 	sts	0x0D2B, r24	; 0x800d2b <removeuser_selection>
    23f6:	88 23       	and	r24, r24
    23f8:	a1 f3       	breq	.-24     	; 0x23e2 <RemoveUsers_Tick+0x254>
    23fa:	06 c0       	rjmp	.+12     	; 0x2408 <RemoveUsers_Tick+0x27a>
    23fc:	ef e4       	ldi	r30, 0x4F	; 79
    23fe:	f3 ec       	ldi	r31, 0xC3	; 195
    2400:	31 97       	sbiw	r30, 0x01	; 1
    2402:	f1 f7       	brne	.-4      	; 0x2400 <RemoveUsers_Tick+0x272>
    2404:	00 c0       	rjmp	.+0      	; 0x2406 <RemoveUsers_Tick+0x278>
    2406:	00 00       	nop
    2408:	0e 94 80 04 	call	0x900	; 0x900 <GetKeypadKey>
    240c:	80 93 2a 0d 	sts	0x0D2A, r24	; 0x800d2a <removeuser_prev_selection>
    2410:	90 91 2b 0d 	lds	r25, 0x0D2B	; 0x800d2b <removeuser_selection>
    2414:	89 17       	cp	r24, r25
    2416:	91 f3       	breq	.-28     	; 0x23fc <RemoveUsers_Tick+0x26e>
    2418:	80 91 e4 0f 	lds	r24, 0x0FE4	; 0x800fe4 <removeusers>
    241c:	82 30       	cpi	r24, 0x02	; 2
    241e:	09 f4       	brne	.+2      	; 0x2422 <RemoveUsers_Tick+0x294>
    2420:	49 c0       	rjmp	.+146    	; 0x24b4 <RemoveUsers_Tick+0x326>
    2422:	28 f4       	brcc	.+10     	; 0x242e <RemoveUsers_Tick+0x2a0>
    2424:	88 23       	and	r24, r24
    2426:	61 f0       	breq	.+24     	; 0x2440 <RemoveUsers_Tick+0x2b2>
    2428:	81 30       	cpi	r24, 0x01	; 1
    242a:	d1 f1       	breq	.+116    	; 0x24a0 <RemoveUsers_Tick+0x312>
    242c:	9c c1       	rjmp	.+824    	; 0x2766 <RemoveUsers_Tick+0x5d8>
    242e:	84 30       	cpi	r24, 0x04	; 4
    2430:	09 f4       	brne	.+2      	; 0x2434 <RemoveUsers_Tick+0x2a6>
    2432:	9f c0       	rjmp	.+318    	; 0x2572 <RemoveUsers_Tick+0x3e4>
    2434:	08 f4       	brcc	.+2      	; 0x2438 <RemoveUsers_Tick+0x2aa>
    2436:	48 c0       	rjmp	.+144    	; 0x24c8 <RemoveUsers_Tick+0x33a>
    2438:	85 30       	cpi	r24, 0x05	; 5
    243a:	09 f4       	brne	.+2      	; 0x243e <RemoveUsers_Tick+0x2b0>
    243c:	3d c1       	rjmp	.+634    	; 0x26b8 <RemoveUsers_Tick+0x52a>
    243e:	93 c1       	rjmp	.+806    	; 0x2766 <RemoveUsers_Tick+0x5d8>
    2440:	80 91 70 0d 	lds	r24, 0x0D70	; 0x800d70 <removeusers_flag>
    2444:	88 23       	and	r24, r24
    2446:	09 f4       	brne	.+2      	; 0x244a <RemoveUsers_Tick+0x2bc>
    2448:	b0 c1       	rjmp	.+864    	; 0x27aa <RemoveUsers_Tick+0x61c>
    244a:	80 91 60 0d 	lds	r24, 0x0D60	; 0x800d60 <keys_have_been_deposited>
    244e:	81 11       	cpse	r24, r1
    2450:	04 c0       	rjmp	.+8      	; 0x245a <RemoveUsers_Tick+0x2cc>
    2452:	80 91 61 0d 	lds	r24, 0x0D61	; 0x800d61 <drink_has_been_removed>
    2456:	88 23       	and	r24, r24
    2458:	69 f0       	breq	.+26     	; 0x2474 <RemoveUsers_Tick+0x2e6>
    245a:	0e 94 68 24 	call	0x48d0	; 0x48d0 <nokia_lcd_clear>
    245e:	61 e0       	ldi	r22, 0x01	; 1
    2460:	8b e8       	ldi	r24, 0x8B	; 139
    2462:	93 e0       	ldi	r25, 0x03	; 3
    2464:	0e 94 4e 25 	call	0x4a9c	; 0x4a9c <nokia_lcd_write_string>
    2468:	0e 94 65 25 	call	0x4aca	; 0x4aca <nokia_lcd_render>
    246c:	81 e0       	ldi	r24, 0x01	; 1
    246e:	80 93 e4 0f 	sts	0x0FE4, r24	; 0x800fe4 <removeusers>
    2472:	9b c1       	rjmp	.+822    	; 0x27aa <RemoveUsers_Tick+0x61c>
    2474:	80 91 6b 0d 	lds	r24, 0x0D6B	; 0x800d6b <number_of_users>
    2478:	81 50       	subi	r24, 0x01	; 1
    247a:	84 30       	cpi	r24, 0x04	; 4
    247c:	68 f4       	brcc	.+26     	; 0x2498 <RemoveUsers_Tick+0x30a>
    247e:	10 92 2b 0d 	sts	0x0D2B, r1	; 0x800d2b <removeuser_selection>
    2482:	10 92 2a 0d 	sts	0x0D2A, r1	; 0x800d2a <removeuser_prev_selection>
    2486:	10 92 29 0d 	sts	0x0D29, r1	; 0x800d29 <removeuser_password_fails>
    248a:	85 e0       	ldi	r24, 0x05	; 5
    248c:	80 93 01 01 	sts	0x0101, r24	; 0x800101 <user_to_remove>
    2490:	83 e0       	ldi	r24, 0x03	; 3
    2492:	80 93 e4 0f 	sts	0x0FE4, r24	; 0x800fe4 <removeusers>
    2496:	89 c1       	rjmp	.+786    	; 0x27aa <RemoveUsers_Tick+0x61c>
    2498:	82 e0       	ldi	r24, 0x02	; 2
    249a:	80 93 e4 0f 	sts	0x0FE4, r24	; 0x800fe4 <removeusers>
    249e:	85 c1       	rjmp	.+778    	; 0x27aa <RemoveUsers_Tick+0x61c>
    24a0:	80 91 2b 0d 	lds	r24, 0x0D2B	; 0x800d2b <removeuser_selection>
    24a4:	88 23       	and	r24, r24
    24a6:	09 f4       	brne	.+2      	; 0x24aa <RemoveUsers_Tick+0x31c>
    24a8:	80 c1       	rjmp	.+768    	; 0x27aa <RemoveUsers_Tick+0x61c>
    24aa:	10 92 70 0d 	sts	0x0D70, r1	; 0x800d70 <removeusers_flag>
    24ae:	10 92 e4 0f 	sts	0x0FE4, r1	; 0x800fe4 <removeusers>
    24b2:	7b c1       	rjmp	.+758    	; 0x27aa <RemoveUsers_Tick+0x61c>
    24b4:	80 91 2b 0d 	lds	r24, 0x0D2B	; 0x800d2b <removeuser_selection>
    24b8:	88 23       	and	r24, r24
    24ba:	09 f4       	brne	.+2      	; 0x24be <RemoveUsers_Tick+0x330>
    24bc:	76 c1       	rjmp	.+748    	; 0x27aa <RemoveUsers_Tick+0x61c>
    24be:	10 92 70 0d 	sts	0x0D70, r1	; 0x800d70 <removeusers_flag>
    24c2:	10 92 e4 0f 	sts	0x0FE4, r1	; 0x800fe4 <removeusers>
    24c6:	71 c1       	rjmp	.+738    	; 0x27aa <RemoveUsers_Tick+0x61c>
    24c8:	80 91 2b 0d 	lds	r24, 0x0D2B	; 0x800d2b <removeuser_selection>
    24cc:	90 91 6b 0d 	lds	r25, 0x0D6B	; 0x800d6b <number_of_users>
    24d0:	89 17       	cp	r24, r25
    24d2:	c0 f5       	brcc	.+112    	; 0x2544 <RemoveUsers_Tick+0x3b6>
    24d4:	90 91 70 0d 	lds	r25, 0x0D70	; 0x800d70 <removeusers_flag>
    24d8:	99 23       	and	r25, r25
    24da:	c1 f1       	breq	.+112    	; 0x254c <RemoveUsers_Tick+0x3be>
    24dc:	80 93 01 01 	sts	0x0101, r24	; 0x800101 <user_to_remove>
    24e0:	0e 94 68 24 	call	0x48d0	; 0x48d0 <nokia_lcd_clear>
    24e4:	61 e0       	ldi	r22, 0x01	; 1
    24e6:	8e e7       	ldi	r24, 0x7E	; 126
    24e8:	92 e0       	ldi	r25, 0x02	; 2
    24ea:	0e 94 4e 25 	call	0x4a9c	; 0x4a9c <nokia_lcd_write_string>
    24ee:	6a e0       	ldi	r22, 0x0A	; 10
    24f0:	80 e0       	ldi	r24, 0x00	; 0
    24f2:	0e 94 60 25 	call	0x4ac0	; 0x4ac0 <nokia_lcd_set_cursor>
    24f6:	61 e0       	ldi	r22, 0x01	; 1
    24f8:	8e eb       	ldi	r24, 0xBE	; 190
    24fa:	93 e0       	ldi	r25, 0x03	; 3
    24fc:	0e 94 4e 25 	call	0x4a9c	; 0x4a9c <nokia_lcd_write_string>
    2500:	80 91 29 0d 	lds	r24, 0x0D29	; 0x800d29 <removeuser_password_fails>
    2504:	61 e0       	ldi	r22, 0x01	; 1
    2506:	80 5d       	subi	r24, 0xD0	; 208
    2508:	0e 94 a4 24 	call	0x4948	; 0x4948 <nokia_lcd_write_char>
    250c:	64 e1       	ldi	r22, 0x14	; 20
    250e:	80 e0       	ldi	r24, 0x00	; 0
    2510:	0e 94 60 25 	call	0x4ac0	; 0x4ac0 <nokia_lcd_set_cursor>
    2514:	61 e0       	ldi	r22, 0x01	; 1
    2516:	8c eb       	ldi	r24, 0xBC	; 188
    2518:	93 e0       	ldi	r25, 0x03	; 3
    251a:	0e 94 4e 25 	call	0x4a9c	; 0x4a9c <nokia_lcd_write_string>
    251e:	0e 94 65 25 	call	0x4aca	; 0x4aca <nokia_lcd_render>
    2522:	10 92 29 0d 	sts	0x0D29, r1	; 0x800d29 <removeuser_password_fails>
    2526:	e0 e2       	ldi	r30, 0x20	; 32
    2528:	fd e0       	ldi	r31, 0x0D	; 13
    252a:	88 e2       	ldi	r24, 0x28	; 40
    252c:	9d e0       	ldi	r25, 0x0D	; 13
    252e:	11 92       	st	Z+, r1
    2530:	8e 17       	cp	r24, r30
    2532:	9f 07       	cpc	r25, r31
    2534:	e1 f7       	brne	.-8      	; 0x252e <RemoveUsers_Tick+0x3a0>
    2536:	8a e2       	ldi	r24, 0x2A	; 42
    2538:	80 93 20 0d 	sts	0x0D20, r24	; 0x800d20 <temporary_password>
    253c:	84 e0       	ldi	r24, 0x04	; 4
    253e:	80 93 e4 0f 	sts	0x0FE4, r24	; 0x800fe4 <removeusers>
    2542:	33 c1       	rjmp	.+614    	; 0x27aa <RemoveUsers_Tick+0x61c>
    2544:	80 91 70 0d 	lds	r24, 0x0D70	; 0x800d70 <removeusers_flag>
    2548:	81 11       	cpse	r24, r1
    254a:	2f c1       	rjmp	.+606    	; 0x27aa <RemoveUsers_Tick+0x61c>
    254c:	10 92 29 0d 	sts	0x0D29, r1	; 0x800d29 <removeuser_password_fails>
    2550:	10 92 30 0d 	sts	0x0D30, r1	; 0x800d30 <password_size>
    2554:	e0 e2       	ldi	r30, 0x20	; 32
    2556:	fd e0       	ldi	r31, 0x0D	; 13
    2558:	88 e2       	ldi	r24, 0x28	; 40
    255a:	9d e0       	ldi	r25, 0x0D	; 13
    255c:	11 92       	st	Z+, r1
    255e:	e8 17       	cp	r30, r24
    2560:	f9 07       	cpc	r31, r25
    2562:	e1 f7       	brne	.-8      	; 0x255c <RemoveUsers_Tick+0x3ce>
    2564:	10 92 20 0d 	sts	0x0D20, r1	; 0x800d20 <temporary_password>
    2568:	0e 94 cc 03 	call	0x798	; 0x798 <main_menu_display>
    256c:	10 92 e4 0f 	sts	0x0FE4, r1	; 0x800fe4 <removeusers>
    2570:	1c c1       	rjmp	.+568    	; 0x27aa <RemoveUsers_Tick+0x61c>
    2572:	80 91 29 0d 	lds	r24, 0x0D29	; 0x800d29 <removeuser_password_fails>
    2576:	81 11       	cpse	r24, r1
    2578:	3c c0       	rjmp	.+120    	; 0x25f2 <RemoveUsers_Tick+0x464>
    257a:	80 91 70 0d 	lds	r24, 0x0D70	; 0x800d70 <removeusers_flag>
    257e:	88 23       	and	r24, r24
    2580:	09 f4       	brne	.+2      	; 0x2584 <RemoveUsers_Tick+0x3f6>
    2582:	89 c0       	rjmp	.+274    	; 0x2696 <RemoveUsers_Tick+0x508>
    2584:	0e 94 68 24 	call	0x48d0	; 0x48d0 <nokia_lcd_clear>
    2588:	61 e0       	ldi	r22, 0x01	; 1
    258a:	85 ed       	ldi	r24, 0xD5	; 213
    258c:	93 e0       	ldi	r25, 0x03	; 3
    258e:	0e 94 4e 25 	call	0x4a9c	; 0x4a9c <nokia_lcd_write_string>
    2592:	6a e0       	ldi	r22, 0x0A	; 10
    2594:	80 e0       	ldi	r24, 0x00	; 0
    2596:	0e 94 60 25 	call	0x4ac0	; 0x4ac0 <nokia_lcd_set_cursor>
    259a:	80 91 01 01 	lds	r24, 0x0101	; 0x800101 <user_to_remove>
    259e:	fe e1       	ldi	r31, 0x1E	; 30
    25a0:	8f 9f       	mul	r24, r31
    25a2:	c0 01       	movw	r24, r0
    25a4:	11 24       	eor	r1, r1
    25a6:	61 e0       	ldi	r22, 0x01	; 1
    25a8:	8a 5a       	subi	r24, 0xAA	; 170
    25aa:	9e 4f       	sbci	r25, 0xFE	; 254
    25ac:	0e 94 4e 25 	call	0x4a9c	; 0x4a9c <nokia_lcd_write_string>
    25b0:	64 e1       	ldi	r22, 0x14	; 20
    25b2:	80 e0       	ldi	r24, 0x00	; 0
    25b4:	0e 94 60 25 	call	0x4ac0	; 0x4ac0 <nokia_lcd_set_cursor>
    25b8:	61 e0       	ldi	r22, 0x01	; 1
    25ba:	8c ed       	ldi	r24, 0xDC	; 220
    25bc:	93 e0       	ldi	r25, 0x03	; 3
    25be:	0e 94 4e 25 	call	0x4a9c	; 0x4a9c <nokia_lcd_write_string>
    25c2:	6e e1       	ldi	r22, 0x1E	; 30
    25c4:	80 e0       	ldi	r24, 0x00	; 0
    25c6:	0e 94 60 25 	call	0x4ac0	; 0x4ac0 <nokia_lcd_set_cursor>
    25ca:	61 e0       	ldi	r22, 0x01	; 1
    25cc:	89 ee       	ldi	r24, 0xE9	; 233
    25ce:	93 e0       	ldi	r25, 0x03	; 3
    25d0:	0e 94 4e 25 	call	0x4a9c	; 0x4a9c <nokia_lcd_write_string>
    25d4:	68 e2       	ldi	r22, 0x28	; 40
    25d6:	80 e0       	ldi	r24, 0x00	; 0
    25d8:	0e 94 60 25 	call	0x4ac0	; 0x4ac0 <nokia_lcd_set_cursor>
    25dc:	61 e0       	ldi	r22, 0x01	; 1
    25de:	80 ef       	ldi	r24, 0xF0	; 240
    25e0:	93 e0       	ldi	r25, 0x03	; 3
    25e2:	0e 94 4e 25 	call	0x4a9c	; 0x4a9c <nokia_lcd_write_string>
    25e6:	0e 94 65 25 	call	0x4aca	; 0x4aca <nokia_lcd_render>
    25ea:	85 e0       	ldi	r24, 0x05	; 5
    25ec:	80 93 e4 0f 	sts	0x0FE4, r24	; 0x800fe4 <removeusers>
    25f0:	dc c0       	rjmp	.+440    	; 0x27aa <RemoveUsers_Tick+0x61c>
    25f2:	83 30       	cpi	r24, 0x03	; 3
    25f4:	d1 f4       	brne	.+52     	; 0x262a <RemoveUsers_Tick+0x49c>
    25f6:	80 91 70 0d 	lds	r24, 0x0D70	; 0x800d70 <removeusers_flag>
    25fa:	88 23       	and	r24, r24
    25fc:	09 f4       	brne	.+2      	; 0x2600 <RemoveUsers_Tick+0x472>
    25fe:	4b c0       	rjmp	.+150    	; 0x2696 <RemoveUsers_Tick+0x508>
    2600:	10 92 29 0d 	sts	0x0D29, r1	; 0x800d29 <removeuser_password_fails>
    2604:	10 92 30 0d 	sts	0x0D30, r1	; 0x800d30 <password_size>
    2608:	e0 e2       	ldi	r30, 0x20	; 32
    260a:	fd e0       	ldi	r31, 0x0D	; 13
    260c:	88 e2       	ldi	r24, 0x28	; 40
    260e:	9d e0       	ldi	r25, 0x0D	; 13
    2610:	11 92       	st	Z+, r1
    2612:	e8 17       	cp	r30, r24
    2614:	f9 07       	cpc	r31, r25
    2616:	e1 f7       	brne	.-8      	; 0x2610 <RemoveUsers_Tick+0x482>
    2618:	10 92 20 0d 	sts	0x0D20, r1	; 0x800d20 <temporary_password>
    261c:	10 92 70 0d 	sts	0x0D70, r1	; 0x800d70 <removeusers_flag>
    2620:	0e 94 cc 03 	call	0x798	; 0x798 <main_menu_display>
    2624:	10 92 e4 0f 	sts	0x0FE4, r1	; 0x800fe4 <removeusers>
    2628:	c0 c0       	rjmp	.+384    	; 0x27aa <RemoveUsers_Tick+0x61c>
    262a:	80 91 70 0d 	lds	r24, 0x0D70	; 0x800d70 <removeusers_flag>
    262e:	88 23       	and	r24, r24
    2630:	91 f1       	breq	.+100    	; 0x2696 <RemoveUsers_Tick+0x508>
    2632:	0e 94 68 24 	call	0x48d0	; 0x48d0 <nokia_lcd_clear>
    2636:	61 e0       	ldi	r22, 0x01	; 1
    2638:	8e e7       	ldi	r24, 0x7E	; 126
    263a:	92 e0       	ldi	r25, 0x02	; 2
    263c:	0e 94 4e 25 	call	0x4a9c	; 0x4a9c <nokia_lcd_write_string>
    2640:	6a e0       	ldi	r22, 0x0A	; 10
    2642:	80 e0       	ldi	r24, 0x00	; 0
    2644:	0e 94 60 25 	call	0x4ac0	; 0x4ac0 <nokia_lcd_set_cursor>
    2648:	61 e0       	ldi	r22, 0x01	; 1
    264a:	8e eb       	ldi	r24, 0xBE	; 190
    264c:	93 e0       	ldi	r25, 0x03	; 3
    264e:	0e 94 4e 25 	call	0x4a9c	; 0x4a9c <nokia_lcd_write_string>
    2652:	80 91 29 0d 	lds	r24, 0x0D29	; 0x800d29 <removeuser_password_fails>
    2656:	61 e0       	ldi	r22, 0x01	; 1
    2658:	80 5d       	subi	r24, 0xD0	; 208
    265a:	0e 94 a4 24 	call	0x4948	; 0x4948 <nokia_lcd_write_char>
    265e:	64 e1       	ldi	r22, 0x14	; 20
    2660:	80 e0       	ldi	r24, 0x00	; 0
    2662:	0e 94 60 25 	call	0x4ac0	; 0x4ac0 <nokia_lcd_set_cursor>
    2666:	61 e0       	ldi	r22, 0x01	; 1
    2668:	8c eb       	ldi	r24, 0xBC	; 188
    266a:	93 e0       	ldi	r25, 0x03	; 3
    266c:	0e 94 4e 25 	call	0x4a9c	; 0x4a9c <nokia_lcd_write_string>
    2670:	0e 94 65 25 	call	0x4aca	; 0x4aca <nokia_lcd_render>
    2674:	10 92 30 0d 	sts	0x0D30, r1	; 0x800d30 <password_size>
    2678:	e0 e2       	ldi	r30, 0x20	; 32
    267a:	fd e0       	ldi	r31, 0x0D	; 13
    267c:	88 e2       	ldi	r24, 0x28	; 40
    267e:	9d e0       	ldi	r25, 0x0D	; 13
    2680:	11 92       	st	Z+, r1
    2682:	e8 17       	cp	r30, r24
    2684:	f9 07       	cpc	r31, r25
    2686:	e1 f7       	brne	.-8      	; 0x2680 <RemoveUsers_Tick+0x4f2>
    2688:	8a e2       	ldi	r24, 0x2A	; 42
    268a:	80 93 20 0d 	sts	0x0D20, r24	; 0x800d20 <temporary_password>
    268e:	84 e0       	ldi	r24, 0x04	; 4
    2690:	80 93 e4 0f 	sts	0x0FE4, r24	; 0x800fe4 <removeusers>
    2694:	8a c0       	rjmp	.+276    	; 0x27aa <RemoveUsers_Tick+0x61c>
    2696:	10 92 29 0d 	sts	0x0D29, r1	; 0x800d29 <removeuser_password_fails>
    269a:	10 92 30 0d 	sts	0x0D30, r1	; 0x800d30 <password_size>
    269e:	e0 e2       	ldi	r30, 0x20	; 32
    26a0:	fd e0       	ldi	r31, 0x0D	; 13
    26a2:	88 e2       	ldi	r24, 0x28	; 40
    26a4:	9d e0       	ldi	r25, 0x0D	; 13
    26a6:	11 92       	st	Z+, r1
    26a8:	8e 17       	cp	r24, r30
    26aa:	9f 07       	cpc	r25, r31
    26ac:	e1 f7       	brne	.-8      	; 0x26a6 <RemoveUsers_Tick+0x518>
    26ae:	10 92 20 0d 	sts	0x0D20, r1	; 0x800d20 <temporary_password>
    26b2:	10 92 e4 0f 	sts	0x0FE4, r1	; 0x800fe4 <removeusers>
    26b6:	79 c0       	rjmp	.+242    	; 0x27aa <RemoveUsers_Tick+0x61c>
    26b8:	80 91 2b 0d 	lds	r24, 0x0D2B	; 0x800d2b <removeuser_selection>
    26bc:	83 32       	cpi	r24, 0x23	; 35
    26be:	09 f0       	breq	.+2      	; 0x26c2 <RemoveUsers_Tick+0x534>
    26c0:	3d c0       	rjmp	.+122    	; 0x273c <RemoveUsers_Tick+0x5ae>
    26c2:	80 91 01 01 	lds	r24, 0x0101	; 0x800101 <user_to_remove>
    26c6:	81 11       	cpse	r24, r1
    26c8:	0e c0       	rjmp	.+28     	; 0x26e6 <RemoveUsers_Tick+0x558>
    26ca:	61 e0       	ldi	r22, 0x01	; 1
    26cc:	9c dc       	rcall	.-1736   	; 0x2006 <swap_users>
    26ce:	62 e0       	ldi	r22, 0x02	; 2
    26d0:	81 e0       	ldi	r24, 0x01	; 1
    26d2:	99 dc       	rcall	.-1742   	; 0x2006 <swap_users>
    26d4:	63 e0       	ldi	r22, 0x03	; 3
    26d6:	82 e0       	ldi	r24, 0x02	; 2
    26d8:	96 dc       	rcall	.-1748   	; 0x2006 <swap_users>
    26da:	80 91 6b 0d 	lds	r24, 0x0D6B	; 0x800d6b <number_of_users>
    26de:	81 50       	subi	r24, 0x01	; 1
    26e0:	80 93 6b 0d 	sts	0x0D6B, r24	; 0x800d6b <number_of_users>
    26e4:	16 c0       	rjmp	.+44     	; 0x2712 <RemoveUsers_Tick+0x584>
    26e6:	81 30       	cpi	r24, 0x01	; 1
    26e8:	59 f4       	brne	.+22     	; 0x2700 <RemoveUsers_Tick+0x572>
    26ea:	62 e0       	ldi	r22, 0x02	; 2
    26ec:	8c dc       	rcall	.-1768   	; 0x2006 <swap_users>
    26ee:	63 e0       	ldi	r22, 0x03	; 3
    26f0:	82 e0       	ldi	r24, 0x02	; 2
    26f2:	89 dc       	rcall	.-1774   	; 0x2006 <swap_users>
    26f4:	80 91 6b 0d 	lds	r24, 0x0D6B	; 0x800d6b <number_of_users>
    26f8:	81 50       	subi	r24, 0x01	; 1
    26fa:	80 93 6b 0d 	sts	0x0D6B, r24	; 0x800d6b <number_of_users>
    26fe:	09 c0       	rjmp	.+18     	; 0x2712 <RemoveUsers_Tick+0x584>
    2700:	82 30       	cpi	r24, 0x02	; 2
    2702:	a1 f1       	breq	.+104    	; 0x276c <RemoveUsers_Tick+0x5de>
    2704:	83 30       	cpi	r24, 0x03	; 3
    2706:	29 f4       	brne	.+10     	; 0x2712 <RemoveUsers_Tick+0x584>
    2708:	80 91 6b 0d 	lds	r24, 0x0D6B	; 0x800d6b <number_of_users>
    270c:	81 50       	subi	r24, 0x01	; 1
    270e:	80 93 6b 0d 	sts	0x0D6B, r24	; 0x800d6b <number_of_users>
    2712:	10 92 29 0d 	sts	0x0D29, r1	; 0x800d29 <removeuser_password_fails>
    2716:	10 92 30 0d 	sts	0x0D30, r1	; 0x800d30 <password_size>
    271a:	e0 e2       	ldi	r30, 0x20	; 32
    271c:	fd e0       	ldi	r31, 0x0D	; 13
    271e:	88 e2       	ldi	r24, 0x28	; 40
    2720:	9d e0       	ldi	r25, 0x0D	; 13
    2722:	11 92       	st	Z+, r1
    2724:	e8 17       	cp	r30, r24
    2726:	f9 07       	cpc	r31, r25
    2728:	e1 f7       	brne	.-8      	; 0x2722 <RemoveUsers_Tick+0x594>
    272a:	10 92 20 0d 	sts	0x0D20, r1	; 0x800d20 <temporary_password>
    272e:	10 92 70 0d 	sts	0x0D70, r1	; 0x800d70 <removeusers_flag>
    2732:	0e 94 cc 03 	call	0x798	; 0x798 <main_menu_display>
    2736:	10 92 e4 0f 	sts	0x0FE4, r1	; 0x800fe4 <removeusers>
    273a:	37 c0       	rjmp	.+110    	; 0x27aa <RemoveUsers_Tick+0x61c>
    273c:	8a 32       	cpi	r24, 0x2A	; 42
    273e:	a9 f5       	brne	.+106    	; 0x27aa <RemoveUsers_Tick+0x61c>
    2740:	0e 94 45 05 	call	0xa8a	; 0xa8a <removeusers_intro>
    2744:	10 92 29 0d 	sts	0x0D29, r1	; 0x800d29 <removeuser_password_fails>
    2748:	10 92 30 0d 	sts	0x0D30, r1	; 0x800d30 <password_size>
    274c:	e0 e2       	ldi	r30, 0x20	; 32
    274e:	fd e0       	ldi	r31, 0x0D	; 13
    2750:	88 e2       	ldi	r24, 0x28	; 40
    2752:	9d e0       	ldi	r25, 0x0D	; 13
    2754:	11 92       	st	Z+, r1
    2756:	8e 17       	cp	r24, r30
    2758:	9f 07       	cpc	r25, r31
    275a:	e1 f7       	brne	.-8      	; 0x2754 <RemoveUsers_Tick+0x5c6>
    275c:	10 92 20 0d 	sts	0x0D20, r1	; 0x800d20 <temporary_password>
    2760:	10 92 e4 0f 	sts	0x0FE4, r1	; 0x800fe4 <removeusers>
    2764:	22 c0       	rjmp	.+68     	; 0x27aa <RemoveUsers_Tick+0x61c>
    2766:	10 92 e4 0f 	sts	0x0FE4, r1	; 0x800fe4 <removeusers>
    276a:	1f c0       	rjmp	.+62     	; 0x27aa <RemoveUsers_Tick+0x61c>
    276c:	63 e0       	ldi	r22, 0x03	; 3
    276e:	82 e0       	ldi	r24, 0x02	; 2
    2770:	4a dc       	rcall	.-1900   	; 0x2006 <swap_users>
    2772:	80 91 6b 0d 	lds	r24, 0x0D6B	; 0x800d6b <number_of_users>
    2776:	81 50       	subi	r24, 0x01	; 1
    2778:	80 93 6b 0d 	sts	0x0D6B, r24	; 0x800d6b <number_of_users>
    277c:	ca cf       	rjmp	.-108    	; 0x2712 <RemoveUsers_Tick+0x584>
    277e:	80 91 e4 0f 	lds	r24, 0x0FE4	; 0x800fe4 <removeusers>
    2782:	82 30       	cpi	r24, 0x02	; 2
    2784:	09 f4       	brne	.+2      	; 0x2788 <RemoveUsers_Tick+0x5fa>
    2786:	9b ce       	rjmp	.-714    	; 0x24be <RemoveUsers_Tick+0x330>
    2788:	38 f4       	brcc	.+14     	; 0x2798 <RemoveUsers_Tick+0x60a>
    278a:	88 23       	and	r24, r24
    278c:	09 f4       	brne	.+2      	; 0x2790 <RemoveUsers_Tick+0x602>
    278e:	58 ce       	rjmp	.-848    	; 0x2440 <RemoveUsers_Tick+0x2b2>
    2790:	81 30       	cpi	r24, 0x01	; 1
    2792:	09 f4       	brne	.+2      	; 0x2796 <RemoveUsers_Tick+0x608>
    2794:	8a ce       	rjmp	.-748    	; 0x24aa <RemoveUsers_Tick+0x31c>
    2796:	e7 cf       	rjmp	.-50     	; 0x2766 <RemoveUsers_Tick+0x5d8>
    2798:	84 30       	cpi	r24, 0x04	; 4
    279a:	09 f4       	brne	.+2      	; 0x279e <RemoveUsers_Tick+0x610>
    279c:	ea ce       	rjmp	.-556    	; 0x2572 <RemoveUsers_Tick+0x3e4>
    279e:	08 f4       	brcc	.+2      	; 0x27a2 <RemoveUsers_Tick+0x614>
    27a0:	93 ce       	rjmp	.-730    	; 0x24c8 <RemoveUsers_Tick+0x33a>
    27a2:	85 30       	cpi	r24, 0x05	; 5
    27a4:	09 f4       	brne	.+2      	; 0x27a8 <RemoveUsers_Tick+0x61a>
    27a6:	88 cf       	rjmp	.-240    	; 0x26b8 <RemoveUsers_Tick+0x52a>
    27a8:	de cf       	rjmp	.-68     	; 0x2766 <RemoveUsers_Tick+0x5d8>
    27aa:	df 91       	pop	r29
    27ac:	cf 91       	pop	r28
    27ae:	1f 91       	pop	r17
    27b0:	0f 91       	pop	r16
    27b2:	ff 90       	pop	r15
    27b4:	08 95       	ret

000027b6 <RemoveUsersTask>:
    27b6:	10 92 e4 0f 	sts	0x0FE4, r1	; 0x800fe4 <removeusers>
    27ba:	e9 dc       	rcall	.-1582   	; 0x218e <RemoveUsers_Tick>
    27bc:	84 e6       	ldi	r24, 0x64	; 100
    27be:	90 e0       	ldi	r25, 0x00	; 0
    27c0:	0e 94 84 29 	call	0x5308	; 0x5308 <vTaskDelay>
    27c4:	fa cf       	rjmp	.-12     	; 0x27ba <RemoveUsersTask+0x4>

000027c6 <RemoveUsersPulse>:
    27c6:	af 92       	push	r10
    27c8:	bf 92       	push	r11
    27ca:	cf 92       	push	r12
    27cc:	df 92       	push	r13
    27ce:	ef 92       	push	r14
    27d0:	ff 92       	push	r15
    27d2:	0f 93       	push	r16
    27d4:	a1 2c       	mov	r10, r1
    27d6:	b1 2c       	mov	r11, r1
    27d8:	c1 2c       	mov	r12, r1
    27da:	d1 2c       	mov	r13, r1
    27dc:	e1 2c       	mov	r14, r1
    27de:	f1 2c       	mov	r15, r1
    27e0:	08 2f       	mov	r16, r24
    27e2:	20 e0       	ldi	r18, 0x00	; 0
    27e4:	30 e0       	ldi	r19, 0x00	; 0
    27e6:	45 e5       	ldi	r20, 0x55	; 85
    27e8:	50 e0       	ldi	r21, 0x00	; 0
    27ea:	68 ef       	ldi	r22, 0xF8	; 248
    27ec:	73 e0       	ldi	r23, 0x03	; 3
    27ee:	8b ed       	ldi	r24, 0xDB	; 219
    27f0:	93 e1       	ldi	r25, 0x13	; 19
    27f2:	0e 94 0c 27 	call	0x4e18	; 0x4e18 <xTaskGenericCreate>
    27f6:	0f 91       	pop	r16
    27f8:	ff 90       	pop	r15
    27fa:	ef 90       	pop	r14
    27fc:	df 90       	pop	r13
    27fe:	cf 90       	pop	r12
    2800:	bf 90       	pop	r11
    2802:	af 90       	pop	r10
    2804:	08 95       	ret

00002806 <AddDrink_Tick>:
    2806:	4f 92       	push	r4
    2808:	5f 92       	push	r5
    280a:	6f 92       	push	r6
    280c:	7f 92       	push	r7
    280e:	bf 92       	push	r11
    2810:	cf 92       	push	r12
    2812:	df 92       	push	r13
    2814:	ef 92       	push	r14
    2816:	ff 92       	push	r15
    2818:	0f 93       	push	r16
    281a:	1f 93       	push	r17
    281c:	cf 93       	push	r28
    281e:	df 93       	push	r29
    2820:	80 91 e1 0f 	lds	r24, 0x0FE1	; 0x800fe1 <add_drink_state>
    2824:	85 30       	cpi	r24, 0x05	; 5
    2826:	09 f4       	brne	.+2      	; 0x282a <AddDrink_Tick+0x24>
    2828:	4d c0       	rjmp	.+154    	; 0x28c4 <AddDrink_Tick+0xbe>
    282a:	28 f4       	brcc	.+10     	; 0x2836 <AddDrink_Tick+0x30>
    282c:	81 30       	cpi	r24, 0x01	; 1
    282e:	91 f0       	breq	.+36     	; 0x2854 <AddDrink_Tick+0x4e>
    2830:	84 30       	cpi	r24, 0x04	; 4
    2832:	61 f1       	breq	.+88     	; 0x288c <AddDrink_Tick+0x86>
    2834:	36 c3       	rjmp	.+1644   	; 0x2ea2 <AddDrink_Tick+0x69c>
    2836:	87 30       	cpi	r24, 0x07	; 7
    2838:	09 f4       	brne	.+2      	; 0x283c <AddDrink_Tick+0x36>
    283a:	1f c2       	rjmp	.+1086   	; 0x2c7a <AddDrink_Tick+0x474>
    283c:	08 f4       	brcc	.+2      	; 0x2840 <AddDrink_Tick+0x3a>
    283e:	5e c0       	rjmp	.+188    	; 0x28fc <AddDrink_Tick+0xf6>
    2840:	88 30       	cpi	r24, 0x08	; 8
    2842:	09 f4       	brne	.+2      	; 0x2846 <AddDrink_Tick+0x40>
    2844:	19 c3       	rjmp	.+1586   	; 0x2e78 <AddDrink_Tick+0x672>
    2846:	2d c3       	rjmp	.+1626   	; 0x2ea2 <AddDrink_Tick+0x69c>
    2848:	8f e4       	ldi	r24, 0x4F	; 79
    284a:	93 ec       	ldi	r25, 0xC3	; 195
    284c:	01 97       	sbiw	r24, 0x01	; 1
    284e:	f1 f7       	brne	.-4      	; 0x284c <AddDrink_Tick+0x46>
    2850:	00 c0       	rjmp	.+0      	; 0x2852 <AddDrink_Tick+0x4c>
    2852:	00 00       	nop
    2854:	0e 94 80 04 	call	0x900	; 0x900 <GetKeypadKey>
    2858:	80 93 5e 0d 	sts	0x0D5E, r24	; 0x800d5e <add_drink_selection>
    285c:	88 23       	and	r24, r24
    285e:	a1 f3       	breq	.-24     	; 0x2848 <AddDrink_Tick+0x42>
    2860:	06 c0       	rjmp	.+12     	; 0x286e <AddDrink_Tick+0x68>
    2862:	ef e4       	ldi	r30, 0x4F	; 79
    2864:	f3 ec       	ldi	r31, 0xC3	; 195
    2866:	31 97       	sbiw	r30, 0x01	; 1
    2868:	f1 f7       	brne	.-4      	; 0x2866 <AddDrink_Tick+0x60>
    286a:	00 c0       	rjmp	.+0      	; 0x286c <AddDrink_Tick+0x66>
    286c:	00 00       	nop
    286e:	0e 94 80 04 	call	0x900	; 0x900 <GetKeypadKey>
    2872:	80 93 5d 0d 	sts	0x0D5D, r24	; 0x800d5d <add_drink_prev_select>
    2876:	90 91 5e 0d 	lds	r25, 0x0D5E	; 0x800d5e <add_drink_selection>
    287a:	89 17       	cp	r24, r25
    287c:	91 f3       	breq	.-28     	; 0x2862 <AddDrink_Tick+0x5c>
    287e:	11 c3       	rjmp	.+1570   	; 0x2ea2 <AddDrink_Tick+0x69c>
    2880:	8f e4       	ldi	r24, 0x4F	; 79
    2882:	93 ec       	ldi	r25, 0xC3	; 195
    2884:	01 97       	sbiw	r24, 0x01	; 1
    2886:	f1 f7       	brne	.-4      	; 0x2884 <AddDrink_Tick+0x7e>
    2888:	00 c0       	rjmp	.+0      	; 0x288a <AddDrink_Tick+0x84>
    288a:	00 00       	nop
    288c:	0e 94 80 04 	call	0x900	; 0x900 <GetKeypadKey>
    2890:	80 93 5e 0d 	sts	0x0D5E, r24	; 0x800d5e <add_drink_selection>
    2894:	88 23       	and	r24, r24
    2896:	a1 f3       	breq	.-24     	; 0x2880 <AddDrink_Tick+0x7a>
    2898:	06 c0       	rjmp	.+12     	; 0x28a6 <AddDrink_Tick+0xa0>
    289a:	ef e4       	ldi	r30, 0x4F	; 79
    289c:	f3 ec       	ldi	r31, 0xC3	; 195
    289e:	31 97       	sbiw	r30, 0x01	; 1
    28a0:	f1 f7       	brne	.-4      	; 0x289e <AddDrink_Tick+0x98>
    28a2:	00 c0       	rjmp	.+0      	; 0x28a4 <AddDrink_Tick+0x9e>
    28a4:	00 00       	nop
    28a6:	0e 94 80 04 	call	0x900	; 0x900 <GetKeypadKey>
    28aa:	80 93 5d 0d 	sts	0x0D5D, r24	; 0x800d5d <add_drink_prev_select>
    28ae:	90 91 5e 0d 	lds	r25, 0x0D5E	; 0x800d5e <add_drink_selection>
    28b2:	89 17       	cp	r24, r25
    28b4:	91 f3       	breq	.-28     	; 0x289a <AddDrink_Tick+0x94>
    28b6:	f5 c2       	rjmp	.+1514   	; 0x2ea2 <AddDrink_Tick+0x69c>
    28b8:	8f e4       	ldi	r24, 0x4F	; 79
    28ba:	93 ec       	ldi	r25, 0xC3	; 195
    28bc:	01 97       	sbiw	r24, 0x01	; 1
    28be:	f1 f7       	brne	.-4      	; 0x28bc <AddDrink_Tick+0xb6>
    28c0:	00 c0       	rjmp	.+0      	; 0x28c2 <AddDrink_Tick+0xbc>
    28c2:	00 00       	nop
    28c4:	0e 94 80 04 	call	0x900	; 0x900 <GetKeypadKey>
    28c8:	80 93 5e 0d 	sts	0x0D5E, r24	; 0x800d5e <add_drink_selection>
    28cc:	88 23       	and	r24, r24
    28ce:	a1 f3       	breq	.-24     	; 0x28b8 <AddDrink_Tick+0xb2>
    28d0:	06 c0       	rjmp	.+12     	; 0x28de <AddDrink_Tick+0xd8>
    28d2:	ef e4       	ldi	r30, 0x4F	; 79
    28d4:	f3 ec       	ldi	r31, 0xC3	; 195
    28d6:	31 97       	sbiw	r30, 0x01	; 1
    28d8:	f1 f7       	brne	.-4      	; 0x28d6 <AddDrink_Tick+0xd0>
    28da:	00 c0       	rjmp	.+0      	; 0x28dc <AddDrink_Tick+0xd6>
    28dc:	00 00       	nop
    28de:	0e 94 80 04 	call	0x900	; 0x900 <GetKeypadKey>
    28e2:	80 93 5d 0d 	sts	0x0D5D, r24	; 0x800d5d <add_drink_prev_select>
    28e6:	90 91 5e 0d 	lds	r25, 0x0D5E	; 0x800d5e <add_drink_selection>
    28ea:	89 17       	cp	r24, r25
    28ec:	91 f3       	breq	.-28     	; 0x28d2 <AddDrink_Tick+0xcc>
    28ee:	d9 c2       	rjmp	.+1458   	; 0x2ea2 <AddDrink_Tick+0x69c>
    28f0:	8f e4       	ldi	r24, 0x4F	; 79
    28f2:	93 ec       	ldi	r25, 0xC3	; 195
    28f4:	01 97       	sbiw	r24, 0x01	; 1
    28f6:	f1 f7       	brne	.-4      	; 0x28f4 <AddDrink_Tick+0xee>
    28f8:	00 c0       	rjmp	.+0      	; 0x28fa <AddDrink_Tick+0xf4>
    28fa:	00 00       	nop
    28fc:	0e 94 80 04 	call	0x900	; 0x900 <GetKeypadKey>
    2900:	80 93 5e 0d 	sts	0x0D5E, r24	; 0x800d5e <add_drink_selection>
    2904:	88 23       	and	r24, r24
    2906:	a1 f3       	breq	.-24     	; 0x28f0 <AddDrink_Tick+0xea>
    2908:	06 c0       	rjmp	.+12     	; 0x2916 <AddDrink_Tick+0x110>
    290a:	ef e4       	ldi	r30, 0x4F	; 79
    290c:	f3 ec       	ldi	r31, 0xC3	; 195
    290e:	31 97       	sbiw	r30, 0x01	; 1
    2910:	f1 f7       	brne	.-4      	; 0x290e <AddDrink_Tick+0x108>
    2912:	00 c0       	rjmp	.+0      	; 0x2914 <AddDrink_Tick+0x10e>
    2914:	00 00       	nop
    2916:	0e 94 80 04 	call	0x900	; 0x900 <GetKeypadKey>
    291a:	80 93 5d 0d 	sts	0x0D5D, r24	; 0x800d5d <add_drink_prev_select>
    291e:	90 91 5e 0d 	lds	r25, 0x0D5E	; 0x800d5e <add_drink_selection>
    2922:	89 17       	cp	r24, r25
    2924:	91 f3       	breq	.-28     	; 0x290a <AddDrink_Tick+0x104>
    2926:	0f 2e       	mov	r0, r31
    2928:	f5 e4       	ldi	r31, 0x45	; 69
    292a:	cf 2e       	mov	r12, r31
    292c:	f1 e0       	ldi	r31, 0x01	; 1
    292e:	df 2e       	mov	r13, r31
    2930:	f0 2d       	mov	r31, r0
    2932:	0f 2e       	mov	r0, r31
    2934:	ff e5       	ldi	r31, 0x5F	; 95
    2936:	bf 2e       	mov	r11, r31
    2938:	f0 2d       	mov	r31, r0
    293a:	93 c1       	rjmp	.+806    	; 0x2c62 <AddDrink_Tick+0x45c>
    293c:	88 23       	and	r24, r24
    293e:	09 f4       	brne	.+2      	; 0x2942 <AddDrink_Tick+0x13c>
    2940:	7b c1       	rjmp	.+758    	; 0x2c38 <AddDrink_Tick+0x432>
    2942:	8a 32       	cpi	r24, 0x2A	; 42
    2944:	09 f4       	brne	.+2      	; 0x2948 <AddDrink_Tick+0x142>
    2946:	45 c1       	rjmp	.+650    	; 0x2bd2 <AddDrink_Tick+0x3cc>
    2948:	40 91 58 0d 	lds	r20, 0x0D58	; 0x800d58 <volume_of_drink>
    294c:	50 91 59 0d 	lds	r21, 0x0D59	; 0x800d59 <volume_of_drink+0x1>
    2950:	60 91 5a 0d 	lds	r22, 0x0D5A	; 0x800d5a <volume_of_drink+0x2>
    2954:	70 91 5b 0d 	lds	r23, 0x0D5B	; 0x800d5b <volume_of_drink+0x3>
    2958:	41 15       	cp	r20, r1
    295a:	51 05       	cpc	r21, r1
    295c:	61 05       	cpc	r22, r1
    295e:	71 05       	cpc	r23, r1
    2960:	91 f5       	brne	.+100    	; 0x29c6 <AddDrink_Tick+0x1c0>
    2962:	48 2f       	mov	r20, r24
    2964:	50 e0       	ldi	r21, 0x00	; 0
    2966:	40 53       	subi	r20, 0x30	; 48
    2968:	51 09       	sbc	r21, r1
    296a:	05 2e       	mov	r0, r21
    296c:	00 0c       	add	r0, r0
    296e:	66 0b       	sbc	r22, r22
    2970:	77 0b       	sbc	r23, r23
    2972:	40 93 58 0d 	sts	0x0D58, r20	; 0x800d58 <volume_of_drink>
    2976:	50 93 59 0d 	sts	0x0D59, r21	; 0x800d59 <volume_of_drink+0x1>
    297a:	60 93 5a 0d 	sts	0x0D5A, r22	; 0x800d5a <volume_of_drink+0x2>
    297e:	70 93 5b 0d 	sts	0x0D5B, r23	; 0x800d5b <volume_of_drink+0x3>
    2982:	f6 01       	movw	r30, r12
    2984:	80 83       	st	Z, r24
    2986:	0e 94 68 24 	call	0x48d0	; 0x48d0 <nokia_lcd_clear>
    298a:	61 e0       	ldi	r22, 0x01	; 1
    298c:	8e e7       	ldi	r24, 0x7E	; 126
    298e:	92 e0       	ldi	r25, 0x02	; 2
    2990:	0e 94 4e 25 	call	0x4a9c	; 0x4a9c <nokia_lcd_write_string>
    2994:	6a e0       	ldi	r22, 0x0A	; 10
    2996:	80 e0       	ldi	r24, 0x00	; 0
    2998:	0e 94 60 25 	call	0x4ac0	; 0x4ac0 <nokia_lcd_set_cursor>
    299c:	61 e0       	ldi	r22, 0x01	; 1
    299e:	84 e8       	ldi	r24, 0x84	; 132
    29a0:	92 e0       	ldi	r25, 0x02	; 2
    29a2:	0e 94 4e 25 	call	0x4a9c	; 0x4a9c <nokia_lcd_write_string>
    29a6:	64 e1       	ldi	r22, 0x14	; 20
    29a8:	80 e0       	ldi	r24, 0x00	; 0
    29aa:	0e 94 60 25 	call	0x4ac0	; 0x4ac0 <nokia_lcd_set_cursor>
    29ae:	61 e0       	ldi	r22, 0x01	; 1
    29b0:	c6 01       	movw	r24, r12
    29b2:	0e 94 4e 25 	call	0x4a9c	; 0x4a9c <nokia_lcd_write_string>
    29b6:	61 e0       	ldi	r22, 0x01	; 1
    29b8:	8a e8       	ldi	r24, 0x8A	; 138
    29ba:	92 e0       	ldi	r25, 0x02	; 2
    29bc:	0e 94 4e 25 	call	0x4a9c	; 0x4a9c <nokia_lcd_write_string>
    29c0:	0e 94 65 25 	call	0x4aca	; 0x4aca <nokia_lcd_render>
    29c4:	39 c1       	rjmp	.+626    	; 0x2c38 <AddDrink_Tick+0x432>
    29c6:	2a 01       	movw	r4, r20
    29c8:	3b 01       	movw	r6, r22
    29ca:	f1 e0       	ldi	r31, 0x01	; 1
    29cc:	4f 1a       	sub	r4, r31
    29ce:	51 08       	sbc	r5, r1
    29d0:	61 08       	sbc	r6, r1
    29d2:	71 08       	sbc	r7, r1
    29d4:	29 e0       	ldi	r18, 0x09	; 9
    29d6:	42 16       	cp	r4, r18
    29d8:	51 04       	cpc	r5, r1
    29da:	61 04       	cpc	r6, r1
    29dc:	71 04       	cpc	r7, r1
    29de:	08 f0       	brcs	.+2      	; 0x29e2 <AddDrink_Tick+0x1dc>
    29e0:	49 c0       	rjmp	.+146    	; 0x2a74 <AddDrink_Tick+0x26e>
    29e2:	44 0f       	add	r20, r20
    29e4:	55 1f       	adc	r21, r21
    29e6:	66 1f       	adc	r22, r22
    29e8:	77 1f       	adc	r23, r23
    29ea:	2a 01       	movw	r4, r20
    29ec:	3b 01       	movw	r6, r22
    29ee:	44 0c       	add	r4, r4
    29f0:	55 1c       	adc	r5, r5
    29f2:	66 1c       	adc	r6, r6
    29f4:	77 1c       	adc	r7, r7
    29f6:	44 0c       	add	r4, r4
    29f8:	55 1c       	adc	r5, r5
    29fa:	66 1c       	adc	r6, r6
    29fc:	77 1c       	adc	r7, r7
    29fe:	44 0d       	add	r20, r4
    2a00:	55 1d       	adc	r21, r5
    2a02:	66 1d       	adc	r22, r6
    2a04:	77 1d       	adc	r23, r7
    2a06:	48 2e       	mov	r4, r24
    2a08:	51 2c       	mov	r5, r1
    2a0a:	90 e3       	ldi	r25, 0x30	; 48
    2a0c:	49 1a       	sub	r4, r25
    2a0e:	51 08       	sbc	r5, r1
    2a10:	05 2c       	mov	r0, r5
    2a12:	00 0c       	add	r0, r0
    2a14:	66 08       	sbc	r6, r6
    2a16:	77 08       	sbc	r7, r7
    2a18:	44 0d       	add	r20, r4
    2a1a:	55 1d       	adc	r21, r5
    2a1c:	66 1d       	adc	r22, r6
    2a1e:	77 1d       	adc	r23, r7
    2a20:	40 93 58 0d 	sts	0x0D58, r20	; 0x800d58 <volume_of_drink>
    2a24:	50 93 59 0d 	sts	0x0D59, r21	; 0x800d59 <volume_of_drink+0x1>
    2a28:	60 93 5a 0d 	sts	0x0D5A, r22	; 0x800d5a <volume_of_drink+0x2>
    2a2c:	70 93 5b 0d 	sts	0x0D5B, r23	; 0x800d5b <volume_of_drink+0x3>
    2a30:	f6 01       	movw	r30, r12
    2a32:	81 83       	std	Z+1, r24	; 0x01
    2a34:	0e 94 68 24 	call	0x48d0	; 0x48d0 <nokia_lcd_clear>
    2a38:	61 e0       	ldi	r22, 0x01	; 1
    2a3a:	8e e7       	ldi	r24, 0x7E	; 126
    2a3c:	92 e0       	ldi	r25, 0x02	; 2
    2a3e:	0e 94 4e 25 	call	0x4a9c	; 0x4a9c <nokia_lcd_write_string>
    2a42:	6a e0       	ldi	r22, 0x0A	; 10
    2a44:	80 e0       	ldi	r24, 0x00	; 0
    2a46:	0e 94 60 25 	call	0x4ac0	; 0x4ac0 <nokia_lcd_set_cursor>
    2a4a:	61 e0       	ldi	r22, 0x01	; 1
    2a4c:	84 e8       	ldi	r24, 0x84	; 132
    2a4e:	92 e0       	ldi	r25, 0x02	; 2
    2a50:	0e 94 4e 25 	call	0x4a9c	; 0x4a9c <nokia_lcd_write_string>
    2a54:	64 e1       	ldi	r22, 0x14	; 20
    2a56:	80 e0       	ldi	r24, 0x00	; 0
    2a58:	0e 94 60 25 	call	0x4ac0	; 0x4ac0 <nokia_lcd_set_cursor>
    2a5c:	61 e0       	ldi	r22, 0x01	; 1
    2a5e:	c6 01       	movw	r24, r12
    2a60:	0e 94 4e 25 	call	0x4a9c	; 0x4a9c <nokia_lcd_write_string>
    2a64:	61 e0       	ldi	r22, 0x01	; 1
    2a66:	8a e8       	ldi	r24, 0x8A	; 138
    2a68:	92 e0       	ldi	r25, 0x02	; 2
    2a6a:	0e 94 4e 25 	call	0x4a9c	; 0x4a9c <nokia_lcd_write_string>
    2a6e:	0e 94 65 25 	call	0x4aca	; 0x4aca <nokia_lcd_render>
    2a72:	e2 c0       	rjmp	.+452    	; 0x2c38 <AddDrink_Tick+0x432>
    2a74:	2a 01       	movw	r4, r20
    2a76:	3b 01       	movw	r6, r22
    2a78:	fa e0       	ldi	r31, 0x0A	; 10
    2a7a:	4f 1a       	sub	r4, r31
    2a7c:	51 08       	sbc	r5, r1
    2a7e:	61 08       	sbc	r6, r1
    2a80:	71 08       	sbc	r7, r1
    2a82:	2a e5       	ldi	r18, 0x5A	; 90
    2a84:	42 16       	cp	r4, r18
    2a86:	51 04       	cpc	r5, r1
    2a88:	61 04       	cpc	r6, r1
    2a8a:	71 04       	cpc	r7, r1
    2a8c:	08 f0       	brcs	.+2      	; 0x2a90 <AddDrink_Tick+0x28a>
    2a8e:	49 c0       	rjmp	.+146    	; 0x2b22 <AddDrink_Tick+0x31c>
    2a90:	44 0f       	add	r20, r20
    2a92:	55 1f       	adc	r21, r21
    2a94:	66 1f       	adc	r22, r22
    2a96:	77 1f       	adc	r23, r23
    2a98:	2a 01       	movw	r4, r20
    2a9a:	3b 01       	movw	r6, r22
    2a9c:	44 0c       	add	r4, r4
    2a9e:	55 1c       	adc	r5, r5
    2aa0:	66 1c       	adc	r6, r6
    2aa2:	77 1c       	adc	r7, r7
    2aa4:	44 0c       	add	r4, r4
    2aa6:	55 1c       	adc	r5, r5
    2aa8:	66 1c       	adc	r6, r6
    2aaa:	77 1c       	adc	r7, r7
    2aac:	44 0d       	add	r20, r4
    2aae:	55 1d       	adc	r21, r5
    2ab0:	66 1d       	adc	r22, r6
    2ab2:	77 1d       	adc	r23, r7
    2ab4:	48 2e       	mov	r4, r24
    2ab6:	51 2c       	mov	r5, r1
    2ab8:	90 e3       	ldi	r25, 0x30	; 48
    2aba:	49 1a       	sub	r4, r25
    2abc:	51 08       	sbc	r5, r1
    2abe:	05 2c       	mov	r0, r5
    2ac0:	00 0c       	add	r0, r0
    2ac2:	66 08       	sbc	r6, r6
    2ac4:	77 08       	sbc	r7, r7
    2ac6:	44 0d       	add	r20, r4
    2ac8:	55 1d       	adc	r21, r5
    2aca:	66 1d       	adc	r22, r6
    2acc:	77 1d       	adc	r23, r7
    2ace:	40 93 58 0d 	sts	0x0D58, r20	; 0x800d58 <volume_of_drink>
    2ad2:	50 93 59 0d 	sts	0x0D59, r21	; 0x800d59 <volume_of_drink+0x1>
    2ad6:	60 93 5a 0d 	sts	0x0D5A, r22	; 0x800d5a <volume_of_drink+0x2>
    2ada:	70 93 5b 0d 	sts	0x0D5B, r23	; 0x800d5b <volume_of_drink+0x3>
    2ade:	f6 01       	movw	r30, r12
    2ae0:	82 83       	std	Z+2, r24	; 0x02
    2ae2:	0e 94 68 24 	call	0x48d0	; 0x48d0 <nokia_lcd_clear>
    2ae6:	61 e0       	ldi	r22, 0x01	; 1
    2ae8:	8e e7       	ldi	r24, 0x7E	; 126
    2aea:	92 e0       	ldi	r25, 0x02	; 2
    2aec:	0e 94 4e 25 	call	0x4a9c	; 0x4a9c <nokia_lcd_write_string>
    2af0:	6a e0       	ldi	r22, 0x0A	; 10
    2af2:	80 e0       	ldi	r24, 0x00	; 0
    2af4:	0e 94 60 25 	call	0x4ac0	; 0x4ac0 <nokia_lcd_set_cursor>
    2af8:	61 e0       	ldi	r22, 0x01	; 1
    2afa:	84 e8       	ldi	r24, 0x84	; 132
    2afc:	92 e0       	ldi	r25, 0x02	; 2
    2afe:	0e 94 4e 25 	call	0x4a9c	; 0x4a9c <nokia_lcd_write_string>
    2b02:	64 e1       	ldi	r22, 0x14	; 20
    2b04:	80 e0       	ldi	r24, 0x00	; 0
    2b06:	0e 94 60 25 	call	0x4ac0	; 0x4ac0 <nokia_lcd_set_cursor>
    2b0a:	61 e0       	ldi	r22, 0x01	; 1
    2b0c:	c6 01       	movw	r24, r12
    2b0e:	0e 94 4e 25 	call	0x4a9c	; 0x4a9c <nokia_lcd_write_string>
    2b12:	61 e0       	ldi	r22, 0x01	; 1
    2b14:	8a e8       	ldi	r24, 0x8A	; 138
    2b16:	92 e0       	ldi	r25, 0x02	; 2
    2b18:	0e 94 4e 25 	call	0x4a9c	; 0x4a9c <nokia_lcd_write_string>
    2b1c:	0e 94 65 25 	call	0x4aca	; 0x4aca <nokia_lcd_render>
    2b20:	8b c0       	rjmp	.+278    	; 0x2c38 <AddDrink_Tick+0x432>
    2b22:	2a 01       	movw	r4, r20
    2b24:	3b 01       	movw	r6, r22
    2b26:	f4 e6       	ldi	r31, 0x64	; 100
    2b28:	4f 1a       	sub	r4, r31
    2b2a:	51 08       	sbc	r5, r1
    2b2c:	61 08       	sbc	r6, r1
    2b2e:	71 08       	sbc	r7, r1
    2b30:	24 e8       	ldi	r18, 0x84	; 132
    2b32:	42 16       	cp	r4, r18
    2b34:	23 e0       	ldi	r18, 0x03	; 3
    2b36:	52 06       	cpc	r5, r18
    2b38:	61 04       	cpc	r6, r1
    2b3a:	71 04       	cpc	r7, r1
    2b3c:	08 f0       	brcs	.+2      	; 0x2b40 <AddDrink_Tick+0x33a>
    2b3e:	7c c0       	rjmp	.+248    	; 0x2c38 <AddDrink_Tick+0x432>
    2b40:	44 0f       	add	r20, r20
    2b42:	55 1f       	adc	r21, r21
    2b44:	66 1f       	adc	r22, r22
    2b46:	77 1f       	adc	r23, r23
    2b48:	2a 01       	movw	r4, r20
    2b4a:	3b 01       	movw	r6, r22
    2b4c:	44 0c       	add	r4, r4
    2b4e:	55 1c       	adc	r5, r5
    2b50:	66 1c       	adc	r6, r6
    2b52:	77 1c       	adc	r7, r7
    2b54:	44 0c       	add	r4, r4
    2b56:	55 1c       	adc	r5, r5
    2b58:	66 1c       	adc	r6, r6
    2b5a:	77 1c       	adc	r7, r7
    2b5c:	44 0d       	add	r20, r4
    2b5e:	55 1d       	adc	r21, r5
    2b60:	66 1d       	adc	r22, r6
    2b62:	77 1d       	adc	r23, r7
    2b64:	48 2e       	mov	r4, r24
    2b66:	51 2c       	mov	r5, r1
    2b68:	90 e3       	ldi	r25, 0x30	; 48
    2b6a:	49 1a       	sub	r4, r25
    2b6c:	51 08       	sbc	r5, r1
    2b6e:	05 2c       	mov	r0, r5
    2b70:	00 0c       	add	r0, r0
    2b72:	66 08       	sbc	r6, r6
    2b74:	77 08       	sbc	r7, r7
    2b76:	44 0d       	add	r20, r4
    2b78:	55 1d       	adc	r21, r5
    2b7a:	66 1d       	adc	r22, r6
    2b7c:	77 1d       	adc	r23, r7
    2b7e:	40 93 58 0d 	sts	0x0D58, r20	; 0x800d58 <volume_of_drink>
    2b82:	50 93 59 0d 	sts	0x0D59, r21	; 0x800d59 <volume_of_drink+0x1>
    2b86:	60 93 5a 0d 	sts	0x0D5A, r22	; 0x800d5a <volume_of_drink+0x2>
    2b8a:	70 93 5b 0d 	sts	0x0D5B, r23	; 0x800d5b <volume_of_drink+0x3>
    2b8e:	f6 01       	movw	r30, r12
    2b90:	83 83       	std	Z+3, r24	; 0x03
    2b92:	0e 94 68 24 	call	0x48d0	; 0x48d0 <nokia_lcd_clear>
    2b96:	61 e0       	ldi	r22, 0x01	; 1
    2b98:	8e e7       	ldi	r24, 0x7E	; 126
    2b9a:	92 e0       	ldi	r25, 0x02	; 2
    2b9c:	0e 94 4e 25 	call	0x4a9c	; 0x4a9c <nokia_lcd_write_string>
    2ba0:	6a e0       	ldi	r22, 0x0A	; 10
    2ba2:	80 e0       	ldi	r24, 0x00	; 0
    2ba4:	0e 94 60 25 	call	0x4ac0	; 0x4ac0 <nokia_lcd_set_cursor>
    2ba8:	61 e0       	ldi	r22, 0x01	; 1
    2baa:	84 e8       	ldi	r24, 0x84	; 132
    2bac:	92 e0       	ldi	r25, 0x02	; 2
    2bae:	0e 94 4e 25 	call	0x4a9c	; 0x4a9c <nokia_lcd_write_string>
    2bb2:	64 e1       	ldi	r22, 0x14	; 20
    2bb4:	80 e0       	ldi	r24, 0x00	; 0
    2bb6:	0e 94 60 25 	call	0x4ac0	; 0x4ac0 <nokia_lcd_set_cursor>
    2bba:	61 e0       	ldi	r22, 0x01	; 1
    2bbc:	c6 01       	movw	r24, r12
    2bbe:	0e 94 4e 25 	call	0x4a9c	; 0x4a9c <nokia_lcd_write_string>
    2bc2:	61 e0       	ldi	r22, 0x01	; 1
    2bc4:	8a e8       	ldi	r24, 0x8A	; 138
    2bc6:	92 e0       	ldi	r25, 0x02	; 2
    2bc8:	0e 94 4e 25 	call	0x4a9c	; 0x4a9c <nokia_lcd_write_string>
    2bcc:	0e 94 65 25 	call	0x4aca	; 0x4aca <nokia_lcd_render>
    2bd0:	33 c0       	rjmp	.+102    	; 0x2c38 <AddDrink_Tick+0x432>
    2bd2:	10 92 58 0d 	sts	0x0D58, r1	; 0x800d58 <volume_of_drink>
    2bd6:	10 92 59 0d 	sts	0x0D59, r1	; 0x800d59 <volume_of_drink+0x1>
    2bda:	10 92 5a 0d 	sts	0x0D5A, r1	; 0x800d5a <volume_of_drink+0x2>
    2bde:	10 92 5b 0d 	sts	0x0D5B, r1	; 0x800d5b <volume_of_drink+0x3>
    2be2:	f6 01       	movw	r30, r12
    2be4:	b0 82       	st	Z, r11
    2be6:	11 82       	std	Z+1, r1	; 0x01
    2be8:	12 82       	std	Z+2, r1	; 0x02
    2bea:	13 82       	std	Z+3, r1	; 0x03
    2bec:	0e 94 68 24 	call	0x48d0	; 0x48d0 <nokia_lcd_clear>
    2bf0:	61 e0       	ldi	r22, 0x01	; 1
    2bf2:	8e e7       	ldi	r24, 0x7E	; 126
    2bf4:	92 e0       	ldi	r25, 0x02	; 2
    2bf6:	0e 94 4e 25 	call	0x4a9c	; 0x4a9c <nokia_lcd_write_string>
    2bfa:	6a e0       	ldi	r22, 0x0A	; 10
    2bfc:	80 e0       	ldi	r24, 0x00	; 0
    2bfe:	0e 94 60 25 	call	0x4ac0	; 0x4ac0 <nokia_lcd_set_cursor>
    2c02:	61 e0       	ldi	r22, 0x01	; 1
    2c04:	84 e8       	ldi	r24, 0x84	; 132
    2c06:	92 e0       	ldi	r25, 0x02	; 2
    2c08:	0e 94 4e 25 	call	0x4a9c	; 0x4a9c <nokia_lcd_write_string>
    2c0c:	64 e1       	ldi	r22, 0x14	; 20
    2c0e:	80 e0       	ldi	r24, 0x00	; 0
    2c10:	0e 94 60 25 	call	0x4ac0	; 0x4ac0 <nokia_lcd_set_cursor>
    2c14:	61 e0       	ldi	r22, 0x01	; 1
    2c16:	c6 01       	movw	r24, r12
    2c18:	0e 94 4e 25 	call	0x4a9c	; 0x4a9c <nokia_lcd_write_string>
    2c1c:	61 e0       	ldi	r22, 0x01	; 1
    2c1e:	8a e8       	ldi	r24, 0x8A	; 138
    2c20:	92 e0       	ldi	r25, 0x02	; 2
    2c22:	0e 94 4e 25 	call	0x4a9c	; 0x4a9c <nokia_lcd_write_string>
    2c26:	0e 94 65 25 	call	0x4aca	; 0x4aca <nokia_lcd_render>
    2c2a:	06 c0       	rjmp	.+12     	; 0x2c38 <AddDrink_Tick+0x432>
    2c2c:	8f e4       	ldi	r24, 0x4F	; 79
    2c2e:	93 ec       	ldi	r25, 0xC3	; 195
    2c30:	01 97       	sbiw	r24, 0x01	; 1
    2c32:	f1 f7       	brne	.-4      	; 0x2c30 <AddDrink_Tick+0x42a>
    2c34:	00 c0       	rjmp	.+0      	; 0x2c36 <AddDrink_Tick+0x430>
    2c36:	00 00       	nop
    2c38:	0e 94 80 04 	call	0x900	; 0x900 <GetKeypadKey>
    2c3c:	80 93 5e 0d 	sts	0x0D5E, r24	; 0x800d5e <add_drink_selection>
    2c40:	88 23       	and	r24, r24
    2c42:	a1 f3       	breq	.-24     	; 0x2c2c <AddDrink_Tick+0x426>
    2c44:	06 c0       	rjmp	.+12     	; 0x2c52 <AddDrink_Tick+0x44c>
    2c46:	ef e4       	ldi	r30, 0x4F	; 79
    2c48:	f3 ec       	ldi	r31, 0xC3	; 195
    2c4a:	31 97       	sbiw	r30, 0x01	; 1
    2c4c:	f1 f7       	brne	.-4      	; 0x2c4a <AddDrink_Tick+0x444>
    2c4e:	00 c0       	rjmp	.+0      	; 0x2c50 <AddDrink_Tick+0x44a>
    2c50:	00 00       	nop
    2c52:	0e 94 80 04 	call	0x900	; 0x900 <GetKeypadKey>
    2c56:	80 93 5d 0d 	sts	0x0D5D, r24	; 0x800d5d <add_drink_prev_select>
    2c5a:	90 91 5e 0d 	lds	r25, 0x0D5E	; 0x800d5e <add_drink_selection>
    2c5e:	89 17       	cp	r24, r25
    2c60:	91 f3       	breq	.-28     	; 0x2c46 <AddDrink_Tick+0x440>
    2c62:	80 91 5e 0d 	lds	r24, 0x0D5E	; 0x800d5e <add_drink_selection>
    2c66:	83 32       	cpi	r24, 0x23	; 35
    2c68:	09 f0       	breq	.+2      	; 0x2c6c <AddDrink_Tick+0x466>
    2c6a:	68 ce       	rjmp	.-816    	; 0x293c <AddDrink_Tick+0x136>
    2c6c:	35 c4       	rjmp	.+2154   	; 0x34d8 <AddDrink_Tick+0xcd2>
    2c6e:	8f e4       	ldi	r24, 0x4F	; 79
    2c70:	93 ec       	ldi	r25, 0xC3	; 195
    2c72:	01 97       	sbiw	r24, 0x01	; 1
    2c74:	f1 f7       	brne	.-4      	; 0x2c72 <AddDrink_Tick+0x46c>
    2c76:	00 c0       	rjmp	.+0      	; 0x2c78 <AddDrink_Tick+0x472>
    2c78:	00 00       	nop
    2c7a:	0e 94 80 04 	call	0x900	; 0x900 <GetKeypadKey>
    2c7e:	80 93 5e 0d 	sts	0x0D5E, r24	; 0x800d5e <add_drink_selection>
    2c82:	88 23       	and	r24, r24
    2c84:	a1 f3       	breq	.-24     	; 0x2c6e <AddDrink_Tick+0x468>
    2c86:	06 c0       	rjmp	.+12     	; 0x2c94 <AddDrink_Tick+0x48e>
    2c88:	ef e4       	ldi	r30, 0x4F	; 79
    2c8a:	f3 ec       	ldi	r31, 0xC3	; 195
    2c8c:	31 97       	sbiw	r30, 0x01	; 1
    2c8e:	f1 f7       	brne	.-4      	; 0x2c8c <AddDrink_Tick+0x486>
    2c90:	00 c0       	rjmp	.+0      	; 0x2c92 <AddDrink_Tick+0x48c>
    2c92:	00 00       	nop
    2c94:	0e 94 80 04 	call	0x900	; 0x900 <GetKeypadKey>
    2c98:	80 93 5d 0d 	sts	0x0D5D, r24	; 0x800d5d <add_drink_prev_select>
    2c9c:	90 91 5e 0d 	lds	r25, 0x0D5E	; 0x800d5e <add_drink_selection>
    2ca0:	89 17       	cp	r24, r25
    2ca2:	91 f3       	breq	.-28     	; 0x2c88 <AddDrink_Tick+0x482>
    2ca4:	0f 2e       	mov	r0, r31
    2ca6:	f5 e4       	ldi	r31, 0x45	; 69
    2ca8:	cf 2e       	mov	r12, r31
    2caa:	f1 e0       	ldi	r31, 0x01	; 1
    2cac:	df 2e       	mov	r13, r31
    2cae:	f0 2d       	mov	r31, r0
    2cb0:	0f 2e       	mov	r0, r31
    2cb2:	ff e5       	ldi	r31, 0x5F	; 95
    2cb4:	bf 2e       	mov	r11, r31
    2cb6:	f0 2d       	mov	r31, r0
    2cb8:	d3 c0       	rjmp	.+422    	; 0x2e60 <AddDrink_Tick+0x65a>
    2cba:	88 23       	and	r24, r24
    2cbc:	09 f4       	brne	.+2      	; 0x2cc0 <AddDrink_Tick+0x4ba>
    2cbe:	bb c0       	rjmp	.+374    	; 0x2e36 <AddDrink_Tick+0x630>
    2cc0:	8a 32       	cpi	r24, 0x2A	; 42
    2cc2:	09 f4       	brne	.+2      	; 0x2cc6 <AddDrink_Tick+0x4c0>
    2cc4:	8b c0       	rjmp	.+278    	; 0x2ddc <AddDrink_Tick+0x5d6>
    2cc6:	90 91 53 0d 	lds	r25, 0x0D53	; 0x800d53 <drink_alcohol_content>
    2cca:	91 11       	cpse	r25, r1
    2ccc:	26 c0       	rjmp	.+76     	; 0x2d1a <AddDrink_Tick+0x514>
    2cce:	90 ed       	ldi	r25, 0xD0	; 208
    2cd0:	98 0f       	add	r25, r24
    2cd2:	90 93 53 0d 	sts	0x0D53, r25	; 0x800d53 <drink_alcohol_content>
    2cd6:	f6 01       	movw	r30, r12
    2cd8:	80 83       	st	Z, r24
    2cda:	0e 94 68 24 	call	0x48d0	; 0x48d0 <nokia_lcd_clear>
    2cde:	61 e0       	ldi	r22, 0x01	; 1
    2ce0:	80 e9       	ldi	r24, 0x90	; 144
    2ce2:	92 e0       	ldi	r25, 0x02	; 2
    2ce4:	0e 94 4e 25 	call	0x4a9c	; 0x4a9c <nokia_lcd_write_string>
    2ce8:	6a e0       	ldi	r22, 0x0A	; 10
    2cea:	80 e0       	ldi	r24, 0x00	; 0
    2cec:	0e 94 60 25 	call	0x4ac0	; 0x4ac0 <nokia_lcd_set_cursor>
    2cf0:	61 e0       	ldi	r22, 0x01	; 1
    2cf2:	8e e9       	ldi	r24, 0x9E	; 158
    2cf4:	92 e0       	ldi	r25, 0x02	; 2
    2cf6:	0e 94 4e 25 	call	0x4a9c	; 0x4a9c <nokia_lcd_write_string>
    2cfa:	64 e1       	ldi	r22, 0x14	; 20
    2cfc:	80 e0       	ldi	r24, 0x00	; 0
    2cfe:	0e 94 60 25 	call	0x4ac0	; 0x4ac0 <nokia_lcd_set_cursor>
    2d02:	61 e0       	ldi	r22, 0x01	; 1
    2d04:	c6 01       	movw	r24, r12
    2d06:	0e 94 4e 25 	call	0x4a9c	; 0x4a9c <nokia_lcd_write_string>
    2d0a:	61 e0       	ldi	r22, 0x01	; 1
    2d0c:	85 ea       	ldi	r24, 0xA5	; 165
    2d0e:	92 e0       	ldi	r25, 0x02	; 2
    2d10:	0e 94 4e 25 	call	0x4a9c	; 0x4a9c <nokia_lcd_write_string>
    2d14:	0e 94 65 25 	call	0x4aca	; 0x4aca <nokia_lcd_render>
    2d18:	8e c0       	rjmp	.+284    	; 0x2e36 <AddDrink_Tick+0x630>
    2d1a:	2f ef       	ldi	r18, 0xFF	; 255
    2d1c:	29 0f       	add	r18, r25
    2d1e:	29 30       	cpi	r18, 0x09	; 9
    2d20:	60 f5       	brcc	.+88     	; 0x2d7a <AddDrink_Tick+0x574>
    2d22:	99 0f       	add	r25, r25
    2d24:	29 2f       	mov	r18, r25
    2d26:	22 0f       	add	r18, r18
    2d28:	22 0f       	add	r18, r18
    2d2a:	92 0f       	add	r25, r18
    2d2c:	20 ed       	ldi	r18, 0xD0	; 208
    2d2e:	28 0f       	add	r18, r24
    2d30:	92 0f       	add	r25, r18
    2d32:	90 93 53 0d 	sts	0x0D53, r25	; 0x800d53 <drink_alcohol_content>
    2d36:	f6 01       	movw	r30, r12
    2d38:	81 83       	std	Z+1, r24	; 0x01
    2d3a:	0e 94 68 24 	call	0x48d0	; 0x48d0 <nokia_lcd_clear>
    2d3e:	61 e0       	ldi	r22, 0x01	; 1
    2d40:	80 e9       	ldi	r24, 0x90	; 144
    2d42:	92 e0       	ldi	r25, 0x02	; 2
    2d44:	0e 94 4e 25 	call	0x4a9c	; 0x4a9c <nokia_lcd_write_string>
    2d48:	6a e0       	ldi	r22, 0x0A	; 10
    2d4a:	80 e0       	ldi	r24, 0x00	; 0
    2d4c:	0e 94 60 25 	call	0x4ac0	; 0x4ac0 <nokia_lcd_set_cursor>
    2d50:	61 e0       	ldi	r22, 0x01	; 1
    2d52:	8e e9       	ldi	r24, 0x9E	; 158
    2d54:	92 e0       	ldi	r25, 0x02	; 2
    2d56:	0e 94 4e 25 	call	0x4a9c	; 0x4a9c <nokia_lcd_write_string>
    2d5a:	64 e1       	ldi	r22, 0x14	; 20
    2d5c:	80 e0       	ldi	r24, 0x00	; 0
    2d5e:	0e 94 60 25 	call	0x4ac0	; 0x4ac0 <nokia_lcd_set_cursor>
    2d62:	61 e0       	ldi	r22, 0x01	; 1
    2d64:	c6 01       	movw	r24, r12
    2d66:	0e 94 4e 25 	call	0x4a9c	; 0x4a9c <nokia_lcd_write_string>
    2d6a:	61 e0       	ldi	r22, 0x01	; 1
    2d6c:	85 ea       	ldi	r24, 0xA5	; 165
    2d6e:	92 e0       	ldi	r25, 0x02	; 2
    2d70:	0e 94 4e 25 	call	0x4a9c	; 0x4a9c <nokia_lcd_write_string>
    2d74:	0e 94 65 25 	call	0x4aca	; 0x4aca <nokia_lcd_render>
    2d78:	5e c0       	rjmp	.+188    	; 0x2e36 <AddDrink_Tick+0x630>
    2d7a:	26 ef       	ldi	r18, 0xF6	; 246
    2d7c:	29 0f       	add	r18, r25
    2d7e:	2a 35       	cpi	r18, 0x5A	; 90
    2d80:	08 f0       	brcs	.+2      	; 0x2d84 <AddDrink_Tick+0x57e>
    2d82:	59 c0       	rjmp	.+178    	; 0x2e36 <AddDrink_Tick+0x630>
    2d84:	99 0f       	add	r25, r25
    2d86:	29 2f       	mov	r18, r25
    2d88:	22 0f       	add	r18, r18
    2d8a:	22 0f       	add	r18, r18
    2d8c:	92 0f       	add	r25, r18
    2d8e:	20 ed       	ldi	r18, 0xD0	; 208
    2d90:	28 0f       	add	r18, r24
    2d92:	92 0f       	add	r25, r18
    2d94:	90 93 53 0d 	sts	0x0D53, r25	; 0x800d53 <drink_alcohol_content>
    2d98:	f6 01       	movw	r30, r12
    2d9a:	82 83       	std	Z+2, r24	; 0x02
    2d9c:	0e 94 68 24 	call	0x48d0	; 0x48d0 <nokia_lcd_clear>
    2da0:	61 e0       	ldi	r22, 0x01	; 1
    2da2:	80 e9       	ldi	r24, 0x90	; 144
    2da4:	92 e0       	ldi	r25, 0x02	; 2
    2da6:	0e 94 4e 25 	call	0x4a9c	; 0x4a9c <nokia_lcd_write_string>
    2daa:	6a e0       	ldi	r22, 0x0A	; 10
    2dac:	80 e0       	ldi	r24, 0x00	; 0
    2dae:	0e 94 60 25 	call	0x4ac0	; 0x4ac0 <nokia_lcd_set_cursor>
    2db2:	61 e0       	ldi	r22, 0x01	; 1
    2db4:	8e e9       	ldi	r24, 0x9E	; 158
    2db6:	92 e0       	ldi	r25, 0x02	; 2
    2db8:	0e 94 4e 25 	call	0x4a9c	; 0x4a9c <nokia_lcd_write_string>
    2dbc:	64 e1       	ldi	r22, 0x14	; 20
    2dbe:	80 e0       	ldi	r24, 0x00	; 0
    2dc0:	0e 94 60 25 	call	0x4ac0	; 0x4ac0 <nokia_lcd_set_cursor>
    2dc4:	61 e0       	ldi	r22, 0x01	; 1
    2dc6:	c6 01       	movw	r24, r12
    2dc8:	0e 94 4e 25 	call	0x4a9c	; 0x4a9c <nokia_lcd_write_string>
    2dcc:	61 e0       	ldi	r22, 0x01	; 1
    2dce:	85 ea       	ldi	r24, 0xA5	; 165
    2dd0:	92 e0       	ldi	r25, 0x02	; 2
    2dd2:	0e 94 4e 25 	call	0x4a9c	; 0x4a9c <nokia_lcd_write_string>
    2dd6:	0e 94 65 25 	call	0x4aca	; 0x4aca <nokia_lcd_render>
    2dda:	2d c0       	rjmp	.+90     	; 0x2e36 <AddDrink_Tick+0x630>
    2ddc:	10 92 53 0d 	sts	0x0D53, r1	; 0x800d53 <drink_alcohol_content>
    2de0:	f6 01       	movw	r30, r12
    2de2:	b0 82       	st	Z, r11
    2de4:	11 82       	std	Z+1, r1	; 0x01
    2de6:	12 82       	std	Z+2, r1	; 0x02
    2de8:	13 82       	std	Z+3, r1	; 0x03
    2dea:	0e 94 68 24 	call	0x48d0	; 0x48d0 <nokia_lcd_clear>
    2dee:	61 e0       	ldi	r22, 0x01	; 1
    2df0:	80 e9       	ldi	r24, 0x90	; 144
    2df2:	92 e0       	ldi	r25, 0x02	; 2
    2df4:	0e 94 4e 25 	call	0x4a9c	; 0x4a9c <nokia_lcd_write_string>
    2df8:	6a e0       	ldi	r22, 0x0A	; 10
    2dfa:	80 e0       	ldi	r24, 0x00	; 0
    2dfc:	0e 94 60 25 	call	0x4ac0	; 0x4ac0 <nokia_lcd_set_cursor>
    2e00:	61 e0       	ldi	r22, 0x01	; 1
    2e02:	8e e9       	ldi	r24, 0x9E	; 158
    2e04:	92 e0       	ldi	r25, 0x02	; 2
    2e06:	0e 94 4e 25 	call	0x4a9c	; 0x4a9c <nokia_lcd_write_string>
    2e0a:	64 e1       	ldi	r22, 0x14	; 20
    2e0c:	80 e0       	ldi	r24, 0x00	; 0
    2e0e:	0e 94 60 25 	call	0x4ac0	; 0x4ac0 <nokia_lcd_set_cursor>
    2e12:	61 e0       	ldi	r22, 0x01	; 1
    2e14:	c6 01       	movw	r24, r12
    2e16:	0e 94 4e 25 	call	0x4a9c	; 0x4a9c <nokia_lcd_write_string>
    2e1a:	61 e0       	ldi	r22, 0x01	; 1
    2e1c:	85 ea       	ldi	r24, 0xA5	; 165
    2e1e:	92 e0       	ldi	r25, 0x02	; 2
    2e20:	0e 94 4e 25 	call	0x4a9c	; 0x4a9c <nokia_lcd_write_string>
    2e24:	0e 94 65 25 	call	0x4aca	; 0x4aca <nokia_lcd_render>
    2e28:	06 c0       	rjmp	.+12     	; 0x2e36 <AddDrink_Tick+0x630>
    2e2a:	8f e4       	ldi	r24, 0x4F	; 79
    2e2c:	93 ec       	ldi	r25, 0xC3	; 195
    2e2e:	01 97       	sbiw	r24, 0x01	; 1
    2e30:	f1 f7       	brne	.-4      	; 0x2e2e <AddDrink_Tick+0x628>
    2e32:	00 c0       	rjmp	.+0      	; 0x2e34 <AddDrink_Tick+0x62e>
    2e34:	00 00       	nop
    2e36:	0e 94 80 04 	call	0x900	; 0x900 <GetKeypadKey>
    2e3a:	80 93 5e 0d 	sts	0x0D5E, r24	; 0x800d5e <add_drink_selection>
    2e3e:	88 23       	and	r24, r24
    2e40:	a1 f3       	breq	.-24     	; 0x2e2a <AddDrink_Tick+0x624>
    2e42:	06 c0       	rjmp	.+12     	; 0x2e50 <AddDrink_Tick+0x64a>
    2e44:	ef e4       	ldi	r30, 0x4F	; 79
    2e46:	f3 ec       	ldi	r31, 0xC3	; 195
    2e48:	31 97       	sbiw	r30, 0x01	; 1
    2e4a:	f1 f7       	brne	.-4      	; 0x2e48 <AddDrink_Tick+0x642>
    2e4c:	00 c0       	rjmp	.+0      	; 0x2e4e <AddDrink_Tick+0x648>
    2e4e:	00 00       	nop
    2e50:	0e 94 80 04 	call	0x900	; 0x900 <GetKeypadKey>
    2e54:	80 93 5d 0d 	sts	0x0D5D, r24	; 0x800d5d <add_drink_prev_select>
    2e58:	90 91 5e 0d 	lds	r25, 0x0D5E	; 0x800d5e <add_drink_selection>
    2e5c:	89 17       	cp	r24, r25
    2e5e:	91 f3       	breq	.-28     	; 0x2e44 <AddDrink_Tick+0x63e>
    2e60:	80 91 5e 0d 	lds	r24, 0x0D5E	; 0x800d5e <add_drink_selection>
    2e64:	83 32       	cpi	r24, 0x23	; 35
    2e66:	09 f0       	breq	.+2      	; 0x2e6a <AddDrink_Tick+0x664>
    2e68:	28 cf       	rjmp	.-432    	; 0x2cba <AddDrink_Tick+0x4b4>
    2e6a:	36 c3       	rjmp	.+1644   	; 0x34d8 <AddDrink_Tick+0xcd2>
    2e6c:	8f e4       	ldi	r24, 0x4F	; 79
    2e6e:	93 ec       	ldi	r25, 0xC3	; 195
    2e70:	01 97       	sbiw	r24, 0x01	; 1
    2e72:	f1 f7       	brne	.-4      	; 0x2e70 <AddDrink_Tick+0x66a>
    2e74:	00 c0       	rjmp	.+0      	; 0x2e76 <AddDrink_Tick+0x670>
    2e76:	00 00       	nop
    2e78:	0e 94 80 04 	call	0x900	; 0x900 <GetKeypadKey>
    2e7c:	80 93 5e 0d 	sts	0x0D5E, r24	; 0x800d5e <add_drink_selection>
    2e80:	88 23       	and	r24, r24
    2e82:	a1 f3       	breq	.-24     	; 0x2e6c <AddDrink_Tick+0x666>
    2e84:	06 c0       	rjmp	.+12     	; 0x2e92 <AddDrink_Tick+0x68c>
    2e86:	ef e4       	ldi	r30, 0x4F	; 79
    2e88:	f3 ec       	ldi	r31, 0xC3	; 195
    2e8a:	31 97       	sbiw	r30, 0x01	; 1
    2e8c:	f1 f7       	brne	.-4      	; 0x2e8a <AddDrink_Tick+0x684>
    2e8e:	00 c0       	rjmp	.+0      	; 0x2e90 <AddDrink_Tick+0x68a>
    2e90:	00 00       	nop
    2e92:	0e 94 80 04 	call	0x900	; 0x900 <GetKeypadKey>
    2e96:	80 93 5d 0d 	sts	0x0D5D, r24	; 0x800d5d <add_drink_prev_select>
    2e9a:	90 91 5e 0d 	lds	r25, 0x0D5E	; 0x800d5e <add_drink_selection>
    2e9e:	89 17       	cp	r24, r25
    2ea0:	91 f3       	breq	.-28     	; 0x2e86 <AddDrink_Tick+0x680>
    2ea2:	e0 91 e1 0f 	lds	r30, 0x0FE1	; 0x800fe1 <add_drink_state>
    2ea6:	8e 2f       	mov	r24, r30
    2ea8:	90 e0       	ldi	r25, 0x00	; 0
    2eaa:	89 30       	cpi	r24, 0x09	; 9
    2eac:	91 05       	cpc	r25, r1
    2eae:	08 f0       	brcs	.+2      	; 0x2eb2 <AddDrink_Tick+0x6ac>
    2eb0:	10 c3       	rjmp	.+1568   	; 0x34d2 <AddDrink_Tick+0xccc>
    2eb2:	fc 01       	movw	r30, r24
    2eb4:	e0 58       	subi	r30, 0x80	; 128
    2eb6:	ff 4f       	sbci	r31, 0xFF	; 255
    2eb8:	0c 94 ba 2c 	jmp	0x5974	; 0x5974 <__tablejump2__>
    2ebc:	80 91 5f 0d 	lds	r24, 0x0D5F	; 0x800d5f <add_drink_flag>
    2ec0:	88 23       	and	r24, r24
    2ec2:	09 f4       	brne	.+2      	; 0x2ec6 <AddDrink_Tick+0x6c0>
    2ec4:	15 c3       	rjmp	.+1578   	; 0x34f0 <AddDrink_Tick+0xcea>
    2ec6:	80 91 5c 0d 	lds	r24, 0x0D5C	; 0x800d5c <type_of_drink>
    2eca:	88 23       	and	r24, r24
    2ecc:	69 f0       	breq	.+26     	; 0x2ee8 <AddDrink_Tick+0x6e2>
    2ece:	0e 94 68 24 	call	0x48d0	; 0x48d0 <nokia_lcd_clear>
    2ed2:	61 e0       	ldi	r22, 0x01	; 1
    2ed4:	88 e0       	ldi	r24, 0x08	; 8
    2ed6:	94 e0       	ldi	r25, 0x04	; 4
    2ed8:	0e 94 4e 25 	call	0x4a9c	; 0x4a9c <nokia_lcd_write_string>
    2edc:	0e 94 65 25 	call	0x4aca	; 0x4aca <nokia_lcd_render>
    2ee0:	84 e0       	ldi	r24, 0x04	; 4
    2ee2:	80 93 e1 0f 	sts	0x0FE1, r24	; 0x800fe1 <add_drink_state>
    2ee6:	04 c3       	rjmp	.+1544   	; 0x34f0 <AddDrink_Tick+0xcea>
    2ee8:	80 91 6b 0d 	lds	r24, 0x0D6B	; 0x800d6b <number_of_users>
    2eec:	81 11       	cpse	r24, r1
    2eee:	11 c0       	rjmp	.+34     	; 0x2f12 <AddDrink_Tick+0x70c>
    2ef0:	0e 94 68 24 	call	0x48d0	; 0x48d0 <nokia_lcd_clear>
    2ef4:	61 e0       	ldi	r22, 0x01	; 1
    2ef6:	84 ec       	ldi	r24, 0xC4	; 196
    2ef8:	92 e0       	ldi	r25, 0x02	; 2
    2efa:	0e 94 4e 25 	call	0x4a9c	; 0x4a9c <nokia_lcd_write_string>
    2efe:	0e 94 65 25 	call	0x4aca	; 0x4aca <nokia_lcd_render>
    2f02:	10 92 5f 0d 	sts	0x0D5F, r1	; 0x800d5f <add_drink_flag>
    2f06:	10 92 6f 0d 	sts	0x0D6F, r1	; 0x800d6f <user_verify_flag>
    2f0a:	81 e0       	ldi	r24, 0x01	; 1
    2f0c:	80 93 e1 0f 	sts	0x0FE1, r24	; 0x800fe1 <add_drink_state>
    2f10:	ef c2       	rjmp	.+1502   	; 0x34f0 <AddDrink_Tick+0xcea>
    2f12:	81 e0       	ldi	r24, 0x01	; 1
    2f14:	80 93 6f 0d 	sts	0x0D6F, r24	; 0x800d6f <user_verify_flag>
    2f18:	82 e0       	ldi	r24, 0x02	; 2
    2f1a:	80 93 e1 0f 	sts	0x0FE1, r24	; 0x800fe1 <add_drink_state>
    2f1e:	e8 c2       	rjmp	.+1488   	; 0x34f0 <AddDrink_Tick+0xcea>
    2f20:	80 91 5e 0d 	lds	r24, 0x0D5E	; 0x800d5e <add_drink_selection>
    2f24:	88 23       	and	r24, r24
    2f26:	09 f4       	brne	.+2      	; 0x2f2a <AddDrink_Tick+0x724>
    2f28:	e3 c2       	rjmp	.+1478   	; 0x34f0 <AddDrink_Tick+0xcea>
    2f2a:	10 92 5f 0d 	sts	0x0D5F, r1	; 0x800d5f <add_drink_flag>
    2f2e:	0e 94 39 05 	call	0xa72	; 0xa72 <add_drink_variable_reset>
    2f32:	10 92 e1 0f 	sts	0x0FE1, r1	; 0x800fe1 <add_drink_state>
    2f36:	dc c2       	rjmp	.+1464   	; 0x34f0 <AddDrink_Tick+0xcea>
    2f38:	80 91 6f 0d 	lds	r24, 0x0D6F	; 0x800d6f <user_verify_flag>
    2f3c:	81 11       	cpse	r24, r1
    2f3e:	d8 c2       	rjmp	.+1456   	; 0x34f0 <AddDrink_Tick+0xcea>
    2f40:	80 91 6c 0d 	lds	r24, 0x0D6C	; 0x800d6c <correct_user_credentials>
    2f44:	88 23       	and	r24, r24
    2f46:	81 f0       	breq	.+32     	; 0x2f68 <AddDrink_Tick+0x762>
    2f48:	0e 94 68 24 	call	0x48d0	; 0x48d0 <nokia_lcd_clear>
    2f4c:	61 e0       	ldi	r22, 0x01	; 1
    2f4e:	8b e3       	ldi	r24, 0x3B	; 59
    2f50:	94 e0       	ldi	r25, 0x04	; 4
    2f52:	0e 94 4e 25 	call	0x4a9c	; 0x4a9c <nokia_lcd_write_string>
    2f56:	0e 94 65 25 	call	0x4aca	; 0x4aca <nokia_lcd_render>
    2f5a:	29 9a       	sbi	0x05, 1	; 5
    2f5c:	10 92 6c 0d 	sts	0x0D6C, r1	; 0x800d6c <correct_user_credentials>
    2f60:	83 e0       	ldi	r24, 0x03	; 3
    2f62:	80 93 e1 0f 	sts	0x0FE1, r24	; 0x800fe1 <add_drink_state>
    2f66:	c4 c2       	rjmp	.+1416   	; 0x34f0 <AddDrink_Tick+0xcea>
    2f68:	10 92 5f 0d 	sts	0x0D5F, r1	; 0x800d5f <add_drink_flag>
    2f6c:	0e 94 39 05 	call	0xa72	; 0xa72 <add_drink_variable_reset>
    2f70:	10 92 e1 0f 	sts	0x0FE1, r1	; 0x800fe1 <add_drink_state>
    2f74:	bd c2       	rjmp	.+1402   	; 0x34f0 <AddDrink_Tick+0xcea>
    2f76:	83 b1       	in	r24, 0x03	; 3
    2f78:	80 95       	com	r24
    2f7a:	91 e0       	ldi	r25, 0x01	; 1
    2f7c:	85 fb       	bst	r24, 5
    2f7e:	00 27       	eor	r16, r16
    2f80:	00 f9       	bld	r16, 0
    2f82:	10 e0       	ldi	r17, 0x00	; 0
    2f84:	85 ff       	sbrs	r24, 5
    2f86:	90 e0       	ldi	r25, 0x00	; 0
    2f88:	90 93 64 0d 	sts	0x0D64, r25	; 0x800d64 <liquor_door_sensor>
    2f8c:	01 2b       	or	r16, r17
    2f8e:	89 f0       	breq	.+34     	; 0x2fb2 <AddDrink_Tick+0x7ac>
    2f90:	21 e0       	ldi	r18, 0x01	; 1
    2f92:	30 e0       	ldi	r19, 0x00	; 0
    2f94:	83 b1       	in	r24, 0x03	; 3
    2f96:	80 95       	com	r24
    2f98:	92 2f       	mov	r25, r18
    2f9a:	85 fb       	bst	r24, 5
    2f9c:	ff 27       	eor	r31, r31
    2f9e:	f0 f9       	bld	r31, 0
    2fa0:	cf 2f       	mov	r28, r31
    2fa2:	40 e0       	ldi	r20, 0x00	; 0
    2fa4:	d4 2f       	mov	r29, r20
    2fa6:	85 ff       	sbrs	r24, 5
    2fa8:	93 2f       	mov	r25, r19
    2faa:	90 93 64 0d 	sts	0x0D64, r25	; 0x800d64 <liquor_door_sensor>
    2fae:	cd 2b       	or	r28, r29
    2fb0:	89 f7       	brne	.-30     	; 0x2f94 <AddDrink_Tick+0x78e>
    2fb2:	8f e4       	ldi	r24, 0x4F	; 79
    2fb4:	93 ec       	ldi	r25, 0xC3	; 195
    2fb6:	01 97       	sbiw	r24, 0x01	; 1
    2fb8:	f1 f7       	brne	.-4      	; 0x2fb6 <AddDrink_Tick+0x7b0>
    2fba:	00 c0       	rjmp	.+0      	; 0x2fbc <AddDrink_Tick+0x7b6>
    2fbc:	00 00       	nop
    2fbe:	83 b1       	in	r24, 0x03	; 3
    2fc0:	80 95       	com	r24
    2fc2:	91 e0       	ldi	r25, 0x01	; 1
    2fc4:	85 fb       	bst	r24, 5
    2fc6:	ee 24       	eor	r14, r14
    2fc8:	e0 f8       	bld	r14, 0
    2fca:	f1 2c       	mov	r15, r1
    2fcc:	85 ff       	sbrs	r24, 5
    2fce:	90 e0       	ldi	r25, 0x00	; 0
    2fd0:	90 93 64 0d 	sts	0x0D64, r25	; 0x800d64 <liquor_door_sensor>
    2fd4:	ef 28       	or	r14, r15
    2fd6:	69 f0       	breq	.+26     	; 0x2ff2 <AddDrink_Tick+0x7ec>
    2fd8:	80 91 5f 0d 	lds	r24, 0x0D5F	; 0x800d5f <add_drink_flag>
    2fdc:	88 23       	and	r24, r24
    2fde:	49 f0       	breq	.+18     	; 0x2ff2 <AddDrink_Tick+0x7ec>
    2fe0:	29 98       	cbi	0x05, 1	; 5
    2fe2:	0e 94 e5 04 	call	0x9ca	; 0x9ca <add_drink_display>
    2fe6:	0e 94 39 05 	call	0xa72	; 0xa72 <add_drink_variable_reset>
    2fea:	85 e0       	ldi	r24, 0x05	; 5
    2fec:	80 93 e1 0f 	sts	0x0FE1, r24	; 0x800fe1 <add_drink_state>
    2ff0:	7f c2       	rjmp	.+1278   	; 0x34f0 <AddDrink_Tick+0xcea>
    2ff2:	83 e0       	ldi	r24, 0x03	; 3
    2ff4:	80 93 e1 0f 	sts	0x0FE1, r24	; 0x800fe1 <add_drink_state>
    2ff8:	7b c2       	rjmp	.+1270   	; 0x34f0 <AddDrink_Tick+0xcea>
    2ffa:	80 91 5e 0d 	lds	r24, 0x0D5E	; 0x800d5e <add_drink_selection>
    2ffe:	83 32       	cpi	r24, 0x23	; 35
    3000:	59 f4       	brne	.+22     	; 0x3018 <AddDrink_Tick+0x812>
    3002:	80 91 5f 0d 	lds	r24, 0x0D5F	; 0x800d5f <add_drink_flag>
    3006:	88 23       	and	r24, r24
    3008:	59 f0       	breq	.+22     	; 0x3020 <AddDrink_Tick+0x81a>
    300a:	10 92 5f 0d 	sts	0x0D5F, r1	; 0x800d5f <add_drink_flag>
    300e:	0e 94 39 05 	call	0xa72	; 0xa72 <add_drink_variable_reset>
    3012:	10 92 e1 0f 	sts	0x0FE1, r1	; 0x800fe1 <add_drink_state>
    3016:	6c c2       	rjmp	.+1240   	; 0x34f0 <AddDrink_Tick+0xcea>
    3018:	80 91 5f 0d 	lds	r24, 0x0D5F	; 0x800d5f <add_drink_flag>
    301c:	81 11       	cpse	r24, r1
    301e:	68 c2       	rjmp	.+1232   	; 0x34f0 <AddDrink_Tick+0xcea>
    3020:	10 92 5c 0d 	sts	0x0D5C, r1	; 0x800d5c <type_of_drink>
    3024:	10 92 58 0d 	sts	0x0D58, r1	; 0x800d58 <volume_of_drink>
    3028:	10 92 59 0d 	sts	0x0D59, r1	; 0x800d59 <volume_of_drink+0x1>
    302c:	10 92 5a 0d 	sts	0x0D5A, r1	; 0x800d5a <volume_of_drink+0x2>
    3030:	10 92 5b 0d 	sts	0x0D5B, r1	; 0x800d5b <volume_of_drink+0x3>
    3034:	10 92 53 0d 	sts	0x0D53, r1	; 0x800d53 <drink_alcohol_content>
    3038:	0e 94 39 05 	call	0xa72	; 0xa72 <add_drink_variable_reset>
    303c:	10 92 5f 0d 	sts	0x0D5F, r1	; 0x800d5f <add_drink_flag>
    3040:	10 92 e1 0f 	sts	0x0FE1, r1	; 0x800fe1 <add_drink_state>
    3044:	55 c2       	rjmp	.+1194   	; 0x34f0 <AddDrink_Tick+0xcea>
    3046:	80 91 5e 0d 	lds	r24, 0x0D5E	; 0x800d5e <add_drink_selection>
    304a:	81 33       	cpi	r24, 0x31	; 49
    304c:	69 f4       	brne	.+26     	; 0x3068 <AddDrink_Tick+0x862>
    304e:	80 91 5f 0d 	lds	r24, 0x0D5F	; 0x800d5f <add_drink_flag>
    3052:	88 23       	and	r24, r24
    3054:	d1 f1       	breq	.+116    	; 0x30ca <AddDrink_Tick+0x8c4>
    3056:	81 e0       	ldi	r24, 0x01	; 1
    3058:	80 93 5c 0d 	sts	0x0D5C, r24	; 0x800d5c <type_of_drink>
    305c:	0e 94 13 05 	call	0xa26	; 0xa26 <add_drink_volume_display>
    3060:	86 e0       	ldi	r24, 0x06	; 6
    3062:	80 93 e1 0f 	sts	0x0FE1, r24	; 0x800fe1 <add_drink_state>
    3066:	44 c2       	rjmp	.+1160   	; 0x34f0 <AddDrink_Tick+0xcea>
    3068:	82 33       	cpi	r24, 0x32	; 50
    306a:	69 f4       	brne	.+26     	; 0x3086 <AddDrink_Tick+0x880>
    306c:	80 91 5f 0d 	lds	r24, 0x0D5F	; 0x800d5f <add_drink_flag>
    3070:	88 23       	and	r24, r24
    3072:	59 f1       	breq	.+86     	; 0x30ca <AddDrink_Tick+0x8c4>
    3074:	82 e0       	ldi	r24, 0x02	; 2
    3076:	80 93 5c 0d 	sts	0x0D5C, r24	; 0x800d5c <type_of_drink>
    307a:	0e 94 13 05 	call	0xa26	; 0xa26 <add_drink_volume_display>
    307e:	86 e0       	ldi	r24, 0x06	; 6
    3080:	80 93 e1 0f 	sts	0x0FE1, r24	; 0x800fe1 <add_drink_state>
    3084:	35 c2       	rjmp	.+1130   	; 0x34f0 <AddDrink_Tick+0xcea>
    3086:	83 33       	cpi	r24, 0x33	; 51
    3088:	69 f4       	brne	.+26     	; 0x30a4 <AddDrink_Tick+0x89e>
    308a:	80 91 5f 0d 	lds	r24, 0x0D5F	; 0x800d5f <add_drink_flag>
    308e:	88 23       	and	r24, r24
    3090:	e1 f0       	breq	.+56     	; 0x30ca <AddDrink_Tick+0x8c4>
    3092:	83 e0       	ldi	r24, 0x03	; 3
    3094:	80 93 5c 0d 	sts	0x0D5C, r24	; 0x800d5c <type_of_drink>
    3098:	0e 94 13 05 	call	0xa26	; 0xa26 <add_drink_volume_display>
    309c:	86 e0       	ldi	r24, 0x06	; 6
    309e:	80 93 e1 0f 	sts	0x0FE1, r24	; 0x800fe1 <add_drink_state>
    30a2:	26 c2       	rjmp	.+1100   	; 0x34f0 <AddDrink_Tick+0xcea>
    30a4:	84 33       	cpi	r24, 0x34	; 52
    30a6:	69 f4       	brne	.+26     	; 0x30c2 <AddDrink_Tick+0x8bc>
    30a8:	80 91 5f 0d 	lds	r24, 0x0D5F	; 0x800d5f <add_drink_flag>
    30ac:	88 23       	and	r24, r24
    30ae:	69 f0       	breq	.+26     	; 0x30ca <AddDrink_Tick+0x8c4>
    30b0:	84 e0       	ldi	r24, 0x04	; 4
    30b2:	80 93 5c 0d 	sts	0x0D5C, r24	; 0x800d5c <type_of_drink>
    30b6:	0e 94 13 05 	call	0xa26	; 0xa26 <add_drink_volume_display>
    30ba:	86 e0       	ldi	r24, 0x06	; 6
    30bc:	80 93 e1 0f 	sts	0x0FE1, r24	; 0x800fe1 <add_drink_state>
    30c0:	17 c2       	rjmp	.+1070   	; 0x34f0 <AddDrink_Tick+0xcea>
    30c2:	80 91 5f 0d 	lds	r24, 0x0D5F	; 0x800d5f <add_drink_flag>
    30c6:	81 11       	cpse	r24, r1
    30c8:	13 c2       	rjmp	.+1062   	; 0x34f0 <AddDrink_Tick+0xcea>
    30ca:	10 92 5c 0d 	sts	0x0D5C, r1	; 0x800d5c <type_of_drink>
    30ce:	10 92 58 0d 	sts	0x0D58, r1	; 0x800d58 <volume_of_drink>
    30d2:	10 92 59 0d 	sts	0x0D59, r1	; 0x800d59 <volume_of_drink+0x1>
    30d6:	10 92 5a 0d 	sts	0x0D5A, r1	; 0x800d5a <volume_of_drink+0x2>
    30da:	10 92 5b 0d 	sts	0x0D5B, r1	; 0x800d5b <volume_of_drink+0x3>
    30de:	10 92 53 0d 	sts	0x0D53, r1	; 0x800d53 <drink_alcohol_content>
    30e2:	0e 94 39 05 	call	0xa72	; 0xa72 <add_drink_variable_reset>
    30e6:	10 92 e1 0f 	sts	0x0FE1, r1	; 0x800fe1 <add_drink_state>
    30ea:	02 c2       	rjmp	.+1028   	; 0x34f0 <AddDrink_Tick+0xcea>
    30ec:	80 91 5e 0d 	lds	r24, 0x0D5E	; 0x800d5e <add_drink_selection>
    30f0:	83 32       	cpi	r24, 0x23	; 35
    30f2:	e9 f4       	brne	.+58     	; 0x312e <AddDrink_Tick+0x928>
    30f4:	80 91 58 0d 	lds	r24, 0x0D58	; 0x800d58 <volume_of_drink>
    30f8:	90 91 59 0d 	lds	r25, 0x0D59	; 0x800d59 <volume_of_drink+0x1>
    30fc:	a0 91 5a 0d 	lds	r26, 0x0D5A	; 0x800d5a <volume_of_drink+0x2>
    3100:	b0 91 5b 0d 	lds	r27, 0x0D5B	; 0x800d5b <volume_of_drink+0x3>
    3104:	89 2b       	or	r24, r25
    3106:	8a 2b       	or	r24, r26
    3108:	8b 2b       	or	r24, r27
    310a:	89 f0       	breq	.+34     	; 0x312e <AddDrink_Tick+0x928>
    310c:	80 91 5f 0d 	lds	r24, 0x0D5F	; 0x800d5f <add_drink_flag>
    3110:	88 23       	and	r24, r24
    3112:	89 f0       	breq	.+34     	; 0x3136 <AddDrink_Tick+0x930>
    3114:	e5 e4       	ldi	r30, 0x45	; 69
    3116:	f1 e0       	ldi	r31, 0x01	; 1
    3118:	8f e5       	ldi	r24, 0x5F	; 95
    311a:	80 83       	st	Z, r24
    311c:	11 82       	std	Z+1, r1	; 0x01
    311e:	12 82       	std	Z+2, r1	; 0x02
    3120:	13 82       	std	Z+3, r1	; 0x03
    3122:	0e 94 26 05 	call	0xa4c	; 0xa4c <add_drink_ac_display>
    3126:	87 e0       	ldi	r24, 0x07	; 7
    3128:	80 93 e1 0f 	sts	0x0FE1, r24	; 0x800fe1 <add_drink_state>
    312c:	e1 c1       	rjmp	.+962    	; 0x34f0 <AddDrink_Tick+0xcea>
    312e:	80 91 5f 0d 	lds	r24, 0x0D5F	; 0x800d5f <add_drink_flag>
    3132:	81 11       	cpse	r24, r1
    3134:	dd c1       	rjmp	.+954    	; 0x34f0 <AddDrink_Tick+0xcea>
    3136:	10 92 5c 0d 	sts	0x0D5C, r1	; 0x800d5c <type_of_drink>
    313a:	10 92 58 0d 	sts	0x0D58, r1	; 0x800d58 <volume_of_drink>
    313e:	10 92 59 0d 	sts	0x0D59, r1	; 0x800d59 <volume_of_drink+0x1>
    3142:	10 92 5a 0d 	sts	0x0D5A, r1	; 0x800d5a <volume_of_drink+0x2>
    3146:	10 92 5b 0d 	sts	0x0D5B, r1	; 0x800d5b <volume_of_drink+0x3>
    314a:	10 92 53 0d 	sts	0x0D53, r1	; 0x800d53 <drink_alcohol_content>
    314e:	0e 94 39 05 	call	0xa72	; 0xa72 <add_drink_variable_reset>
    3152:	10 92 e1 0f 	sts	0x0FE1, r1	; 0x800fe1 <add_drink_state>
    3156:	cc c1       	rjmp	.+920    	; 0x34f0 <AddDrink_Tick+0xcea>
    3158:	80 91 5e 0d 	lds	r24, 0x0D5E	; 0x800d5e <add_drink_selection>
    315c:	83 32       	cpi	r24, 0x23	; 35
    315e:	09 f0       	breq	.+2      	; 0x3162 <AddDrink_Tick+0x95c>
    3160:	ec c0       	rjmp	.+472    	; 0x333a <AddDrink_Tick+0xb34>
    3162:	80 91 53 0d 	lds	r24, 0x0D53	; 0x800d53 <drink_alcohol_content>
    3166:	88 23       	and	r24, r24
    3168:	09 f4       	brne	.+2      	; 0x316c <AddDrink_Tick+0x966>
    316a:	e7 c0       	rjmp	.+462    	; 0x333a <AddDrink_Tick+0xb34>
    316c:	80 91 5f 0d 	lds	r24, 0x0D5F	; 0x800d5f <add_drink_flag>
    3170:	88 23       	and	r24, r24
    3172:	09 f4       	brne	.+2      	; 0x3176 <AddDrink_Tick+0x970>
    3174:	e6 c0       	rjmp	.+460    	; 0x3342 <AddDrink_Tick+0xb3c>
    3176:	0e 94 68 24 	call	0x48d0	; 0x48d0 <nokia_lcd_clear>
    317a:	e0 91 5c 0d 	lds	r30, 0x0D5C	; 0x800d5c <type_of_drink>
    317e:	f0 e0       	ldi	r31, 0x00	; 0
    3180:	ee 0f       	add	r30, r30
    3182:	ff 1f       	adc	r31, r31
    3184:	e6 5b       	subi	r30, 0xB6	; 182
    3186:	fe 4f       	sbci	r31, 0xFE	; 254
    3188:	61 e0       	ldi	r22, 0x01	; 1
    318a:	80 81       	ld	r24, Z
    318c:	91 81       	ldd	r25, Z+1	; 0x01
    318e:	0e 94 4e 25 	call	0x4a9c	; 0x4a9c <nokia_lcd_write_string>
    3192:	6a e0       	ldi	r22, 0x0A	; 10
    3194:	80 e0       	ldi	r24, 0x00	; 0
    3196:	0e 94 60 25 	call	0x4ac0	; 0x4ac0 <nokia_lcd_set_cursor>
    319a:	60 91 58 0d 	lds	r22, 0x0D58	; 0x800d58 <volume_of_drink>
    319e:	70 91 59 0d 	lds	r23, 0x0D59	; 0x800d59 <volume_of_drink+0x1>
    31a2:	80 91 5a 0d 	lds	r24, 0x0D5A	; 0x800d5a <volume_of_drink+0x2>
    31a6:	90 91 5b 0d 	lds	r25, 0x0D5B	; 0x800d5b <volume_of_drink+0x3>
    31aa:	68 3e       	cpi	r22, 0xE8	; 232
    31ac:	e3 e0       	ldi	r30, 0x03	; 3
    31ae:	7e 07       	cpc	r23, r30
    31b0:	81 05       	cpc	r24, r1
    31b2:	91 05       	cpc	r25, r1
    31b4:	9c f1       	brlt	.+102    	; 0x321c <AddDrink_Tick+0xa16>
    31b6:	28 ee       	ldi	r18, 0xE8	; 232
    31b8:	33 e0       	ldi	r19, 0x03	; 3
    31ba:	40 e0       	ldi	r20, 0x00	; 0
    31bc:	50 e0       	ldi	r21, 0x00	; 0
    31be:	0e 94 9e 2c 	call	0x593c	; 0x593c <__divmodsi4>
    31c2:	d2 2f       	mov	r29, r18
    31c4:	24 e6       	ldi	r18, 0x64	; 100
    31c6:	30 e0       	ldi	r19, 0x00	; 0
    31c8:	40 e0       	ldi	r20, 0x00	; 0
    31ca:	50 e0       	ldi	r21, 0x00	; 0
    31cc:	0e 94 9e 2c 	call	0x593c	; 0x593c <__divmodsi4>
    31d0:	c2 2f       	mov	r28, r18
    31d2:	6b 01       	movw	r12, r22
    31d4:	7c 01       	movw	r14, r24
    31d6:	61 e0       	ldi	r22, 0x01	; 1
    31d8:	80 e3       	ldi	r24, 0x30	; 48
    31da:	8d 0f       	add	r24, r29
    31dc:	0e 94 a4 24 	call	0x4948	; 0x4948 <nokia_lcd_write_char>
    31e0:	61 e0       	ldi	r22, 0x01	; 1
    31e2:	80 e3       	ldi	r24, 0x30	; 48
    31e4:	8c 0f       	add	r24, r28
    31e6:	0e 94 a4 24 	call	0x4948	; 0x4948 <nokia_lcd_write_char>
    31ea:	c7 01       	movw	r24, r14
    31ec:	b6 01       	movw	r22, r12
    31ee:	2a e0       	ldi	r18, 0x0A	; 10
    31f0:	30 e0       	ldi	r19, 0x00	; 0
    31f2:	40 e0       	ldi	r20, 0x00	; 0
    31f4:	50 e0       	ldi	r21, 0x00	; 0
    31f6:	0e 94 9e 2c 	call	0x593c	; 0x593c <__divmodsi4>
    31fa:	c6 2f       	mov	r28, r22
    31fc:	61 e0       	ldi	r22, 0x01	; 1
    31fe:	80 e3       	ldi	r24, 0x30	; 48
    3200:	82 0f       	add	r24, r18
    3202:	0e 94 a4 24 	call	0x4948	; 0x4948 <nokia_lcd_write_char>
    3206:	61 e0       	ldi	r22, 0x01	; 1
    3208:	80 e3       	ldi	r24, 0x30	; 48
    320a:	8c 0f       	add	r24, r28
    320c:	0e 94 a4 24 	call	0x4948	; 0x4948 <nokia_lcd_write_char>
    3210:	61 e0       	ldi	r22, 0x01	; 1
    3212:	81 e6       	ldi	r24, 0x61	; 97
    3214:	94 e0       	ldi	r25, 0x04	; 4
    3216:	0e 94 4e 25 	call	0x4a9c	; 0x4a9c <nokia_lcd_write_string>
    321a:	25 c0       	rjmp	.+74     	; 0x3266 <AddDrink_Tick+0xa60>
    321c:	24 e6       	ldi	r18, 0x64	; 100
    321e:	30 e0       	ldi	r19, 0x00	; 0
    3220:	40 e0       	ldi	r20, 0x00	; 0
    3222:	50 e0       	ldi	r21, 0x00	; 0
    3224:	0e 94 9e 2c 	call	0x593c	; 0x593c <__divmodsi4>
    3228:	6b 01       	movw	r12, r22
    322a:	7c 01       	movw	r14, r24
    322c:	61 e0       	ldi	r22, 0x01	; 1
    322e:	80 e3       	ldi	r24, 0x30	; 48
    3230:	82 0f       	add	r24, r18
    3232:	0e 94 a4 24 	call	0x4948	; 0x4948 <nokia_lcd_write_char>
    3236:	c7 01       	movw	r24, r14
    3238:	b6 01       	movw	r22, r12
    323a:	2a e0       	ldi	r18, 0x0A	; 10
    323c:	30 e0       	ldi	r19, 0x00	; 0
    323e:	40 e0       	ldi	r20, 0x00	; 0
    3240:	50 e0       	ldi	r21, 0x00	; 0
    3242:	0e 94 9e 2c 	call	0x593c	; 0x593c <__divmodsi4>
    3246:	c6 2f       	mov	r28, r22
    3248:	61 e0       	ldi	r22, 0x01	; 1
    324a:	80 e3       	ldi	r24, 0x30	; 48
    324c:	82 0f       	add	r24, r18
    324e:	0e 94 a4 24 	call	0x4948	; 0x4948 <nokia_lcd_write_char>
    3252:	61 e0       	ldi	r22, 0x01	; 1
    3254:	80 e3       	ldi	r24, 0x30	; 48
    3256:	8c 0f       	add	r24, r28
    3258:	0e 94 a4 24 	call	0x4948	; 0x4948 <nokia_lcd_write_char>
    325c:	61 e0       	ldi	r22, 0x01	; 1
    325e:	81 e6       	ldi	r24, 0x61	; 97
    3260:	94 e0       	ldi	r25, 0x04	; 4
    3262:	0e 94 4e 25 	call	0x4a9c	; 0x4a9c <nokia_lcd_write_string>
    3266:	64 e1       	ldi	r22, 0x14	; 20
    3268:	80 e0       	ldi	r24, 0x00	; 0
    326a:	0e 94 60 25 	call	0x4ac0	; 0x4ac0 <nokia_lcd_set_cursor>
    326e:	d0 91 53 0d 	lds	r29, 0x0D53	; 0x800d53 <drink_alcohol_content>
    3272:	d4 36       	cpi	r29, 0x64	; 100
    3274:	70 f1       	brcs	.+92     	; 0x32d2 <AddDrink_Tick+0xacc>
    3276:	89 e2       	ldi	r24, 0x29	; 41
    3278:	d8 9f       	mul	r29, r24
    327a:	81 2d       	mov	r24, r1
    327c:	11 24       	eor	r1, r1
    327e:	18 2f       	mov	r17, r24
    3280:	12 95       	swap	r17
    3282:	1f 70       	andi	r17, 0x0F	; 15
    3284:	f4 e6       	ldi	r31, 0x64	; 100
    3286:	1f 9f       	mul	r17, r31
    3288:	d0 19       	sub	r29, r0
    328a:	11 24       	eor	r1, r1
    328c:	82 95       	swap	r24
    328e:	8f 70       	andi	r24, 0x0F	; 15
    3290:	61 e0       	ldi	r22, 0x01	; 1
    3292:	80 5d       	subi	r24, 0xD0	; 208
    3294:	0e 94 a4 24 	call	0x4948	; 0x4948 <nokia_lcd_write_char>
    3298:	cd ec       	ldi	r28, 0xCD	; 205
    329a:	dc 9f       	mul	r29, r28
    329c:	c1 2d       	mov	r28, r1
    329e:	11 24       	eor	r1, r1
    32a0:	c6 95       	lsr	r28
    32a2:	c6 95       	lsr	r28
    32a4:	c6 95       	lsr	r28
    32a6:	61 e0       	ldi	r22, 0x01	; 1
    32a8:	80 e3       	ldi	r24, 0x30	; 48
    32aa:	8c 0f       	add	r24, r28
    32ac:	0e 94 a4 24 	call	0x4948	; 0x4948 <nokia_lcd_write_char>
    32b0:	cc 0f       	add	r28, r28
    32b2:	8c 2f       	mov	r24, r28
    32b4:	88 0f       	add	r24, r24
    32b6:	88 0f       	add	r24, r24
    32b8:	c8 0f       	add	r28, r24
    32ba:	8d 2f       	mov	r24, r29
    32bc:	8c 1b       	sub	r24, r28
    32be:	61 e0       	ldi	r22, 0x01	; 1
    32c0:	80 5d       	subi	r24, 0xD0	; 208
    32c2:	0e 94 a4 24 	call	0x4948	; 0x4948 <nokia_lcd_write_char>
    32c6:	61 e0       	ldi	r22, 0x01	; 1
    32c8:	85 ea       	ldi	r24, 0xA5	; 165
    32ca:	92 e0       	ldi	r25, 0x02	; 2
    32cc:	0e 94 4e 25 	call	0x4a9c	; 0x4a9c <nokia_lcd_write_string>
    32d0:	1c c0       	rjmp	.+56     	; 0x330a <AddDrink_Tick+0xb04>
    32d2:	cd ec       	ldi	r28, 0xCD	; 205
    32d4:	dc 9f       	mul	r29, r28
    32d6:	c1 2d       	mov	r28, r1
    32d8:	11 24       	eor	r1, r1
    32da:	c6 95       	lsr	r28
    32dc:	c6 95       	lsr	r28
    32de:	c6 95       	lsr	r28
    32e0:	61 e0       	ldi	r22, 0x01	; 1
    32e2:	80 e3       	ldi	r24, 0x30	; 48
    32e4:	8c 0f       	add	r24, r28
    32e6:	0e 94 a4 24 	call	0x4948	; 0x4948 <nokia_lcd_write_char>
    32ea:	cc 0f       	add	r28, r28
    32ec:	8c 2f       	mov	r24, r28
    32ee:	88 0f       	add	r24, r24
    32f0:	88 0f       	add	r24, r24
    32f2:	c8 0f       	add	r28, r24
    32f4:	8d 2f       	mov	r24, r29
    32f6:	8c 1b       	sub	r24, r28
    32f8:	61 e0       	ldi	r22, 0x01	; 1
    32fa:	80 5d       	subi	r24, 0xD0	; 208
    32fc:	0e 94 a4 24 	call	0x4948	; 0x4948 <nokia_lcd_write_char>
    3300:	61 e0       	ldi	r22, 0x01	; 1
    3302:	85 ea       	ldi	r24, 0xA5	; 165
    3304:	92 e0       	ldi	r25, 0x02	; 2
    3306:	0e 94 4e 25 	call	0x4a9c	; 0x4a9c <nokia_lcd_write_string>
    330a:	6e e1       	ldi	r22, 0x1E	; 30
    330c:	80 e0       	ldi	r24, 0x00	; 0
    330e:	0e 94 60 25 	call	0x4ac0	; 0x4ac0 <nokia_lcd_set_cursor>
    3312:	61 e0       	ldi	r22, 0x01	; 1
    3314:	85 e6       	ldi	r24, 0x65	; 101
    3316:	94 e0       	ldi	r25, 0x04	; 4
    3318:	0e 94 4e 25 	call	0x4a9c	; 0x4a9c <nokia_lcd_write_string>
    331c:	68 e2       	ldi	r22, 0x28	; 40
    331e:	80 e0       	ldi	r24, 0x00	; 0
    3320:	0e 94 60 25 	call	0x4ac0	; 0x4ac0 <nokia_lcd_set_cursor>
    3324:	61 e0       	ldi	r22, 0x01	; 1
    3326:	81 e7       	ldi	r24, 0x71	; 113
    3328:	94 e0       	ldi	r25, 0x04	; 4
    332a:	0e 94 4e 25 	call	0x4a9c	; 0x4a9c <nokia_lcd_write_string>
    332e:	0e 94 65 25 	call	0x4aca	; 0x4aca <nokia_lcd_render>
    3332:	88 e0       	ldi	r24, 0x08	; 8
    3334:	80 93 e1 0f 	sts	0x0FE1, r24	; 0x800fe1 <add_drink_state>
    3338:	db c0       	rjmp	.+438    	; 0x34f0 <AddDrink_Tick+0xcea>
    333a:	80 91 5f 0d 	lds	r24, 0x0D5F	; 0x800d5f <add_drink_flag>
    333e:	81 11       	cpse	r24, r1
    3340:	d7 c0       	rjmp	.+430    	; 0x34f0 <AddDrink_Tick+0xcea>
    3342:	10 92 5c 0d 	sts	0x0D5C, r1	; 0x800d5c <type_of_drink>
    3346:	10 92 58 0d 	sts	0x0D58, r1	; 0x800d58 <volume_of_drink>
    334a:	10 92 59 0d 	sts	0x0D59, r1	; 0x800d59 <volume_of_drink+0x1>
    334e:	10 92 5a 0d 	sts	0x0D5A, r1	; 0x800d5a <volume_of_drink+0x2>
    3352:	10 92 5b 0d 	sts	0x0D5B, r1	; 0x800d5b <volume_of_drink+0x3>
    3356:	10 92 53 0d 	sts	0x0D53, r1	; 0x800d53 <drink_alcohol_content>
    335a:	0e 94 39 05 	call	0xa72	; 0xa72 <add_drink_variable_reset>
    335e:	10 92 e1 0f 	sts	0x0FE1, r1	; 0x800fe1 <add_drink_state>
    3362:	c6 c0       	rjmp	.+396    	; 0x34f0 <AddDrink_Tick+0xcea>
    3364:	80 91 5e 0d 	lds	r24, 0x0D5E	; 0x800d5e <add_drink_selection>
    3368:	8a 32       	cpi	r24, 0x2A	; 42
    336a:	d9 f4       	brne	.+54     	; 0x33a2 <AddDrink_Tick+0xb9c>
    336c:	10 92 5c 0d 	sts	0x0D5C, r1	; 0x800d5c <type_of_drink>
    3370:	10 92 58 0d 	sts	0x0D58, r1	; 0x800d58 <volume_of_drink>
    3374:	10 92 59 0d 	sts	0x0D59, r1	; 0x800d59 <volume_of_drink+0x1>
    3378:	10 92 5a 0d 	sts	0x0D5A, r1	; 0x800d5a <volume_of_drink+0x2>
    337c:	10 92 5b 0d 	sts	0x0D5B, r1	; 0x800d5b <volume_of_drink+0x3>
    3380:	10 92 53 0d 	sts	0x0D53, r1	; 0x800d53 <drink_alcohol_content>
    3384:	10 92 54 0d 	sts	0x0D54, r1	; 0x800d54 <total_container_weight>
    3388:	10 92 55 0d 	sts	0x0D55, r1	; 0x800d55 <total_container_weight+0x1>
    338c:	10 92 56 0d 	sts	0x0D56, r1	; 0x800d56 <total_container_weight+0x2>
    3390:	10 92 57 0d 	sts	0x0D57, r1	; 0x800d57 <total_container_weight+0x3>
    3394:	0e 94 39 05 	call	0xa72	; 0xa72 <add_drink_variable_reset>
    3398:	10 92 5f 0d 	sts	0x0D5F, r1	; 0x800d5f <add_drink_flag>
    339c:	10 92 e1 0f 	sts	0x0FE1, r1	; 0x800fe1 <add_drink_state>
    33a0:	a7 c0       	rjmp	.+334    	; 0x34f0 <AddDrink_Tick+0xcea>
    33a2:	83 32       	cpi	r24, 0x23	; 35
    33a4:	09 f0       	breq	.+2      	; 0x33a8 <AddDrink_Tick+0xba2>
    33a6:	91 c0       	rjmp	.+290    	; 0x34ca <AddDrink_Tick+0xcc4>
    33a8:	10 92 54 0d 	sts	0x0D54, r1	; 0x800d54 <total_container_weight>
    33ac:	10 92 55 0d 	sts	0x0D55, r1	; 0x800d55 <total_container_weight+0x1>
    33b0:	10 92 56 0d 	sts	0x0D56, r1	; 0x800d56 <total_container_weight+0x2>
    33b4:	10 92 57 0d 	sts	0x0D57, r1	; 0x800d57 <total_container_weight+0x3>
    33b8:	8a e0       	ldi	r24, 0x0A	; 10
    33ba:	0e 94 74 02 	call	0x4e8	; 0x4e8 <HX711_get_units>
    33be:	0e 94 12 2b 	call	0x5624	; 0x5624 <__fixsfsi>
    33c2:	60 93 54 0d 	sts	0x0D54, r22	; 0x800d54 <total_container_weight>
    33c6:	70 93 55 0d 	sts	0x0D55, r23	; 0x800d55 <total_container_weight+0x1>
    33ca:	80 93 56 0d 	sts	0x0D56, r24	; 0x800d56 <total_container_weight+0x2>
    33ce:	90 93 57 0d 	sts	0x0D57, r25	; 0x800d57 <total_container_weight+0x3>
    33d2:	8a e0       	ldi	r24, 0x0A	; 10
    33d4:	0e 94 74 02 	call	0x4e8	; 0x4e8 <HX711_get_units>
    33d8:	0e 94 12 2b 	call	0x5624	; 0x5624 <__fixsfsi>
    33dc:	60 93 54 0d 	sts	0x0D54, r22	; 0x800d54 <total_container_weight>
    33e0:	70 93 55 0d 	sts	0x0D55, r23	; 0x800d55 <total_container_weight+0x1>
    33e4:	80 93 56 0d 	sts	0x0D56, r24	; 0x800d56 <total_container_weight+0x2>
    33e8:	90 93 57 0d 	sts	0x0D57, r25	; 0x800d57 <total_container_weight+0x3>
    33ec:	8a e0       	ldi	r24, 0x0A	; 10
    33ee:	0e 94 74 02 	call	0x4e8	; 0x4e8 <HX711_get_units>
    33f2:	0e 94 12 2b 	call	0x5624	; 0x5624 <__fixsfsi>
    33f6:	60 93 54 0d 	sts	0x0D54, r22	; 0x800d54 <total_container_weight>
    33fa:	70 93 55 0d 	sts	0x0D55, r23	; 0x800d55 <total_container_weight+0x1>
    33fe:	80 93 56 0d 	sts	0x0D56, r24	; 0x800d56 <total_container_weight+0x2>
    3402:	90 93 57 0d 	sts	0x0D57, r25	; 0x800d57 <total_container_weight+0x3>
    3406:	8a e0       	ldi	r24, 0x0A	; 10
    3408:	0e 94 74 02 	call	0x4e8	; 0x4e8 <HX711_get_units>
    340c:	0e 94 12 2b 	call	0x5624	; 0x5624 <__fixsfsi>
    3410:	60 93 54 0d 	sts	0x0D54, r22	; 0x800d54 <total_container_weight>
    3414:	70 93 55 0d 	sts	0x0D55, r23	; 0x800d55 <total_container_weight+0x1>
    3418:	80 93 56 0d 	sts	0x0D56, r24	; 0x800d56 <total_container_weight+0x2>
    341c:	90 93 57 0d 	sts	0x0D57, r25	; 0x800d57 <total_container_weight+0x3>
    3420:	8a e0       	ldi	r24, 0x0A	; 10
    3422:	0e 94 74 02 	call	0x4e8	; 0x4e8 <HX711_get_units>
    3426:	0e 94 12 2b 	call	0x5624	; 0x5624 <__fixsfsi>
    342a:	60 93 54 0d 	sts	0x0D54, r22	; 0x800d54 <total_container_weight>
    342e:	70 93 55 0d 	sts	0x0D55, r23	; 0x800d55 <total_container_weight+0x1>
    3432:	80 93 56 0d 	sts	0x0D56, r24	; 0x800d56 <total_container_weight+0x2>
    3436:	90 93 57 0d 	sts	0x0D57, r25	; 0x800d57 <total_container_weight+0x3>
    343a:	8a e0       	ldi	r24, 0x0A	; 10
    343c:	0e 94 74 02 	call	0x4e8	; 0x4e8 <HX711_get_units>
    3440:	0e 94 12 2b 	call	0x5624	; 0x5624 <__fixsfsi>
    3444:	60 93 54 0d 	sts	0x0D54, r22	; 0x800d54 <total_container_weight>
    3448:	70 93 55 0d 	sts	0x0D55, r23	; 0x800d55 <total_container_weight+0x1>
    344c:	80 93 56 0d 	sts	0x0D56, r24	; 0x800d56 <total_container_weight+0x2>
    3450:	90 93 57 0d 	sts	0x0D57, r25	; 0x800d57 <total_container_weight+0x3>
    3454:	8a e0       	ldi	r24, 0x0A	; 10
    3456:	0e 94 74 02 	call	0x4e8	; 0x4e8 <HX711_get_units>
    345a:	0e 94 12 2b 	call	0x5624	; 0x5624 <__fixsfsi>
    345e:	60 93 54 0d 	sts	0x0D54, r22	; 0x800d54 <total_container_weight>
    3462:	70 93 55 0d 	sts	0x0D55, r23	; 0x800d55 <total_container_weight+0x1>
    3466:	80 93 56 0d 	sts	0x0D56, r24	; 0x800d56 <total_container_weight+0x2>
    346a:	90 93 57 0d 	sts	0x0D57, r25	; 0x800d57 <total_container_weight+0x3>
    346e:	8a e0       	ldi	r24, 0x0A	; 10
    3470:	0e 94 74 02 	call	0x4e8	; 0x4e8 <HX711_get_units>
    3474:	0e 94 12 2b 	call	0x5624	; 0x5624 <__fixsfsi>
    3478:	60 93 54 0d 	sts	0x0D54, r22	; 0x800d54 <total_container_weight>
    347c:	70 93 55 0d 	sts	0x0D55, r23	; 0x800d55 <total_container_weight+0x1>
    3480:	80 93 56 0d 	sts	0x0D56, r24	; 0x800d56 <total_container_weight+0x2>
    3484:	90 93 57 0d 	sts	0x0D57, r25	; 0x800d57 <total_container_weight+0x3>
    3488:	8a e0       	ldi	r24, 0x0A	; 10
    348a:	0e 94 74 02 	call	0x4e8	; 0x4e8 <HX711_get_units>
    348e:	0e 94 12 2b 	call	0x5624	; 0x5624 <__fixsfsi>
    3492:	60 93 54 0d 	sts	0x0D54, r22	; 0x800d54 <total_container_weight>
    3496:	70 93 55 0d 	sts	0x0D55, r23	; 0x800d55 <total_container_weight+0x1>
    349a:	80 93 56 0d 	sts	0x0D56, r24	; 0x800d56 <total_container_weight+0x2>
    349e:	90 93 57 0d 	sts	0x0D57, r25	; 0x800d57 <total_container_weight+0x3>
    34a2:	8a e0       	ldi	r24, 0x0A	; 10
    34a4:	0e 94 74 02 	call	0x4e8	; 0x4e8 <HX711_get_units>
    34a8:	0e 94 12 2b 	call	0x5624	; 0x5624 <__fixsfsi>
    34ac:	60 93 54 0d 	sts	0x0D54, r22	; 0x800d54 <total_container_weight>
    34b0:	70 93 55 0d 	sts	0x0D55, r23	; 0x800d55 <total_container_weight+0x1>
    34b4:	80 93 56 0d 	sts	0x0D56, r24	; 0x800d56 <total_container_weight+0x2>
    34b8:	90 93 57 0d 	sts	0x0D57, r25	; 0x800d57 <total_container_weight+0x3>
    34bc:	0e 94 39 05 	call	0xa72	; 0xa72 <add_drink_variable_reset>
    34c0:	10 92 5f 0d 	sts	0x0D5F, r1	; 0x800d5f <add_drink_flag>
    34c4:	10 92 e1 0f 	sts	0x0FE1, r1	; 0x800fe1 <add_drink_state>
    34c8:	13 c0       	rjmp	.+38     	; 0x34f0 <AddDrink_Tick+0xcea>
    34ca:	88 e0       	ldi	r24, 0x08	; 8
    34cc:	80 93 5e 0d 	sts	0x0D5E, r24	; 0x800d5e <add_drink_selection>
    34d0:	0f c0       	rjmp	.+30     	; 0x34f0 <AddDrink_Tick+0xcea>
    34d2:	10 92 e1 0f 	sts	0x0FE1, r1	; 0x800fe1 <add_drink_state>
    34d6:	0c c0       	rjmp	.+24     	; 0x34f0 <AddDrink_Tick+0xcea>
    34d8:	e0 91 e1 0f 	lds	r30, 0x0FE1	; 0x800fe1 <add_drink_state>
    34dc:	8e 2f       	mov	r24, r30
    34de:	90 e0       	ldi	r25, 0x00	; 0
    34e0:	89 30       	cpi	r24, 0x09	; 9
    34e2:	91 05       	cpc	r25, r1
    34e4:	b0 f7       	brcc	.-20     	; 0x34d2 <AddDrink_Tick+0xccc>
    34e6:	fc 01       	movw	r30, r24
    34e8:	e7 57       	subi	r30, 0x77	; 119
    34ea:	ff 4f       	sbci	r31, 0xFF	; 255
    34ec:	0c 94 ba 2c 	jmp	0x5974	; 0x5974 <__tablejump2__>
    34f0:	df 91       	pop	r29
    34f2:	cf 91       	pop	r28
    34f4:	1f 91       	pop	r17
    34f6:	0f 91       	pop	r16
    34f8:	ff 90       	pop	r15
    34fa:	ef 90       	pop	r14
    34fc:	df 90       	pop	r13
    34fe:	cf 90       	pop	r12
    3500:	bf 90       	pop	r11
    3502:	7f 90       	pop	r7
    3504:	6f 90       	pop	r6
    3506:	5f 90       	pop	r5
    3508:	4f 90       	pop	r4
    350a:	08 95       	ret

0000350c <AddDrinkTask>:
    350c:	10 92 e1 0f 	sts	0x0FE1, r1	; 0x800fe1 <add_drink_state>
    3510:	7a d9       	rcall	.-3340   	; 0x2806 <AddDrink_Tick>
    3512:	84 e6       	ldi	r24, 0x64	; 100
    3514:	90 e0       	ldi	r25, 0x00	; 0
    3516:	0e 94 84 29 	call	0x5308	; 0x5308 <vTaskDelay>
    351a:	fa cf       	rjmp	.-12     	; 0x3510 <AddDrinkTask+0x4>

0000351c <AddDrinkPulse>:
    351c:	af 92       	push	r10
    351e:	bf 92       	push	r11
    3520:	cf 92       	push	r12
    3522:	df 92       	push	r13
    3524:	ef 92       	push	r14
    3526:	ff 92       	push	r15
    3528:	0f 93       	push	r16
    352a:	a1 2c       	mov	r10, r1
    352c:	b1 2c       	mov	r11, r1
    352e:	c1 2c       	mov	r12, r1
    3530:	d1 2c       	mov	r13, r1
    3532:	e1 2c       	mov	r14, r1
    3534:	f1 2c       	mov	r15, r1
    3536:	08 2f       	mov	r16, r24
    3538:	20 e0       	ldi	r18, 0x00	; 0
    353a:	30 e0       	ldi	r19, 0x00	; 0
    353c:	45 e5       	ldi	r20, 0x55	; 85
    353e:	50 e0       	ldi	r21, 0x00	; 0
    3540:	6e e7       	ldi	r22, 0x7E	; 126
    3542:	74 e0       	ldi	r23, 0x04	; 4
    3544:	86 e8       	ldi	r24, 0x86	; 134
    3546:	9a e1       	ldi	r25, 0x1A	; 26
    3548:	0e 94 0c 27 	call	0x4e18	; 0x4e18 <xTaskGenericCreate>
    354c:	0f 91       	pop	r16
    354e:	ff 90       	pop	r15
    3550:	ef 90       	pop	r14
    3552:	df 90       	pop	r13
    3554:	cf 90       	pop	r12
    3556:	bf 90       	pop	r11
    3558:	af 90       	pop	r10
    355a:	08 95       	ret

0000355c <replace_drink_error>:
    355c:	0e 94 68 24 	call	0x48d0	; 0x48d0 <nokia_lcd_clear>
    3560:	61 e0       	ldi	r22, 0x01	; 1
    3562:	8b e8       	ldi	r24, 0x8B	; 139
    3564:	94 e0       	ldi	r25, 0x04	; 4
    3566:	0e 94 4e 25 	call	0x4a9c	; 0x4a9c <nokia_lcd_write_string>
    356a:	0c 94 65 25 	jmp	0x4aca	; 0x4aca <nokia_lcd_render>
    356e:	08 95       	ret

00003570 <ReplaceDrink_Tick>:
    3570:	cf 93       	push	r28
    3572:	80 91 e2 0f 	lds	r24, 0x0FE2	; 0x800fe2 <replace_drink_state>
    3576:	81 30       	cpi	r24, 0x01	; 1
    3578:	49 f0       	breq	.+18     	; 0x358c <ReplaceDrink_Tick+0x1c>
    357a:	82 30       	cpi	r24, 0x02	; 2
    357c:	f1 f0       	breq	.+60     	; 0x35ba <ReplaceDrink_Tick+0x4a>
    357e:	2e c0       	rjmp	.+92     	; 0x35dc <ReplaceDrink_Tick+0x6c>
    3580:	8f e4       	ldi	r24, 0x4F	; 79
    3582:	93 ec       	ldi	r25, 0xC3	; 195
    3584:	01 97       	sbiw	r24, 0x01	; 1
    3586:	f1 f7       	brne	.-4      	; 0x3584 <ReplaceDrink_Tick+0x14>
    3588:	00 c0       	rjmp	.+0      	; 0x358a <ReplaceDrink_Tick+0x1a>
    358a:	00 00       	nop
    358c:	0e 94 80 04 	call	0x900	; 0x900 <GetKeypadKey>
    3590:	c8 2f       	mov	r28, r24
    3592:	88 23       	and	r24, r24
    3594:	a9 f3       	breq	.-22     	; 0x3580 <ReplaceDrink_Tick+0x10>
    3596:	06 c0       	rjmp	.+12     	; 0x35a4 <ReplaceDrink_Tick+0x34>
    3598:	8f e4       	ldi	r24, 0x4F	; 79
    359a:	93 ec       	ldi	r25, 0xC3	; 195
    359c:	01 97       	sbiw	r24, 0x01	; 1
    359e:	f1 f7       	brne	.-4      	; 0x359c <ReplaceDrink_Tick+0x2c>
    35a0:	00 c0       	rjmp	.+0      	; 0x35a2 <ReplaceDrink_Tick+0x32>
    35a2:	00 00       	nop
    35a4:	0e 94 80 04 	call	0x900	; 0x900 <GetKeypadKey>
    35a8:	c8 17       	cp	r28, r24
    35aa:	b1 f3       	breq	.-20     	; 0x3598 <ReplaceDrink_Tick+0x28>
    35ac:	6b c0       	rjmp	.+214    	; 0x3684 <ReplaceDrink_Tick+0x114>
    35ae:	8f e4       	ldi	r24, 0x4F	; 79
    35b0:	93 ec       	ldi	r25, 0xC3	; 195
    35b2:	01 97       	sbiw	r24, 0x01	; 1
    35b4:	f1 f7       	brne	.-4      	; 0x35b2 <ReplaceDrink_Tick+0x42>
    35b6:	00 c0       	rjmp	.+0      	; 0x35b8 <ReplaceDrink_Tick+0x48>
    35b8:	00 00       	nop
    35ba:	0e 94 80 04 	call	0x900	; 0x900 <GetKeypadKey>
    35be:	c8 2f       	mov	r28, r24
    35c0:	88 23       	and	r24, r24
    35c2:	a9 f3       	breq	.-22     	; 0x35ae <ReplaceDrink_Tick+0x3e>
    35c4:	06 c0       	rjmp	.+12     	; 0x35d2 <ReplaceDrink_Tick+0x62>
    35c6:	8f e4       	ldi	r24, 0x4F	; 79
    35c8:	93 ec       	ldi	r25, 0xC3	; 195
    35ca:	01 97       	sbiw	r24, 0x01	; 1
    35cc:	f1 f7       	brne	.-4      	; 0x35ca <ReplaceDrink_Tick+0x5a>
    35ce:	00 c0       	rjmp	.+0      	; 0x35d0 <ReplaceDrink_Tick+0x60>
    35d0:	00 00       	nop
    35d2:	0e 94 80 04 	call	0x900	; 0x900 <GetKeypadKey>
    35d6:	c8 17       	cp	r28, r24
    35d8:	b1 f3       	breq	.-20     	; 0x35c6 <ReplaceDrink_Tick+0x56>
    35da:	54 c0       	rjmp	.+168    	; 0x3684 <ReplaceDrink_Tick+0x114>
    35dc:	83 30       	cpi	r24, 0x03	; 3
    35de:	20 f4       	brcc	.+8      	; 0x35e8 <ReplaceDrink_Tick+0x78>
    35e0:	81 30       	cpi	r24, 0x01	; 1
    35e2:	08 f0       	brcs	.+2      	; 0x35e6 <ReplaceDrink_Tick+0x76>
    35e4:	5a c0       	rjmp	.+180    	; 0x369a <ReplaceDrink_Tick+0x12a>
    35e6:	04 c0       	rjmp	.+8      	; 0x35f0 <ReplaceDrink_Tick+0x80>
    35e8:	83 30       	cpi	r24, 0x03	; 3
    35ea:	09 f4       	brne	.+2      	; 0x35ee <ReplaceDrink_Tick+0x7e>
    35ec:	3f c0       	rjmp	.+126    	; 0x366c <ReplaceDrink_Tick+0xfc>
    35ee:	47 c0       	rjmp	.+142    	; 0x367e <ReplaceDrink_Tick+0x10e>
    35f0:	80 91 52 0d 	lds	r24, 0x0D52	; 0x800d52 <replace_drink_flag>
    35f4:	88 23       	and	r24, r24
    35f6:	09 f4       	brne	.+2      	; 0x35fa <ReplaceDrink_Tick+0x8a>
    35f8:	50 c0       	rjmp	.+160    	; 0x369a <ReplaceDrink_Tick+0x12a>
    35fa:	80 91 60 0d 	lds	r24, 0x0D60	; 0x800d60 <keys_have_been_deposited>
    35fe:	88 23       	and	r24, r24
    3600:	29 f0       	breq	.+10     	; 0x360c <ReplaceDrink_Tick+0x9c>
    3602:	ac df       	rcall	.-168    	; 0x355c <replace_drink_error>
    3604:	81 e0       	ldi	r24, 0x01	; 1
    3606:	80 93 e2 0f 	sts	0x0FE2, r24	; 0x800fe2 <replace_drink_state>
    360a:	47 c0       	rjmp	.+142    	; 0x369a <ReplaceDrink_Tick+0x12a>
    360c:	80 91 5c 0d 	lds	r24, 0x0D5C	; 0x800d5c <type_of_drink>
    3610:	81 11       	cpse	r24, r1
    3612:	0d c0       	rjmp	.+26     	; 0x362e <ReplaceDrink_Tick+0xbe>
    3614:	0e 94 68 24 	call	0x48d0	; 0x48d0 <nokia_lcd_clear>
    3618:	61 e0       	ldi	r22, 0x01	; 1
    361a:	87 ef       	ldi	r24, 0xF7	; 247
    361c:	94 e0       	ldi	r25, 0x04	; 4
    361e:	0e 94 4e 25 	call	0x4a9c	; 0x4a9c <nokia_lcd_write_string>
    3622:	0e 94 65 25 	call	0x4aca	; 0x4aca <nokia_lcd_render>
    3626:	82 e0       	ldi	r24, 0x02	; 2
    3628:	80 93 e2 0f 	sts	0x0FE2, r24	; 0x800fe2 <replace_drink_state>
    362c:	36 c0       	rjmp	.+108    	; 0x369a <ReplaceDrink_Tick+0x12a>
    362e:	81 e0       	ldi	r24, 0x01	; 1
    3630:	80 93 5f 0d 	sts	0x0D5F, r24	; 0x800d5f <add_drink_flag>
    3634:	10 92 5c 0d 	sts	0x0D5C, r1	; 0x800d5c <type_of_drink>
    3638:	10 92 58 0d 	sts	0x0D58, r1	; 0x800d58 <volume_of_drink>
    363c:	10 92 59 0d 	sts	0x0D59, r1	; 0x800d59 <volume_of_drink+0x1>
    3640:	10 92 5a 0d 	sts	0x0D5A, r1	; 0x800d5a <volume_of_drink+0x2>
    3644:	10 92 5b 0d 	sts	0x0D5B, r1	; 0x800d5b <volume_of_drink+0x3>
    3648:	10 92 53 0d 	sts	0x0D53, r1	; 0x800d53 <drink_alcohol_content>
    364c:	0e 94 39 05 	call	0xa72	; 0xa72 <add_drink_variable_reset>
    3650:	83 e0       	ldi	r24, 0x03	; 3
    3652:	80 93 e2 0f 	sts	0x0FE2, r24	; 0x800fe2 <replace_drink_state>
    3656:	21 c0       	rjmp	.+66     	; 0x369a <ReplaceDrink_Tick+0x12a>
    3658:	10 92 52 0d 	sts	0x0D52, r1	; 0x800d52 <replace_drink_flag>
    365c:	10 92 e2 0f 	sts	0x0FE2, r1	; 0x800fe2 <replace_drink_state>
    3660:	1c c0       	rjmp	.+56     	; 0x369a <ReplaceDrink_Tick+0x12a>
    3662:	10 92 52 0d 	sts	0x0D52, r1	; 0x800d52 <replace_drink_flag>
    3666:	10 92 e2 0f 	sts	0x0FE2, r1	; 0x800fe2 <replace_drink_state>
    366a:	17 c0       	rjmp	.+46     	; 0x369a <ReplaceDrink_Tick+0x12a>
    366c:	80 91 5f 0d 	lds	r24, 0x0D5F	; 0x800d5f <add_drink_flag>
    3670:	81 11       	cpse	r24, r1
    3672:	13 c0       	rjmp	.+38     	; 0x369a <ReplaceDrink_Tick+0x12a>
    3674:	10 92 52 0d 	sts	0x0D52, r1	; 0x800d52 <replace_drink_flag>
    3678:	10 92 e2 0f 	sts	0x0FE2, r1	; 0x800fe2 <replace_drink_state>
    367c:	0e c0       	rjmp	.+28     	; 0x369a <ReplaceDrink_Tick+0x12a>
    367e:	10 92 e2 0f 	sts	0x0FE2, r1	; 0x800fe2 <replace_drink_state>
    3682:	0b c0       	rjmp	.+22     	; 0x369a <ReplaceDrink_Tick+0x12a>
    3684:	80 91 e2 0f 	lds	r24, 0x0FE2	; 0x800fe2 <replace_drink_state>
    3688:	81 30       	cpi	r24, 0x01	; 1
    368a:	31 f3       	breq	.-52     	; 0x3658 <ReplaceDrink_Tick+0xe8>
    368c:	08 f4       	brcc	.+2      	; 0x3690 <ReplaceDrink_Tick+0x120>
    368e:	b0 cf       	rjmp	.-160    	; 0x35f0 <ReplaceDrink_Tick+0x80>
    3690:	82 30       	cpi	r24, 0x02	; 2
    3692:	39 f3       	breq	.-50     	; 0x3662 <ReplaceDrink_Tick+0xf2>
    3694:	83 30       	cpi	r24, 0x03	; 3
    3696:	51 f3       	breq	.-44     	; 0x366c <ReplaceDrink_Tick+0xfc>
    3698:	f2 cf       	rjmp	.-28     	; 0x367e <ReplaceDrink_Tick+0x10e>
    369a:	cf 91       	pop	r28
    369c:	08 95       	ret

0000369e <ReplaceDrinkTask>:
    369e:	10 92 e2 0f 	sts	0x0FE2, r1	; 0x800fe2 <replace_drink_state>
    36a2:	66 df       	rcall	.-308    	; 0x3570 <ReplaceDrink_Tick>
    36a4:	fe cf       	rjmp	.-4      	; 0x36a2 <ReplaceDrinkTask+0x4>

000036a6 <ReplaceDrinkPulse>:
    36a6:	af 92       	push	r10
    36a8:	bf 92       	push	r11
    36aa:	cf 92       	push	r12
    36ac:	df 92       	push	r13
    36ae:	ef 92       	push	r14
    36b0:	ff 92       	push	r15
    36b2:	0f 93       	push	r16
    36b4:	a1 2c       	mov	r10, r1
    36b6:	b1 2c       	mov	r11, r1
    36b8:	c1 2c       	mov	r12, r1
    36ba:	d1 2c       	mov	r13, r1
    36bc:	e1 2c       	mov	r14, r1
    36be:	f1 2c       	mov	r15, r1
    36c0:	08 2f       	mov	r16, r24
    36c2:	20 e0       	ldi	r18, 0x00	; 0
    36c4:	30 e0       	ldi	r19, 0x00	; 0
    36c6:	45 e5       	ldi	r20, 0x55	; 85
    36c8:	50 e0       	ldi	r21, 0x00	; 0
    36ca:	6e e2       	ldi	r22, 0x2E	; 46
    36cc:	75 e0       	ldi	r23, 0x05	; 5
    36ce:	8f e4       	ldi	r24, 0x4F	; 79
    36d0:	9b e1       	ldi	r25, 0x1B	; 27
    36d2:	0e 94 0c 27 	call	0x4e18	; 0x4e18 <xTaskGenericCreate>
    36d6:	0f 91       	pop	r16
    36d8:	ff 90       	pop	r15
    36da:	ef 90       	pop	r14
    36dc:	df 90       	pop	r13
    36de:	cf 90       	pop	r12
    36e0:	bf 90       	pop	r11
    36e2:	af 90       	pop	r10
    36e4:	08 95       	ret

000036e6 <UserVerify_Tick>:
    36e6:	ff 92       	push	r15
    36e8:	0f 93       	push	r16
    36ea:	1f 93       	push	r17
    36ec:	cf 93       	push	r28
    36ee:	df 93       	push	r29
    36f0:	80 91 df 0f 	lds	r24, 0x0FDF	; 0x800fdf <user_verify_state>
    36f4:	81 30       	cpi	r24, 0x01	; 1
    36f6:	49 f0       	breq	.+18     	; 0x370a <UserVerify_Tick+0x24>
    36f8:	82 30       	cpi	r24, 0x02	; 2
    36fa:	31 f1       	breq	.+76     	; 0x3748 <UserVerify_Tick+0x62>
    36fc:	e4 c0       	rjmp	.+456    	; 0x38c6 <UserVerify_Tick+0x1e0>
    36fe:	8f e4       	ldi	r24, 0x4F	; 79
    3700:	93 ec       	ldi	r25, 0xC3	; 195
    3702:	01 97       	sbiw	r24, 0x01	; 1
    3704:	f1 f7       	brne	.-4      	; 0x3702 <UserVerify_Tick+0x1c>
    3706:	00 c0       	rjmp	.+0      	; 0x3708 <UserVerify_Tick+0x22>
    3708:	00 00       	nop
    370a:	0e 94 80 04 	call	0x900	; 0x900 <GetKeypadKey>
    370e:	80 93 1f 0d 	sts	0x0D1F, r24	; 0x800d1f <uv_selection>
    3712:	88 23       	and	r24, r24
    3714:	a1 f3       	breq	.-24     	; 0x36fe <UserVerify_Tick+0x18>
    3716:	06 c0       	rjmp	.+12     	; 0x3724 <UserVerify_Tick+0x3e>
    3718:	ef e4       	ldi	r30, 0x4F	; 79
    371a:	f3 ec       	ldi	r31, 0xC3	; 195
    371c:	31 97       	sbiw	r30, 0x01	; 1
    371e:	f1 f7       	brne	.-4      	; 0x371c <UserVerify_Tick+0x36>
    3720:	00 c0       	rjmp	.+0      	; 0x3722 <UserVerify_Tick+0x3c>
    3722:	00 00       	nop
    3724:	0e 94 80 04 	call	0x900	; 0x900 <GetKeypadKey>
    3728:	80 93 1e 0d 	sts	0x0D1E, r24	; 0x800d1e <uv_prev_select>
    372c:	90 91 1f 0d 	lds	r25, 0x0D1F	; 0x800d1f <uv_selection>
    3730:	89 17       	cp	r24, r25
    3732:	91 f3       	breq	.-28     	; 0x3718 <UserVerify_Tick+0x32>
    3734:	91 53       	subi	r25, 0x31	; 49
    3736:	90 93 1f 0d 	sts	0x0D1F, r25	; 0x800d1f <uv_selection>
    373a:	c5 c0       	rjmp	.+394    	; 0x38c6 <UserVerify_Tick+0x1e0>
    373c:	8f e4       	ldi	r24, 0x4F	; 79
    373e:	93 ec       	ldi	r25, 0xC3	; 195
    3740:	01 97       	sbiw	r24, 0x01	; 1
    3742:	f1 f7       	brne	.-4      	; 0x3740 <UserVerify_Tick+0x5a>
    3744:	00 c0       	rjmp	.+0      	; 0x3746 <UserVerify_Tick+0x60>
    3746:	00 00       	nop
    3748:	0e 94 80 04 	call	0x900	; 0x900 <GetKeypadKey>
    374c:	80 93 1f 0d 	sts	0x0D1F, r24	; 0x800d1f <uv_selection>
    3750:	88 23       	and	r24, r24
    3752:	a1 f3       	breq	.-24     	; 0x373c <UserVerify_Tick+0x56>
    3754:	06 c0       	rjmp	.+12     	; 0x3762 <UserVerify_Tick+0x7c>
    3756:	ef e4       	ldi	r30, 0x4F	; 79
    3758:	f3 ec       	ldi	r31, 0xC3	; 195
    375a:	31 97       	sbiw	r30, 0x01	; 1
    375c:	f1 f7       	brne	.-4      	; 0x375a <UserVerify_Tick+0x74>
    375e:	00 c0       	rjmp	.+0      	; 0x3760 <UserVerify_Tick+0x7a>
    3760:	00 00       	nop
    3762:	0e 94 80 04 	call	0x900	; 0x900 <GetKeypadKey>
    3766:	80 93 1e 0d 	sts	0x0D1E, r24	; 0x800d1e <uv_prev_select>
    376a:	90 91 1f 0d 	lds	r25, 0x0D1F	; 0x800d1f <uv_selection>
    376e:	89 17       	cp	r24, r25
    3770:	91 f3       	breq	.-28     	; 0x3756 <UserVerify_Tick+0x70>
    3772:	c8 e2       	ldi	r28, 0x28	; 40
    3774:	dd e0       	ldi	r29, 0x0D	; 13
    3776:	00 e2       	ldi	r16, 0x20	; 32
    3778:	1d e0       	ldi	r17, 0x0D	; 13
    377a:	0f 2e       	mov	r0, r31
    377c:	fa e2       	ldi	r31, 0x2A	; 42
    377e:	ff 2e       	mov	r15, r31
    3780:	f0 2d       	mov	r31, r0
    3782:	87 c0       	rjmp	.+270    	; 0x3892 <UserVerify_Tick+0x1ac>
    3784:	88 23       	and	r24, r24
    3786:	09 f4       	brne	.+2      	; 0x378a <UserVerify_Tick+0xa4>
    3788:	6f c0       	rjmp	.+222    	; 0x3868 <UserVerify_Tick+0x182>
    378a:	8a 32       	cpi	r24, 0x2A	; 42
    378c:	e1 f1       	breq	.+120    	; 0x3806 <UserVerify_Tick+0x120>
    378e:	20 91 30 0d 	lds	r18, 0x0D30	; 0x800d30 <password_size>
    3792:	28 30       	cpi	r18, 0x08	; 8
    3794:	08 f0       	brcs	.+2      	; 0x3798 <UserVerify_Tick+0xb2>
    3796:	68 c0       	rjmp	.+208    	; 0x3868 <UserVerify_Tick+0x182>
    3798:	30 e0       	ldi	r19, 0x00	; 0
    379a:	f9 01       	movw	r30, r18
    379c:	e0 5e       	subi	r30, 0xE0	; 224
    379e:	f2 4f       	sbci	r31, 0xF2	; 242
    37a0:	80 83       	st	Z, r24
    37a2:	2f 5f       	subi	r18, 0xFF	; 255
    37a4:	3f 4f       	sbci	r19, 0xFF	; 255
    37a6:	28 30       	cpi	r18, 0x08	; 8
    37a8:	31 05       	cpc	r19, r1
    37aa:	24 f4       	brge	.+8      	; 0x37b4 <UserVerify_Tick+0xce>
    37ac:	f9 01       	movw	r30, r18
    37ae:	e0 5e       	subi	r30, 0xE0	; 224
    37b0:	f2 4f       	sbci	r31, 0xF2	; 242
    37b2:	f0 82       	st	Z, r15
    37b4:	0e 94 68 24 	call	0x48d0	; 0x48d0 <nokia_lcd_clear>
    37b8:	61 e0       	ldi	r22, 0x01	; 1
    37ba:	8e e7       	ldi	r24, 0x7E	; 126
    37bc:	92 e0       	ldi	r25, 0x02	; 2
    37be:	0e 94 4e 25 	call	0x4a9c	; 0x4a9c <nokia_lcd_write_string>
    37c2:	6a e0       	ldi	r22, 0x0A	; 10
    37c4:	80 e0       	ldi	r24, 0x00	; 0
    37c6:	0e 94 60 25 	call	0x4ac0	; 0x4ac0 <nokia_lcd_set_cursor>
    37ca:	61 e0       	ldi	r22, 0x01	; 1
    37cc:	8e eb       	ldi	r24, 0xBE	; 190
    37ce:	93 e0       	ldi	r25, 0x03	; 3
    37d0:	0e 94 4e 25 	call	0x4a9c	; 0x4a9c <nokia_lcd_write_string>
    37d4:	80 91 1d 0d 	lds	r24, 0x0D1D	; 0x800d1d <uv_password_fails>
    37d8:	61 e0       	ldi	r22, 0x01	; 1
    37da:	80 5d       	subi	r24, 0xD0	; 208
    37dc:	0e 94 a4 24 	call	0x4948	; 0x4948 <nokia_lcd_write_char>
    37e0:	64 e1       	ldi	r22, 0x14	; 20
    37e2:	80 e0       	ldi	r24, 0x00	; 0
    37e4:	0e 94 60 25 	call	0x4ac0	; 0x4ac0 <nokia_lcd_set_cursor>
    37e8:	61 e0       	ldi	r22, 0x01	; 1
    37ea:	c8 01       	movw	r24, r16
    37ec:	0e 94 4e 25 	call	0x4a9c	; 0x4a9c <nokia_lcd_write_string>
    37f0:	0e 94 65 25 	call	0x4aca	; 0x4aca <nokia_lcd_render>
    37f4:	80 91 30 0d 	lds	r24, 0x0D30	; 0x800d30 <password_size>
    37f8:	8f 5f       	subi	r24, 0xFF	; 255
    37fa:	80 93 30 0d 	sts	0x0D30, r24	; 0x800d30 <password_size>
    37fe:	80 91 1f 0d 	lds	r24, 0x0D1F	; 0x800d1f <uv_selection>
    3802:	8a 32       	cpi	r24, 0x2A	; 42
    3804:	89 f5       	brne	.+98     	; 0x3868 <UserVerify_Tick+0x182>
    3806:	10 92 30 0d 	sts	0x0D30, r1	; 0x800d30 <password_size>
    380a:	e0 e2       	ldi	r30, 0x20	; 32
    380c:	fd e0       	ldi	r31, 0x0D	; 13
    380e:	11 92       	st	Z+, r1
    3810:	ce 17       	cp	r28, r30
    3812:	df 07       	cpc	r29, r31
    3814:	e1 f7       	brne	.-8      	; 0x380e <UserVerify_Tick+0x128>
    3816:	f8 01       	movw	r30, r16
    3818:	f0 82       	st	Z, r15
    381a:	0e 94 68 24 	call	0x48d0	; 0x48d0 <nokia_lcd_clear>
    381e:	61 e0       	ldi	r22, 0x01	; 1
    3820:	8e e7       	ldi	r24, 0x7E	; 126
    3822:	92 e0       	ldi	r25, 0x02	; 2
    3824:	0e 94 4e 25 	call	0x4a9c	; 0x4a9c <nokia_lcd_write_string>
    3828:	6a e0       	ldi	r22, 0x0A	; 10
    382a:	80 e0       	ldi	r24, 0x00	; 0
    382c:	0e 94 60 25 	call	0x4ac0	; 0x4ac0 <nokia_lcd_set_cursor>
    3830:	61 e0       	ldi	r22, 0x01	; 1
    3832:	8e eb       	ldi	r24, 0xBE	; 190
    3834:	93 e0       	ldi	r25, 0x03	; 3
    3836:	0e 94 4e 25 	call	0x4a9c	; 0x4a9c <nokia_lcd_write_string>
    383a:	80 91 1d 0d 	lds	r24, 0x0D1D	; 0x800d1d <uv_password_fails>
    383e:	61 e0       	ldi	r22, 0x01	; 1
    3840:	80 5d       	subi	r24, 0xD0	; 208
    3842:	0e 94 a4 24 	call	0x4948	; 0x4948 <nokia_lcd_write_char>
    3846:	64 e1       	ldi	r22, 0x14	; 20
    3848:	80 e0       	ldi	r24, 0x00	; 0
    384a:	0e 94 60 25 	call	0x4ac0	; 0x4ac0 <nokia_lcd_set_cursor>
    384e:	61 e0       	ldi	r22, 0x01	; 1
    3850:	c8 01       	movw	r24, r16
    3852:	0e 94 4e 25 	call	0x4a9c	; 0x4a9c <nokia_lcd_write_string>
    3856:	0e 94 65 25 	call	0x4aca	; 0x4aca <nokia_lcd_render>
    385a:	06 c0       	rjmp	.+12     	; 0x3868 <UserVerify_Tick+0x182>
    385c:	8f e4       	ldi	r24, 0x4F	; 79
    385e:	93 ec       	ldi	r25, 0xC3	; 195
    3860:	01 97       	sbiw	r24, 0x01	; 1
    3862:	f1 f7       	brne	.-4      	; 0x3860 <UserVerify_Tick+0x17a>
    3864:	00 c0       	rjmp	.+0      	; 0x3866 <UserVerify_Tick+0x180>
    3866:	00 00       	nop
    3868:	0e 94 80 04 	call	0x900	; 0x900 <GetKeypadKey>
    386c:	80 93 1f 0d 	sts	0x0D1F, r24	; 0x800d1f <uv_selection>
    3870:	88 23       	and	r24, r24
    3872:	a1 f3       	breq	.-24     	; 0x385c <UserVerify_Tick+0x176>
    3874:	06 c0       	rjmp	.+12     	; 0x3882 <UserVerify_Tick+0x19c>
    3876:	ef e4       	ldi	r30, 0x4F	; 79
    3878:	f3 ec       	ldi	r31, 0xC3	; 195
    387a:	31 97       	sbiw	r30, 0x01	; 1
    387c:	f1 f7       	brne	.-4      	; 0x387a <UserVerify_Tick+0x194>
    387e:	00 c0       	rjmp	.+0      	; 0x3880 <UserVerify_Tick+0x19a>
    3880:	00 00       	nop
    3882:	0e 94 80 04 	call	0x900	; 0x900 <GetKeypadKey>
    3886:	80 93 1e 0d 	sts	0x0D1E, r24	; 0x800d1e <uv_prev_select>
    388a:	90 91 1f 0d 	lds	r25, 0x0D1F	; 0x800d1f <uv_selection>
    388e:	89 17       	cp	r24, r25
    3890:	91 f3       	breq	.-28     	; 0x3876 <UserVerify_Tick+0x190>
    3892:	80 91 1f 0d 	lds	r24, 0x0D1F	; 0x800d1f <uv_selection>
    3896:	83 32       	cpi	r24, 0x23	; 35
    3898:	09 f0       	breq	.+2      	; 0x389c <UserVerify_Tick+0x1b6>
    389a:	74 cf       	rjmp	.-280    	; 0x3784 <UserVerify_Tick+0x9e>
    389c:	0e 94 a2 10 	call	0x2144	; 0x2144 <remove_password_verification>
    38a0:	81 11       	cpse	r24, r1
    38a2:	06 c0       	rjmp	.+12     	; 0x38b0 <UserVerify_Tick+0x1ca>
    38a4:	80 91 1d 0d 	lds	r24, 0x0D1D	; 0x800d1d <uv_password_fails>
    38a8:	8f 5f       	subi	r24, 0xFF	; 255
    38aa:	80 93 1d 0d 	sts	0x0D1D, r24	; 0x800d1d <uv_password_fails>
    38ae:	0b c0       	rjmp	.+22     	; 0x38c6 <UserVerify_Tick+0x1e0>
    38b0:	10 92 1d 0d 	sts	0x0D1D, r1	; 0x800d1d <uv_password_fails>
    38b4:	80 91 df 0f 	lds	r24, 0x0FDF	; 0x800fdf <user_verify_state>
    38b8:	81 30       	cpi	r24, 0x01	; 1
    38ba:	f1 f0       	breq	.+60     	; 0x38f8 <UserVerify_Tick+0x212>
    38bc:	68 f0       	brcs	.+26     	; 0x38d8 <UserVerify_Tick+0x1f2>
    38be:	82 30       	cpi	r24, 0x02	; 2
    38c0:	09 f0       	breq	.+2      	; 0x38c4 <UserVerify_Tick+0x1de>
    38c2:	ff c0       	rjmp	.+510    	; 0x3ac2 <UserVerify_Tick+0x3dc>
    38c4:	6f c0       	rjmp	.+222    	; 0x39a4 <UserVerify_Tick+0x2be>
    38c6:	80 91 df 0f 	lds	r24, 0x0FDF	; 0x800fdf <user_verify_state>
    38ca:	81 30       	cpi	r24, 0x01	; 1
    38cc:	a9 f0       	breq	.+42     	; 0x38f8 <UserVerify_Tick+0x212>
    38ce:	20 f0       	brcs	.+8      	; 0x38d8 <UserVerify_Tick+0x1f2>
    38d0:	82 30       	cpi	r24, 0x02	; 2
    38d2:	09 f4       	brne	.+2      	; 0x38d6 <UserVerify_Tick+0x1f0>
    38d4:	63 c0       	rjmp	.+198    	; 0x399c <UserVerify_Tick+0x2b6>
    38d6:	f5 c0       	rjmp	.+490    	; 0x3ac2 <UserVerify_Tick+0x3dc>
    38d8:	80 91 6f 0d 	lds	r24, 0x0D6F	; 0x800d6f <user_verify_flag>
    38dc:	88 23       	and	r24, r24
    38de:	09 f4       	brne	.+2      	; 0x38e2 <UserVerify_Tick+0x1fc>
    38e0:	f0 c0       	rjmp	.+480    	; 0x3ac2 <UserVerify_Tick+0x3dc>
    38e2:	0e 94 45 05 	call	0xa8a	; 0xa8a <removeusers_intro>
    38e6:	85 e0       	ldi	r24, 0x05	; 5
    38e8:	80 93 01 01 	sts	0x0101, r24	; 0x800101 <user_to_remove>
    38ec:	10 92 6c 0d 	sts	0x0D6C, r1	; 0x800d6c <correct_user_credentials>
    38f0:	81 e0       	ldi	r24, 0x01	; 1
    38f2:	80 93 df 0f 	sts	0x0FDF, r24	; 0x800fdf <user_verify_state>
    38f6:	e5 c0       	rjmp	.+458    	; 0x3ac2 <UserVerify_Tick+0x3dc>
    38f8:	80 91 1f 0d 	lds	r24, 0x0D1F	; 0x800d1f <uv_selection>
    38fc:	90 91 6b 0d 	lds	r25, 0x0D6B	; 0x800d6b <number_of_users>
    3900:	89 17       	cp	r24, r25
    3902:	b8 f5       	brcc	.+110    	; 0x3972 <UserVerify_Tick+0x28c>
    3904:	90 91 6f 0d 	lds	r25, 0x0D6F	; 0x800d6f <user_verify_flag>
    3908:	99 23       	and	r25, r25
    390a:	b9 f1       	breq	.+110    	; 0x397a <UserVerify_Tick+0x294>
    390c:	80 93 01 01 	sts	0x0101, r24	; 0x800101 <user_to_remove>
    3910:	10 92 1d 0d 	sts	0x0D1D, r1	; 0x800d1d <uv_password_fails>
    3914:	dd d7       	rcall	.+4026   	; 0x48d0 <nokia_lcd_clear>
    3916:	61 e0       	ldi	r22, 0x01	; 1
    3918:	8e e7       	ldi	r24, 0x7E	; 126
    391a:	92 e0       	ldi	r25, 0x02	; 2
    391c:	0e 94 4e 25 	call	0x4a9c	; 0x4a9c <nokia_lcd_write_string>
    3920:	6a e0       	ldi	r22, 0x0A	; 10
    3922:	80 e0       	ldi	r24, 0x00	; 0
    3924:	0e 94 60 25 	call	0x4ac0	; 0x4ac0 <nokia_lcd_set_cursor>
    3928:	61 e0       	ldi	r22, 0x01	; 1
    392a:	8e eb       	ldi	r24, 0xBE	; 190
    392c:	93 e0       	ldi	r25, 0x03	; 3
    392e:	0e 94 4e 25 	call	0x4a9c	; 0x4a9c <nokia_lcd_write_string>
    3932:	80 91 1d 0d 	lds	r24, 0x0D1D	; 0x800d1d <uv_password_fails>
    3936:	61 e0       	ldi	r22, 0x01	; 1
    3938:	80 5d       	subi	r24, 0xD0	; 208
    393a:	0e 94 a4 24 	call	0x4948	; 0x4948 <nokia_lcd_write_char>
    393e:	64 e1       	ldi	r22, 0x14	; 20
    3940:	80 e0       	ldi	r24, 0x00	; 0
    3942:	0e 94 60 25 	call	0x4ac0	; 0x4ac0 <nokia_lcd_set_cursor>
    3946:	61 e0       	ldi	r22, 0x01	; 1
    3948:	8c eb       	ldi	r24, 0xBC	; 188
    394a:	93 e0       	ldi	r25, 0x03	; 3
    394c:	0e 94 4e 25 	call	0x4a9c	; 0x4a9c <nokia_lcd_write_string>
    3950:	0e 94 65 25 	call	0x4aca	; 0x4aca <nokia_lcd_render>
    3954:	e0 e2       	ldi	r30, 0x20	; 32
    3956:	fd e0       	ldi	r31, 0x0D	; 13
    3958:	88 e2       	ldi	r24, 0x28	; 40
    395a:	9d e0       	ldi	r25, 0x0D	; 13
    395c:	11 92       	st	Z+, r1
    395e:	e8 17       	cp	r30, r24
    3960:	f9 07       	cpc	r31, r25
    3962:	e1 f7       	brne	.-8      	; 0x395c <UserVerify_Tick+0x276>
    3964:	8a e2       	ldi	r24, 0x2A	; 42
    3966:	80 93 20 0d 	sts	0x0D20, r24	; 0x800d20 <temporary_password>
    396a:	82 e0       	ldi	r24, 0x02	; 2
    396c:	80 93 df 0f 	sts	0x0FDF, r24	; 0x800fdf <user_verify_state>
    3970:	a8 c0       	rjmp	.+336    	; 0x3ac2 <UserVerify_Tick+0x3dc>
    3972:	80 91 6f 0d 	lds	r24, 0x0D6F	; 0x800d6f <user_verify_flag>
    3976:	81 11       	cpse	r24, r1
    3978:	a4 c0       	rjmp	.+328    	; 0x3ac2 <UserVerify_Tick+0x3dc>
    397a:	10 92 1d 0d 	sts	0x0D1D, r1	; 0x800d1d <uv_password_fails>
    397e:	10 92 30 0d 	sts	0x0D30, r1	; 0x800d30 <password_size>
    3982:	e0 e2       	ldi	r30, 0x20	; 32
    3984:	fd e0       	ldi	r31, 0x0D	; 13
    3986:	88 e2       	ldi	r24, 0x28	; 40
    3988:	9d e0       	ldi	r25, 0x0D	; 13
    398a:	11 92       	st	Z+, r1
    398c:	e8 17       	cp	r30, r24
    398e:	f9 07       	cpc	r31, r25
    3990:	e1 f7       	brne	.-8      	; 0x398a <UserVerify_Tick+0x2a4>
    3992:	10 92 20 0d 	sts	0x0D20, r1	; 0x800d20 <temporary_password>
    3996:	10 92 df 0f 	sts	0x0FDF, r1	; 0x800fdf <user_verify_state>
    399a:	93 c0       	rjmp	.+294    	; 0x3ac2 <UserVerify_Tick+0x3dc>
    399c:	80 91 1d 0d 	lds	r24, 0x0D1D	; 0x800d1d <uv_password_fails>
    39a0:	81 11       	cpse	r24, r1
    39a2:	1e c0       	rjmp	.+60     	; 0x39e0 <UserVerify_Tick+0x2fa>
    39a4:	80 91 6f 0d 	lds	r24, 0x0D6F	; 0x800d6f <user_verify_flag>
    39a8:	88 23       	and	r24, r24
    39aa:	09 f4       	brne	.+2      	; 0x39ae <UserVerify_Tick+0x2c8>
    39ac:	7a c0       	rjmp	.+244    	; 0x3aa2 <UserVerify_Tick+0x3bc>
    39ae:	90 d7       	rcall	.+3872   	; 0x48d0 <nokia_lcd_clear>
    39b0:	61 e0       	ldi	r22, 0x01	; 1
    39b2:	8f e3       	ldi	r24, 0x3F	; 63
    39b4:	95 e0       	ldi	r25, 0x05	; 5
    39b6:	0e 94 4e 25 	call	0x4a9c	; 0x4a9c <nokia_lcd_write_string>
    39ba:	6a e0       	ldi	r22, 0x0A	; 10
    39bc:	80 e0       	ldi	r24, 0x00	; 0
    39be:	0e 94 60 25 	call	0x4ac0	; 0x4ac0 <nokia_lcd_set_cursor>
    39c2:	61 e0       	ldi	r22, 0x01	; 1
    39c4:	8f e4       	ldi	r24, 0x4F	; 79
    39c6:	95 e0       	ldi	r25, 0x05	; 5
    39c8:	0e 94 4e 25 	call	0x4a9c	; 0x4a9c <nokia_lcd_write_string>
    39cc:	0e 94 65 25 	call	0x4aca	; 0x4aca <nokia_lcd_render>
    39d0:	81 e0       	ldi	r24, 0x01	; 1
    39d2:	80 93 6c 0d 	sts	0x0D6C, r24	; 0x800d6c <correct_user_credentials>
    39d6:	10 92 6f 0d 	sts	0x0D6F, r1	; 0x800d6f <user_verify_flag>
    39da:	10 92 df 0f 	sts	0x0FDF, r1	; 0x800fdf <user_verify_state>
    39de:	71 c0       	rjmp	.+226    	; 0x3ac2 <UserVerify_Tick+0x3dc>
    39e0:	83 30       	cpi	r24, 0x03	; 3
    39e2:	59 f5       	brne	.+86     	; 0x3a3a <UserVerify_Tick+0x354>
    39e4:	80 91 6f 0d 	lds	r24, 0x0D6F	; 0x800d6f <user_verify_flag>
    39e8:	88 23       	and	r24, r24
    39ea:	09 f4       	brne	.+2      	; 0x39ee <UserVerify_Tick+0x308>
    39ec:	5a c0       	rjmp	.+180    	; 0x3aa2 <UserVerify_Tick+0x3bc>
    39ee:	10 92 1d 0d 	sts	0x0D1D, r1	; 0x800d1d <uv_password_fails>
    39f2:	10 92 30 0d 	sts	0x0D30, r1	; 0x800d30 <password_size>
    39f6:	e0 e2       	ldi	r30, 0x20	; 32
    39f8:	fd e0       	ldi	r31, 0x0D	; 13
    39fa:	88 e2       	ldi	r24, 0x28	; 40
    39fc:	9d e0       	ldi	r25, 0x0D	; 13
    39fe:	11 92       	st	Z+, r1
    3a00:	8e 17       	cp	r24, r30
    3a02:	9f 07       	cpc	r25, r31
    3a04:	e1 f7       	brne	.-8      	; 0x39fe <UserVerify_Tick+0x318>
    3a06:	10 92 20 0d 	sts	0x0D20, r1	; 0x800d20 <temporary_password>
    3a0a:	62 d7       	rcall	.+3780   	; 0x48d0 <nokia_lcd_clear>
    3a0c:	61 e0       	ldi	r22, 0x01	; 1
    3a0e:	8f e3       	ldi	r24, 0x3F	; 63
    3a10:	95 e0       	ldi	r25, 0x05	; 5
    3a12:	0e 94 4e 25 	call	0x4a9c	; 0x4a9c <nokia_lcd_write_string>
    3a16:	6a e0       	ldi	r22, 0x0A	; 10
    3a18:	80 e0       	ldi	r24, 0x00	; 0
    3a1a:	0e 94 60 25 	call	0x4ac0	; 0x4ac0 <nokia_lcd_set_cursor>
    3a1e:	61 e0       	ldi	r22, 0x01	; 1
    3a20:	8d e4       	ldi	r24, 0x4D	; 77
    3a22:	95 e0       	ldi	r25, 0x05	; 5
    3a24:	0e 94 4e 25 	call	0x4a9c	; 0x4a9c <nokia_lcd_write_string>
    3a28:	0e 94 65 25 	call	0x4aca	; 0x4aca <nokia_lcd_render>
    3a2c:	10 92 6c 0d 	sts	0x0D6C, r1	; 0x800d6c <correct_user_credentials>
    3a30:	10 92 6f 0d 	sts	0x0D6F, r1	; 0x800d6f <user_verify_flag>
    3a34:	10 92 df 0f 	sts	0x0FDF, r1	; 0x800fdf <user_verify_state>
    3a38:	44 c0       	rjmp	.+136    	; 0x3ac2 <UserVerify_Tick+0x3dc>
    3a3a:	80 91 6f 0d 	lds	r24, 0x0D6F	; 0x800d6f <user_verify_flag>
    3a3e:	88 23       	and	r24, r24
    3a40:	81 f1       	breq	.+96     	; 0x3aa2 <UserVerify_Tick+0x3bc>
    3a42:	46 d7       	rcall	.+3724   	; 0x48d0 <nokia_lcd_clear>
    3a44:	61 e0       	ldi	r22, 0x01	; 1
    3a46:	8e e7       	ldi	r24, 0x7E	; 126
    3a48:	92 e0       	ldi	r25, 0x02	; 2
    3a4a:	0e 94 4e 25 	call	0x4a9c	; 0x4a9c <nokia_lcd_write_string>
    3a4e:	6a e0       	ldi	r22, 0x0A	; 10
    3a50:	80 e0       	ldi	r24, 0x00	; 0
    3a52:	0e 94 60 25 	call	0x4ac0	; 0x4ac0 <nokia_lcd_set_cursor>
    3a56:	61 e0       	ldi	r22, 0x01	; 1
    3a58:	8e eb       	ldi	r24, 0xBE	; 190
    3a5a:	93 e0       	ldi	r25, 0x03	; 3
    3a5c:	0e 94 4e 25 	call	0x4a9c	; 0x4a9c <nokia_lcd_write_string>
    3a60:	80 91 1d 0d 	lds	r24, 0x0D1D	; 0x800d1d <uv_password_fails>
    3a64:	61 e0       	ldi	r22, 0x01	; 1
    3a66:	80 5d       	subi	r24, 0xD0	; 208
    3a68:	6f d7       	rcall	.+3806   	; 0x4948 <nokia_lcd_write_char>
    3a6a:	64 e1       	ldi	r22, 0x14	; 20
    3a6c:	80 e0       	ldi	r24, 0x00	; 0
    3a6e:	0e 94 60 25 	call	0x4ac0	; 0x4ac0 <nokia_lcd_set_cursor>
    3a72:	61 e0       	ldi	r22, 0x01	; 1
    3a74:	8c eb       	ldi	r24, 0xBC	; 188
    3a76:	93 e0       	ldi	r25, 0x03	; 3
    3a78:	0e 94 4e 25 	call	0x4a9c	; 0x4a9c <nokia_lcd_write_string>
    3a7c:	0e 94 65 25 	call	0x4aca	; 0x4aca <nokia_lcd_render>
    3a80:	10 92 30 0d 	sts	0x0D30, r1	; 0x800d30 <password_size>
    3a84:	e0 e2       	ldi	r30, 0x20	; 32
    3a86:	fd e0       	ldi	r31, 0x0D	; 13
    3a88:	88 e2       	ldi	r24, 0x28	; 40
    3a8a:	9d e0       	ldi	r25, 0x0D	; 13
    3a8c:	11 92       	st	Z+, r1
    3a8e:	8e 17       	cp	r24, r30
    3a90:	9f 07       	cpc	r25, r31
    3a92:	e1 f7       	brne	.-8      	; 0x3a8c <UserVerify_Tick+0x3a6>
    3a94:	8a e2       	ldi	r24, 0x2A	; 42
    3a96:	80 93 20 0d 	sts	0x0D20, r24	; 0x800d20 <temporary_password>
    3a9a:	82 e0       	ldi	r24, 0x02	; 2
    3a9c:	80 93 df 0f 	sts	0x0FDF, r24	; 0x800fdf <user_verify_state>
    3aa0:	10 c0       	rjmp	.+32     	; 0x3ac2 <UserVerify_Tick+0x3dc>
    3aa2:	10 92 1d 0d 	sts	0x0D1D, r1	; 0x800d1d <uv_password_fails>
    3aa6:	10 92 30 0d 	sts	0x0D30, r1	; 0x800d30 <password_size>
    3aaa:	e0 e2       	ldi	r30, 0x20	; 32
    3aac:	fd e0       	ldi	r31, 0x0D	; 13
    3aae:	88 e2       	ldi	r24, 0x28	; 40
    3ab0:	9d e0       	ldi	r25, 0x0D	; 13
    3ab2:	11 92       	st	Z+, r1
    3ab4:	e8 17       	cp	r30, r24
    3ab6:	f9 07       	cpc	r31, r25
    3ab8:	e1 f7       	brne	.-8      	; 0x3ab2 <UserVerify_Tick+0x3cc>
    3aba:	10 92 20 0d 	sts	0x0D20, r1	; 0x800d20 <temporary_password>
    3abe:	10 92 df 0f 	sts	0x0FDF, r1	; 0x800fdf <user_verify_state>
    3ac2:	df 91       	pop	r29
    3ac4:	cf 91       	pop	r28
    3ac6:	1f 91       	pop	r17
    3ac8:	0f 91       	pop	r16
    3aca:	ff 90       	pop	r15
    3acc:	08 95       	ret

00003ace <UserVerifyTask>:
    3ace:	10 92 df 0f 	sts	0x0FDF, r1	; 0x800fdf <user_verify_state>
    3ad2:	09 de       	rcall	.-1006   	; 0x36e6 <UserVerify_Tick>
    3ad4:	84 e6       	ldi	r24, 0x64	; 100
    3ad6:	90 e0       	ldi	r25, 0x00	; 0
    3ad8:	0e 94 84 29 	call	0x5308	; 0x5308 <vTaskDelay>
    3adc:	fa cf       	rjmp	.-12     	; 0x3ad2 <UserVerifyTask+0x4>

00003ade <UserVerifyPulse>:
    3ade:	af 92       	push	r10
    3ae0:	bf 92       	push	r11
    3ae2:	cf 92       	push	r12
    3ae4:	df 92       	push	r13
    3ae6:	ef 92       	push	r14
    3ae8:	ff 92       	push	r15
    3aea:	0f 93       	push	r16
    3aec:	a1 2c       	mov	r10, r1
    3aee:	b1 2c       	mov	r11, r1
    3af0:	c1 2c       	mov	r12, r1
    3af2:	d1 2c       	mov	r13, r1
    3af4:	e1 2c       	mov	r14, r1
    3af6:	f1 2c       	mov	r15, r1
    3af8:	08 2f       	mov	r16, r24
    3afa:	20 e0       	ldi	r18, 0x00	; 0
    3afc:	30 e0       	ldi	r19, 0x00	; 0
    3afe:	45 e5       	ldi	r20, 0x55	; 85
    3b00:	50 e0       	ldi	r21, 0x00	; 0
    3b02:	6c e5       	ldi	r22, 0x5C	; 92
    3b04:	75 e0       	ldi	r23, 0x05	; 5
    3b06:	87 e6       	ldi	r24, 0x67	; 103
    3b08:	9d e1       	ldi	r25, 0x1D	; 29
    3b0a:	0e 94 0c 27 	call	0x4e18	; 0x4e18 <xTaskGenericCreate>
    3b0e:	0f 91       	pop	r16
    3b10:	ff 90       	pop	r15
    3b12:	ef 90       	pop	r14
    3b14:	df 90       	pop	r13
    3b16:	cf 90       	pop	r12
    3b18:	bf 90       	pop	r11
    3b1a:	af 90       	pop	r10
    3b1c:	08 95       	ret

00003b1e <GetDrink_Tick>:
    3b1e:	cf 92       	push	r12
    3b20:	df 92       	push	r13
    3b22:	ef 92       	push	r14
    3b24:	ff 92       	push	r15
    3b26:	0f 93       	push	r16
    3b28:	1f 93       	push	r17
    3b2a:	80 91 e9 0f 	lds	r24, 0x0FE9	; 0x800fe9 <get_drink_state>
    3b2e:	83 30       	cpi	r24, 0x03	; 3
    3b30:	09 f4       	brne	.+2      	; 0x3b34 <GetDrink_Tick+0x16>
    3b32:	4b c0       	rjmp	.+150    	; 0x3bca <GetDrink_Tick+0xac>
    3b34:	28 f4       	brcc	.+10     	; 0x3b40 <GetDrink_Tick+0x22>
    3b36:	81 30       	cpi	r24, 0x01	; 1
    3b38:	81 f0       	breq	.+32     	; 0x3b5a <GetDrink_Tick+0x3c>
    3b3a:	82 30       	cpi	r24, 0x02	; 2
    3b3c:	51 f1       	breq	.+84     	; 0x3b92 <GetDrink_Tick+0x74>
    3b3e:	de c0       	rjmp	.+444    	; 0x3cfc <GetDrink_Tick+0x1de>
    3b40:	85 30       	cpi	r24, 0x05	; 5
    3b42:	09 f4       	brne	.+2      	; 0x3b46 <GetDrink_Tick+0x28>
    3b44:	58 c0       	rjmp	.+176    	; 0x3bf6 <GetDrink_Tick+0xd8>
    3b46:	86 30       	cpi	r24, 0x06	; 6
    3b48:	09 f4       	brne	.+2      	; 0x3b4c <GetDrink_Tick+0x2e>
    3b4a:	d1 c0       	rjmp	.+418    	; 0x3cee <GetDrink_Tick+0x1d0>
    3b4c:	d7 c0       	rjmp	.+430    	; 0x3cfc <GetDrink_Tick+0x1de>
    3b4e:	8f e4       	ldi	r24, 0x4F	; 79
    3b50:	93 ec       	ldi	r25, 0xC3	; 195
    3b52:	01 97       	sbiw	r24, 0x01	; 1
    3b54:	f1 f7       	brne	.-4      	; 0x3b52 <GetDrink_Tick+0x34>
    3b56:	00 c0       	rjmp	.+0      	; 0x3b58 <GetDrink_Tick+0x3a>
    3b58:	00 00       	nop
    3b5a:	0e 94 80 04 	call	0x900	; 0x900 <GetKeypadKey>
    3b5e:	80 93 1c 0d 	sts	0x0D1C, r24	; 0x800d1c <gd_selection>
    3b62:	88 23       	and	r24, r24
    3b64:	a1 f3       	breq	.-24     	; 0x3b4e <GetDrink_Tick+0x30>
    3b66:	06 c0       	rjmp	.+12     	; 0x3b74 <GetDrink_Tick+0x56>
    3b68:	8f e4       	ldi	r24, 0x4F	; 79
    3b6a:	93 ec       	ldi	r25, 0xC3	; 195
    3b6c:	01 97       	sbiw	r24, 0x01	; 1
    3b6e:	f1 f7       	brne	.-4      	; 0x3b6c <GetDrink_Tick+0x4e>
    3b70:	00 c0       	rjmp	.+0      	; 0x3b72 <GetDrink_Tick+0x54>
    3b72:	00 00       	nop
    3b74:	0e 94 80 04 	call	0x900	; 0x900 <GetKeypadKey>
    3b78:	80 93 1b 0d 	sts	0x0D1B, r24	; 0x800d1b <gd_prev_select>
    3b7c:	90 91 1c 0d 	lds	r25, 0x0D1C	; 0x800d1c <gd_selection>
    3b80:	89 17       	cp	r24, r25
    3b82:	91 f3       	breq	.-28     	; 0x3b68 <GetDrink_Tick+0x4a>
    3b84:	bb c0       	rjmp	.+374    	; 0x3cfc <GetDrink_Tick+0x1de>
    3b86:	8f e4       	ldi	r24, 0x4F	; 79
    3b88:	93 ec       	ldi	r25, 0xC3	; 195
    3b8a:	01 97       	sbiw	r24, 0x01	; 1
    3b8c:	f1 f7       	brne	.-4      	; 0x3b8a <GetDrink_Tick+0x6c>
    3b8e:	00 c0       	rjmp	.+0      	; 0x3b90 <GetDrink_Tick+0x72>
    3b90:	00 00       	nop
    3b92:	0e 94 80 04 	call	0x900	; 0x900 <GetKeypadKey>
    3b96:	80 93 1c 0d 	sts	0x0D1C, r24	; 0x800d1c <gd_selection>
    3b9a:	88 23       	and	r24, r24
    3b9c:	a1 f3       	breq	.-24     	; 0x3b86 <GetDrink_Tick+0x68>
    3b9e:	06 c0       	rjmp	.+12     	; 0x3bac <GetDrink_Tick+0x8e>
    3ba0:	8f e4       	ldi	r24, 0x4F	; 79
    3ba2:	93 ec       	ldi	r25, 0xC3	; 195
    3ba4:	01 97       	sbiw	r24, 0x01	; 1
    3ba6:	f1 f7       	brne	.-4      	; 0x3ba4 <GetDrink_Tick+0x86>
    3ba8:	00 c0       	rjmp	.+0      	; 0x3baa <GetDrink_Tick+0x8c>
    3baa:	00 00       	nop
    3bac:	0e 94 80 04 	call	0x900	; 0x900 <GetKeypadKey>
    3bb0:	80 93 1b 0d 	sts	0x0D1B, r24	; 0x800d1b <gd_prev_select>
    3bb4:	90 91 1c 0d 	lds	r25, 0x0D1C	; 0x800d1c <gd_selection>
    3bb8:	89 17       	cp	r24, r25
    3bba:	91 f3       	breq	.-28     	; 0x3ba0 <GetDrink_Tick+0x82>
    3bbc:	9f c0       	rjmp	.+318    	; 0x3cfc <GetDrink_Tick+0x1de>
    3bbe:	8f e4       	ldi	r24, 0x4F	; 79
    3bc0:	93 ec       	ldi	r25, 0xC3	; 195
    3bc2:	01 97       	sbiw	r24, 0x01	; 1
    3bc4:	f1 f7       	brne	.-4      	; 0x3bc2 <GetDrink_Tick+0xa4>
    3bc6:	00 c0       	rjmp	.+0      	; 0x3bc8 <GetDrink_Tick+0xaa>
    3bc8:	00 00       	nop
    3bca:	0e 94 80 04 	call	0x900	; 0x900 <GetKeypadKey>
    3bce:	80 93 1c 0d 	sts	0x0D1C, r24	; 0x800d1c <gd_selection>
    3bd2:	88 23       	and	r24, r24
    3bd4:	a1 f3       	breq	.-24     	; 0x3bbe <GetDrink_Tick+0xa0>
    3bd6:	06 c0       	rjmp	.+12     	; 0x3be4 <GetDrink_Tick+0xc6>
    3bd8:	8f e4       	ldi	r24, 0x4F	; 79
    3bda:	93 ec       	ldi	r25, 0xC3	; 195
    3bdc:	01 97       	sbiw	r24, 0x01	; 1
    3bde:	f1 f7       	brne	.-4      	; 0x3bdc <GetDrink_Tick+0xbe>
    3be0:	00 c0       	rjmp	.+0      	; 0x3be2 <GetDrink_Tick+0xc4>
    3be2:	00 00       	nop
    3be4:	0e 94 80 04 	call	0x900	; 0x900 <GetKeypadKey>
    3be8:	80 93 1b 0d 	sts	0x0D1B, r24	; 0x800d1b <gd_prev_select>
    3bec:	90 91 1c 0d 	lds	r25, 0x0D1C	; 0x800d1c <gd_selection>
    3bf0:	89 17       	cp	r24, r25
    3bf2:	91 f3       	breq	.-28     	; 0x3bd8 <GetDrink_Tick+0xba>
    3bf4:	83 c0       	rjmp	.+262    	; 0x3cfc <GetDrink_Tick+0x1de>
    3bf6:	8a e0       	ldi	r24, 0x0A	; 10
    3bf8:	0e 94 14 03 	call	0x628	; 0x628 <HX711_1_get_units>
    3bfc:	0e 94 12 2b 	call	0x5624	; 0x5624 <__fixsfsi>
    3c00:	16 16       	cp	r1, r22
    3c02:	17 06       	cpc	r1, r23
    3c04:	18 06       	cpc	r1, r24
    3c06:	19 06       	cpc	r1, r25
    3c08:	84 f4       	brge	.+32     	; 0x3c2a <GetDrink_Tick+0x10c>
    3c0a:	62 d6       	rcall	.+3268   	; 0x48d0 <nokia_lcd_clear>
    3c0c:	61 e0       	ldi	r22, 0x01	; 1
    3c0e:	84 e4       	ldi	r24, 0x44	; 68
    3c10:	93 e0       	ldi	r25, 0x03	; 3
    3c12:	44 d7       	rcall	.+3720   	; 0x4a9c <nokia_lcd_write_string>
    3c14:	5a d7       	rcall	.+3764   	; 0x4aca <nokia_lcd_render>
    3c16:	8a e0       	ldi	r24, 0x0A	; 10
    3c18:	0e 94 14 03 	call	0x628	; 0x628 <HX711_1_get_units>
    3c1c:	0e 94 12 2b 	call	0x5624	; 0x5624 <__fixsfsi>
    3c20:	16 16       	cp	r1, r22
    3c22:	17 06       	cpc	r1, r23
    3c24:	18 06       	cpc	r1, r24
    3c26:	19 06       	cpc	r1, r25
    3c28:	84 f3       	brlt	.-32     	; 0x3c0a <GetDrink_Tick+0xec>
    3c2a:	52 d6       	rcall	.+3236   	; 0x48d0 <nokia_lcd_clear>
    3c2c:	61 e0       	ldi	r22, 0x01	; 1
    3c2e:	8d e5       	ldi	r24, 0x5D	; 93
    3c30:	93 e0       	ldi	r25, 0x03	; 3
    3c32:	34 d7       	rcall	.+3688   	; 0x4a9c <nokia_lcd_write_string>
    3c34:	4a d7       	rcall	.+3732   	; 0x4aca <nokia_lcd_render>
    3c36:	8a e0       	ldi	r24, 0x0A	; 10
    3c38:	0e 94 14 03 	call	0x628	; 0x628 <HX711_1_get_units>
    3c3c:	0e 94 12 2b 	call	0x5624	; 0x5624 <__fixsfsi>
    3c40:	16 16       	cp	r1, r22
    3c42:	17 06       	cpc	r1, r23
    3c44:	18 06       	cpc	r1, r24
    3c46:	19 06       	cpc	r1, r25
    3c48:	84 f7       	brge	.-32     	; 0x3c2a <GetDrink_Tick+0x10c>
    3c4a:	8a e0       	ldi	r24, 0x0A	; 10
    3c4c:	0e 94 14 03 	call	0x628	; 0x628 <HX711_1_get_units>
    3c50:	8a e0       	ldi	r24, 0x0A	; 10
    3c52:	0e 94 14 03 	call	0x628	; 0x628 <HX711_1_get_units>
    3c56:	8a e0       	ldi	r24, 0x0A	; 10
    3c58:	0e 94 14 03 	call	0x628	; 0x628 <HX711_1_get_units>
    3c5c:	8a e0       	ldi	r24, 0x0A	; 10
    3c5e:	0e 94 14 03 	call	0x628	; 0x628 <HX711_1_get_units>
    3c62:	8a e0       	ldi	r24, 0x0A	; 10
    3c64:	0e 94 14 03 	call	0x628	; 0x628 <HX711_1_get_units>
    3c68:	8a e0       	ldi	r24, 0x0A	; 10
    3c6a:	0e 94 14 03 	call	0x628	; 0x628 <HX711_1_get_units>
    3c6e:	8a e0       	ldi	r24, 0x0A	; 10
    3c70:	0e 94 14 03 	call	0x628	; 0x628 <HX711_1_get_units>
    3c74:	8a e0       	ldi	r24, 0x0A	; 10
    3c76:	0e 94 14 03 	call	0x628	; 0x628 <HX711_1_get_units>
    3c7a:	8a e0       	ldi	r24, 0x0A	; 10
    3c7c:	0e 94 14 03 	call	0x628	; 0x628 <HX711_1_get_units>
    3c80:	8a e0       	ldi	r24, 0x0A	; 10
    3c82:	0e 94 14 03 	call	0x628	; 0x628 <HX711_1_get_units>
    3c86:	8a e0       	ldi	r24, 0x0A	; 10
    3c88:	0e 94 14 03 	call	0x628	; 0x628 <HX711_1_get_units>
    3c8c:	0e 94 12 2b 	call	0x5624	; 0x5624 <__fixsfsi>
    3c90:	e0 91 01 01 	lds	r30, 0x0101	; 0x800101 <user_to_remove>
    3c94:	2e e1       	ldi	r18, 0x1E	; 30
    3c96:	e2 9f       	mul	r30, r18
    3c98:	f0 01       	movw	r30, r0
    3c9a:	11 24       	eor	r1, r1
    3c9c:	ea 5a       	subi	r30, 0xAA	; 170
    3c9e:	fe 4f       	sbci	r31, 0xFE	; 254
    3ca0:	c1 88       	ldd	r12, Z+17	; 0x11
    3ca2:	d2 88       	ldd	r13, Z+18	; 0x12
    3ca4:	e3 88       	ldd	r14, Z+19	; 0x13
    3ca6:	f4 88       	ldd	r15, Z+20	; 0x14
    3ca8:	97 01       	movw	r18, r14
    3caa:	86 01       	movw	r16, r12
    3cac:	02 50       	subi	r16, 0x02	; 2
    3cae:	11 09       	sbc	r17, r1
    3cb0:	21 09       	sbc	r18, r1
    3cb2:	31 09       	sbc	r19, r1
    3cb4:	06 17       	cp	r16, r22
    3cb6:	17 07       	cpc	r17, r23
    3cb8:	28 07       	cpc	r18, r24
    3cba:	39 07       	cpc	r19, r25
    3cbc:	7c f4       	brge	.+30     	; 0x3cdc <GetDrink_Tick+0x1be>
    3cbe:	97 01       	movw	r18, r14
    3cc0:	86 01       	movw	r16, r12
    3cc2:	0e 5f       	subi	r16, 0xFE	; 254
    3cc4:	1f 4f       	sbci	r17, 0xFF	; 255
    3cc6:	2f 4f       	sbci	r18, 0xFF	; 255
    3cc8:	3f 4f       	sbci	r19, 0xFF	; 255
    3cca:	60 17       	cp	r22, r16
    3ccc:	71 07       	cpc	r23, r17
    3cce:	82 07       	cpc	r24, r18
    3cd0:	93 07       	cpc	r25, r19
    3cd2:	24 f4       	brge	.+8      	; 0x3cdc <GetDrink_Tick+0x1be>
    3cd4:	81 e0       	ldi	r24, 0x01	; 1
    3cd6:	80 93 00 01 	sts	0x0100, r24	; 0x800100 <__data_start>
    3cda:	02 c0       	rjmp	.+4      	; 0x3ce0 <GetDrink_Tick+0x1c2>
    3cdc:	10 92 00 01 	sts	0x0100, r1	; 0x800100 <__data_start>
    3ce0:	83 b1       	in	r24, 0x03	; 3
    3ce2:	80 95       	com	r24
    3ce4:	82 95       	swap	r24
    3ce6:	81 70       	andi	r24, 0x01	; 1
    3ce8:	80 93 62 0d 	sts	0x0D62, r24	; 0x800d62 <key_door_sensor>
    3cec:	07 c0       	rjmp	.+14     	; 0x3cfc <GetDrink_Tick+0x1de>
    3cee:	83 b1       	in	r24, 0x03	; 3
    3cf0:	80 95       	com	r24
    3cf2:	82 95       	swap	r24
    3cf4:	81 70       	andi	r24, 0x01	; 1
    3cf6:	80 93 62 0d 	sts	0x0D62, r24	; 0x800d62 <key_door_sensor>
    3cfa:	bc c0       	rjmp	.+376    	; 0x3e74 <GetDrink_Tick+0x356>
    3cfc:	e0 91 e9 0f 	lds	r30, 0x0FE9	; 0x800fe9 <get_drink_state>
    3d00:	8e 2f       	mov	r24, r30
    3d02:	90 e0       	ldi	r25, 0x00	; 0
    3d04:	87 30       	cpi	r24, 0x07	; 7
    3d06:	91 05       	cpc	r25, r1
    3d08:	08 f0       	brcs	.+2      	; 0x3d0c <GetDrink_Tick+0x1ee>
    3d0a:	cf c0       	rjmp	.+414    	; 0x3eaa <GetDrink_Tick+0x38c>
    3d0c:	fc 01       	movw	r30, r24
    3d0e:	ee 56       	subi	r30, 0x6E	; 110
    3d10:	ff 4f       	sbci	r31, 0xFF	; 255
    3d12:	0c 94 ba 2c 	jmp	0x5974	; 0x5974 <__tablejump2__>
    3d16:	80 91 6e 0d 	lds	r24, 0x0D6E	; 0x800d6e <get_drink_flag>
    3d1a:	88 23       	and	r24, r24
    3d1c:	09 f4       	brne	.+2      	; 0x3d20 <GetDrink_Tick+0x202>
    3d1e:	c7 c0       	rjmp	.+398    	; 0x3eae <GetDrink_Tick+0x390>
    3d20:	80 91 6b 0d 	lds	r24, 0x0D6B	; 0x800d6b <number_of_users>
    3d24:	81 11       	cpse	r24, r1
    3d26:	0c c0       	rjmp	.+24     	; 0x3d40 <GetDrink_Tick+0x222>
    3d28:	d3 d5       	rcall	.+2982   	; 0x48d0 <nokia_lcd_clear>
    3d2a:	61 e0       	ldi	r22, 0x01	; 1
    3d2c:	84 ec       	ldi	r24, 0xC4	; 196
    3d2e:	92 e0       	ldi	r25, 0x02	; 2
    3d30:	b5 d6       	rcall	.+3434   	; 0x4a9c <nokia_lcd_write_string>
    3d32:	cb d6       	rcall	.+3478   	; 0x4aca <nokia_lcd_render>
    3d34:	10 92 6f 0d 	sts	0x0D6F, r1	; 0x800d6f <user_verify_flag>
    3d38:	83 e0       	ldi	r24, 0x03	; 3
    3d3a:	80 93 e9 0f 	sts	0x0FE9, r24	; 0x800fe9 <get_drink_state>
    3d3e:	b7 c0       	rjmp	.+366    	; 0x3eae <GetDrink_Tick+0x390>
    3d40:	80 91 5c 0d 	lds	r24, 0x0D5C	; 0x800d5c <type_of_drink>
    3d44:	81 11       	cpse	r24, r1
    3d46:	0c c0       	rjmp	.+24     	; 0x3d60 <GetDrink_Tick+0x242>
    3d48:	c3 d5       	rcall	.+2950   	; 0x48d0 <nokia_lcd_clear>
    3d4a:	61 e0       	ldi	r22, 0x01	; 1
    3d4c:	8b e6       	ldi	r24, 0x6B	; 107
    3d4e:	95 e0       	ldi	r25, 0x05	; 5
    3d50:	a5 d6       	rcall	.+3402   	; 0x4a9c <nokia_lcd_write_string>
    3d52:	bb d6       	rcall	.+3446   	; 0x4aca <nokia_lcd_render>
    3d54:	10 92 6f 0d 	sts	0x0D6F, r1	; 0x800d6f <user_verify_flag>
    3d58:	82 e0       	ldi	r24, 0x02	; 2
    3d5a:	80 93 e9 0f 	sts	0x0FE9, r24	; 0x800fe9 <get_drink_state>
    3d5e:	a7 c0       	rjmp	.+334    	; 0x3eae <GetDrink_Tick+0x390>
    3d60:	80 91 61 0d 	lds	r24, 0x0D61	; 0x800d61 <drink_has_been_removed>
    3d64:	88 23       	and	r24, r24
    3d66:	61 f0       	breq	.+24     	; 0x3d80 <GetDrink_Tick+0x262>
    3d68:	b3 d5       	rcall	.+2918   	; 0x48d0 <nokia_lcd_clear>
    3d6a:	61 e0       	ldi	r22, 0x01	; 1
    3d6c:	83 ea       	ldi	r24, 0xA3	; 163
    3d6e:	95 e0       	ldi	r25, 0x05	; 5
    3d70:	95 d6       	rcall	.+3370   	; 0x4a9c <nokia_lcd_write_string>
    3d72:	ab d6       	rcall	.+3414   	; 0x4aca <nokia_lcd_render>
    3d74:	10 92 6f 0d 	sts	0x0D6F, r1	; 0x800d6f <user_verify_flag>
    3d78:	82 e0       	ldi	r24, 0x02	; 2
    3d7a:	80 93 e9 0f 	sts	0x0FE9, r24	; 0x800fe9 <get_drink_state>
    3d7e:	97 c0       	rjmp	.+302    	; 0x3eae <GetDrink_Tick+0x390>
    3d80:	10 92 6c 0d 	sts	0x0D6C, r1	; 0x800d6c <correct_user_credentials>
    3d84:	81 e0       	ldi	r24, 0x01	; 1
    3d86:	80 93 6f 0d 	sts	0x0D6F, r24	; 0x800d6f <user_verify_flag>
    3d8a:	84 e0       	ldi	r24, 0x04	; 4
    3d8c:	80 93 e9 0f 	sts	0x0FE9, r24	; 0x800fe9 <get_drink_state>
    3d90:	8e c0       	rjmp	.+284    	; 0x3eae <GetDrink_Tick+0x390>
    3d92:	80 91 1c 0d 	lds	r24, 0x0D1C	; 0x800d1c <gd_selection>
    3d96:	88 23       	and	r24, r24
    3d98:	09 f4       	brne	.+2      	; 0x3d9c <GetDrink_Tick+0x27e>
    3d9a:	89 c0       	rjmp	.+274    	; 0x3eae <GetDrink_Tick+0x390>
    3d9c:	10 92 6e 0d 	sts	0x0D6E, r1	; 0x800d6e <get_drink_flag>
    3da0:	10 92 e9 0f 	sts	0x0FE9, r1	; 0x800fe9 <get_drink_state>
    3da4:	84 c0       	rjmp	.+264    	; 0x3eae <GetDrink_Tick+0x390>
    3da6:	80 91 1c 0d 	lds	r24, 0x0D1C	; 0x800d1c <gd_selection>
    3daa:	88 23       	and	r24, r24
    3dac:	09 f4       	brne	.+2      	; 0x3db0 <GetDrink_Tick+0x292>
    3dae:	7f c0       	rjmp	.+254    	; 0x3eae <GetDrink_Tick+0x390>
    3db0:	10 92 6e 0d 	sts	0x0D6E, r1	; 0x800d6e <get_drink_flag>
    3db4:	10 92 e9 0f 	sts	0x0FE9, r1	; 0x800fe9 <get_drink_state>
    3db8:	7a c0       	rjmp	.+244    	; 0x3eae <GetDrink_Tick+0x390>
    3dba:	80 91 1c 0d 	lds	r24, 0x0D1C	; 0x800d1c <gd_selection>
    3dbe:	88 23       	and	r24, r24
    3dc0:	09 f4       	brne	.+2      	; 0x3dc4 <GetDrink_Tick+0x2a6>
    3dc2:	75 c0       	rjmp	.+234    	; 0x3eae <GetDrink_Tick+0x390>
    3dc4:	10 92 6e 0d 	sts	0x0D6E, r1	; 0x800d6e <get_drink_flag>
    3dc8:	10 92 e9 0f 	sts	0x0FE9, r1	; 0x800fe9 <get_drink_state>
    3dcc:	70 c0       	rjmp	.+224    	; 0x3eae <GetDrink_Tick+0x390>
    3dce:	80 91 6f 0d 	lds	r24, 0x0D6F	; 0x800d6f <user_verify_flag>
    3dd2:	81 11       	cpse	r24, r1
    3dd4:	6c c0       	rjmp	.+216    	; 0x3eae <GetDrink_Tick+0x390>
    3dd6:	80 91 6c 0d 	lds	r24, 0x0D6C	; 0x800d6c <correct_user_credentials>
    3dda:	88 23       	and	r24, r24
    3ddc:	c9 f0       	breq	.+50     	; 0x3e10 <GetDrink_Tick+0x2f2>
    3dde:	80 91 ce 01 	lds	r24, 0x01CE	; 0x8001ce <current_user>
    3de2:	85 30       	cpi	r24, 0x05	; 5
    3de4:	21 f4       	brne	.+8      	; 0x3dee <GetDrink_Tick+0x2d0>
    3de6:	80 91 01 01 	lds	r24, 0x0101	; 0x800101 <user_to_remove>
    3dea:	80 93 ce 01 	sts	0x01CE, r24	; 0x8001ce <current_user>
    3dee:	70 d5       	rcall	.+2784   	; 0x48d0 <nokia_lcd_clear>
    3df0:	61 e0       	ldi	r22, 0x01	; 1
    3df2:	8a ed       	ldi	r24, 0xDA	; 218
    3df4:	95 e0       	ldi	r25, 0x05	; 5
    3df6:	52 d6       	rcall	.+3236   	; 0x4a9c <nokia_lcd_write_string>
    3df8:	68 d6       	rcall	.+3280   	; 0x4aca <nokia_lcd_render>
    3dfa:	82 e0       	ldi	r24, 0x02	; 2
    3dfc:	80 93 00 01 	sts	0x0100, r24	; 0x800100 <__data_start>
    3e00:	81 e0       	ldi	r24, 0x01	; 1
    3e02:	80 93 63 0d 	sts	0x0D63, r24	; 0x800d63 <key_door_signal>
    3e06:	28 9a       	sbi	0x05, 0	; 5
    3e08:	85 e0       	ldi	r24, 0x05	; 5
    3e0a:	80 93 e9 0f 	sts	0x0FE9, r24	; 0x800fe9 <get_drink_state>
    3e0e:	4f c0       	rjmp	.+158    	; 0x3eae <GetDrink_Tick+0x390>
    3e10:	80 91 6d 0d 	lds	r24, 0x0D6D	; 0x800d6d <get_key_flag>
    3e14:	81 11       	cpse	r24, r1
    3e16:	03 c0       	rjmp	.+6      	; 0x3e1e <GetDrink_Tick+0x300>
    3e18:	85 e0       	ldi	r24, 0x05	; 5
    3e1a:	80 93 ce 01 	sts	0x01CE, r24	; 0x8001ce <current_user>
    3e1e:	10 92 6e 0d 	sts	0x0D6E, r1	; 0x800d6e <get_drink_flag>
    3e22:	10 92 6c 0d 	sts	0x0D6C, r1	; 0x800d6c <correct_user_credentials>
    3e26:	10 92 e9 0f 	sts	0x0FE9, r1	; 0x800fe9 <get_drink_state>
    3e2a:	41 c0       	rjmp	.+130    	; 0x3eae <GetDrink_Tick+0x390>
    3e2c:	80 91 00 01 	lds	r24, 0x0100	; 0x800100 <__data_start>
    3e30:	82 30       	cpi	r24, 0x02	; 2
    3e32:	09 f4       	brne	.+2      	; 0x3e36 <GetDrink_Tick+0x318>
    3e34:	3c c0       	rjmp	.+120    	; 0x3eae <GetDrink_Tick+0x390>
    3e36:	81 11       	cpse	r24, r1
    3e38:	0d c0       	rjmp	.+26     	; 0x3e54 <GetDrink_Tick+0x336>
    3e3a:	4a d5       	rcall	.+2708   	; 0x48d0 <nokia_lcd_clear>
    3e3c:	61 e0       	ldi	r22, 0x01	; 1
    3e3e:	87 ee       	ldi	r24, 0xE7	; 231
    3e40:	95 e0       	ldi	r25, 0x05	; 5
    3e42:	2c d6       	rcall	.+3160   	; 0x4a9c <nokia_lcd_write_string>
    3e44:	42 d6       	rcall	.+3204   	; 0x4aca <nokia_lcd_render>
    3e46:	10 92 6c 0d 	sts	0x0D6C, r1	; 0x800d6c <correct_user_credentials>
    3e4a:	10 92 6e 0d 	sts	0x0D6E, r1	; 0x800d6e <get_drink_flag>
    3e4e:	10 92 e9 0f 	sts	0x0FE9, r1	; 0x800fe9 <get_drink_state>
    3e52:	2d c0       	rjmp	.+90     	; 0x3eae <GetDrink_Tick+0x390>
    3e54:	81 30       	cpi	r24, 0x01	; 1
    3e56:	59 f5       	brne	.+86     	; 0x3eae <GetDrink_Tick+0x390>
    3e58:	80 91 62 0d 	lds	r24, 0x0D62	; 0x800d62 <key_door_sensor>
    3e5c:	81 11       	cpse	r24, r1
    3e5e:	06 c0       	rjmp	.+12     	; 0x3e6c <GetDrink_Tick+0x34e>
    3e60:	37 d5       	rcall	.+2670   	; 0x48d0 <nokia_lcd_clear>
    3e62:	61 e0       	ldi	r22, 0x01	; 1
    3e64:	8b e1       	ldi	r24, 0x1B	; 27
    3e66:	96 e0       	ldi	r25, 0x06	; 6
    3e68:	19 d6       	rcall	.+3122   	; 0x4a9c <nokia_lcd_write_string>
    3e6a:	2f d6       	rcall	.+3166   	; 0x4aca <nokia_lcd_render>
    3e6c:	86 e0       	ldi	r24, 0x06	; 6
    3e6e:	80 93 e9 0f 	sts	0x0FE9, r24	; 0x800fe9 <get_drink_state>
    3e72:	1d c0       	rjmp	.+58     	; 0x3eae <GetDrink_Tick+0x390>
    3e74:	80 91 62 0d 	lds	r24, 0x0D62	; 0x800d62 <key_door_sensor>
    3e78:	88 23       	and	r24, r24
    3e7a:	c9 f0       	breq	.+50     	; 0x3eae <GetDrink_Tick+0x390>
    3e7c:	11 e0       	ldi	r17, 0x01	; 1
    3e7e:	10 93 60 0d 	sts	0x0D60, r17	; 0x800d60 <keys_have_been_deposited>
    3e82:	2a 98       	cbi	0x05, 2	; 5
    3e84:	25 d5       	rcall	.+2634   	; 0x48d0 <nokia_lcd_clear>
    3e86:	61 e0       	ldi	r22, 0x01	; 1
    3e88:	8a e2       	ldi	r24, 0x2A	; 42
    3e8a:	96 e0       	ldi	r25, 0x06	; 6
    3e8c:	07 d6       	rcall	.+3086   	; 0x4a9c <nokia_lcd_write_string>
    3e8e:	1d d6       	rcall	.+3130   	; 0x4aca <nokia_lcd_render>
    3e90:	10 93 61 0d 	sts	0x0D61, r17	; 0x800d61 <drink_has_been_removed>
    3e94:	10 92 63 0d 	sts	0x0D63, r1	; 0x800d63 <key_door_signal>
    3e98:	28 98       	cbi	0x05, 0	; 5
    3e9a:	10 93 65 0d 	sts	0x0D65, r17	; 0x800d65 <liquor_door_signal>
    3e9e:	29 9a       	sbi	0x05, 1	; 5
    3ea0:	10 92 6e 0d 	sts	0x0D6E, r1	; 0x800d6e <get_drink_flag>
    3ea4:	10 92 e9 0f 	sts	0x0FE9, r1	; 0x800fe9 <get_drink_state>
    3ea8:	02 c0       	rjmp	.+4      	; 0x3eae <GetDrink_Tick+0x390>
    3eaa:	10 92 e9 0f 	sts	0x0FE9, r1	; 0x800fe9 <get_drink_state>
    3eae:	1f 91       	pop	r17
    3eb0:	0f 91       	pop	r16
    3eb2:	ff 90       	pop	r15
    3eb4:	ef 90       	pop	r14
    3eb6:	df 90       	pop	r13
    3eb8:	cf 90       	pop	r12
    3eba:	08 95       	ret

00003ebc <GetDrinkTask>:
    3ebc:	10 92 e9 0f 	sts	0x0FE9, r1	; 0x800fe9 <get_drink_state>
    3ec0:	2e de       	rcall	.-932    	; 0x3b1e <GetDrink_Tick>
    3ec2:	84 e6       	ldi	r24, 0x64	; 100
    3ec4:	90 e0       	ldi	r25, 0x00	; 0
    3ec6:	0e 94 84 29 	call	0x5308	; 0x5308 <vTaskDelay>
    3eca:	fa cf       	rjmp	.-12     	; 0x3ec0 <GetDrinkTask+0x4>

00003ecc <GetDrinkPulse>:
    3ecc:	af 92       	push	r10
    3ece:	bf 92       	push	r11
    3ed0:	cf 92       	push	r12
    3ed2:	df 92       	push	r13
    3ed4:	ef 92       	push	r14
    3ed6:	ff 92       	push	r15
    3ed8:	0f 93       	push	r16
    3eda:	a1 2c       	mov	r10, r1
    3edc:	b1 2c       	mov	r11, r1
    3ede:	c1 2c       	mov	r12, r1
    3ee0:	d1 2c       	mov	r13, r1
    3ee2:	e1 2c       	mov	r14, r1
    3ee4:	f1 2c       	mov	r15, r1
    3ee6:	08 2f       	mov	r16, r24
    3ee8:	20 e0       	ldi	r18, 0x00	; 0
    3eea:	30 e0       	ldi	r19, 0x00	; 0
    3eec:	45 e5       	ldi	r20, 0x55	; 85
    3eee:	50 e0       	ldi	r21, 0x00	; 0
    3ef0:	6f e4       	ldi	r22, 0x4F	; 79
    3ef2:	76 e0       	ldi	r23, 0x06	; 6
    3ef4:	8e e5       	ldi	r24, 0x5E	; 94
    3ef6:	9f e1       	ldi	r25, 0x1F	; 31
    3ef8:	8f d7       	rcall	.+3870   	; 0x4e18 <xTaskGenericCreate>
    3efa:	0f 91       	pop	r16
    3efc:	ff 90       	pop	r15
    3efe:	ef 90       	pop	r14
    3f00:	df 90       	pop	r13
    3f02:	cf 90       	pop	r12
    3f04:	bf 90       	pop	r11
    3f06:	af 90       	pop	r10
    3f08:	08 95       	ret

00003f0a <GetKey_Tick>:
    3f0a:	cf 92       	push	r12
    3f0c:	df 92       	push	r13
    3f0e:	ef 92       	push	r14
    3f10:	ff 92       	push	r15
    3f12:	0f 93       	push	r16
    3f14:	1f 93       	push	r17
    3f16:	cf 93       	push	r28
    3f18:	df 93       	push	r29
    3f1a:	80 91 e7 0f 	lds	r24, 0x0FE7	; 0x800fe7 <get_key_state>
    3f1e:	84 30       	cpi	r24, 0x04	; 4
    3f20:	09 f4       	brne	.+2      	; 0x3f24 <GetKey_Tick+0x1a>
    3f22:	47 c0       	rjmp	.+142    	; 0x3fb2 <GetKey_Tick+0xa8>
    3f24:	28 f4       	brcc	.+10     	; 0x3f30 <GetKey_Tick+0x26>
    3f26:	81 30       	cpi	r24, 0x01	; 1
    3f28:	91 f0       	breq	.+36     	; 0x3f4e <GetKey_Tick+0x44>
    3f2a:	82 30       	cpi	r24, 0x02	; 2
    3f2c:	61 f1       	breq	.+88     	; 0x3f86 <GetKey_Tick+0x7c>
    3f2e:	10 c2       	rjmp	.+1056   	; 0x4350 <__stack+0x251>
    3f30:	86 30       	cpi	r24, 0x06	; 6
    3f32:	09 f4       	brne	.+2      	; 0x3f36 <GetKey_Tick+0x2c>
    3f34:	77 c1       	rjmp	.+750    	; 0x4224 <__stack+0x125>
    3f36:	08 f4       	brcc	.+2      	; 0x3f3a <GetKey_Tick+0x30>
    3f38:	7f c0       	rjmp	.+254    	; 0x4038 <GetKey_Tick+0x12e>
    3f3a:	87 30       	cpi	r24, 0x07	; 7
    3f3c:	09 f4       	brne	.+2      	; 0x3f40 <GetKey_Tick+0x36>
    3f3e:	88 c1       	rjmp	.+784    	; 0x4250 <__stack+0x151>
    3f40:	07 c2       	rjmp	.+1038   	; 0x4350 <__stack+0x251>
    3f42:	8f e4       	ldi	r24, 0x4F	; 79
    3f44:	93 ec       	ldi	r25, 0xC3	; 195
    3f46:	01 97       	sbiw	r24, 0x01	; 1
    3f48:	f1 f7       	brne	.-4      	; 0x3f46 <GetKey_Tick+0x3c>
    3f4a:	00 c0       	rjmp	.+0      	; 0x3f4c <GetKey_Tick+0x42>
    3f4c:	00 00       	nop
    3f4e:	0e 94 80 04 	call	0x900	; 0x900 <GetKeypadKey>
    3f52:	80 93 1a 0d 	sts	0x0D1A, r24	; 0x800d1a <gk_selection>
    3f56:	88 23       	and	r24, r24
    3f58:	a1 f3       	breq	.-24     	; 0x3f42 <GetKey_Tick+0x38>
    3f5a:	06 c0       	rjmp	.+12     	; 0x3f68 <GetKey_Tick+0x5e>
    3f5c:	8f e4       	ldi	r24, 0x4F	; 79
    3f5e:	93 ec       	ldi	r25, 0xC3	; 195
    3f60:	01 97       	sbiw	r24, 0x01	; 1
    3f62:	f1 f7       	brne	.-4      	; 0x3f60 <GetKey_Tick+0x56>
    3f64:	00 c0       	rjmp	.+0      	; 0x3f66 <GetKey_Tick+0x5c>
    3f66:	00 00       	nop
    3f68:	0e 94 80 04 	call	0x900	; 0x900 <GetKeypadKey>
    3f6c:	80 93 19 0d 	sts	0x0D19, r24	; 0x800d19 <gk_prev_select>
    3f70:	90 91 1a 0d 	lds	r25, 0x0D1A	; 0x800d1a <gk_selection>
    3f74:	89 17       	cp	r24, r25
    3f76:	91 f3       	breq	.-28     	; 0x3f5c <GetKey_Tick+0x52>
    3f78:	eb c1       	rjmp	.+982    	; 0x4350 <__stack+0x251>
    3f7a:	8f e4       	ldi	r24, 0x4F	; 79
    3f7c:	93 ec       	ldi	r25, 0xC3	; 195
    3f7e:	01 97       	sbiw	r24, 0x01	; 1
    3f80:	f1 f7       	brne	.-4      	; 0x3f7e <GetKey_Tick+0x74>
    3f82:	00 c0       	rjmp	.+0      	; 0x3f84 <GetKey_Tick+0x7a>
    3f84:	00 00       	nop
    3f86:	0e 94 80 04 	call	0x900	; 0x900 <GetKeypadKey>
    3f8a:	80 93 1a 0d 	sts	0x0D1A, r24	; 0x800d1a <gk_selection>
    3f8e:	88 23       	and	r24, r24
    3f90:	a1 f3       	breq	.-24     	; 0x3f7a <GetKey_Tick+0x70>
    3f92:	06 c0       	rjmp	.+12     	; 0x3fa0 <GetKey_Tick+0x96>
    3f94:	8f e4       	ldi	r24, 0x4F	; 79
    3f96:	93 ec       	ldi	r25, 0xC3	; 195
    3f98:	01 97       	sbiw	r24, 0x01	; 1
    3f9a:	f1 f7       	brne	.-4      	; 0x3f98 <GetKey_Tick+0x8e>
    3f9c:	00 c0       	rjmp	.+0      	; 0x3f9e <GetKey_Tick+0x94>
    3f9e:	00 00       	nop
    3fa0:	0e 94 80 04 	call	0x900	; 0x900 <GetKeypadKey>
    3fa4:	80 93 19 0d 	sts	0x0D19, r24	; 0x800d19 <gk_prev_select>
    3fa8:	90 91 1a 0d 	lds	r25, 0x0D1A	; 0x800d1a <gk_selection>
    3fac:	89 17       	cp	r24, r25
    3fae:	91 f3       	breq	.-28     	; 0x3f94 <GetKey_Tick+0x8a>
    3fb0:	cf c1       	rjmp	.+926    	; 0x4350 <__stack+0x251>
    3fb2:	83 b1       	in	r24, 0x03	; 3
    3fb4:	80 95       	com	r24
    3fb6:	85 ff       	sbrs	r24, 5
    3fb8:	39 c0       	rjmp	.+114    	; 0x402c <GetKey_Tick+0x122>
    3fba:	81 e0       	ldi	r24, 0x01	; 1
    3fbc:	80 93 64 0d 	sts	0x0D64, r24	; 0x800d64 <liquor_door_sensor>
    3fc0:	8a e0       	ldi	r24, 0x0A	; 10
    3fc2:	0e 94 74 02 	call	0x4e8	; 0x4e8 <HX711_get_units>
    3fc6:	0e 94 12 2b 	call	0x5624	; 0x5624 <__fixsfsi>
    3fca:	00 91 54 0d 	lds	r16, 0x0D54	; 0x800d54 <total_container_weight>
    3fce:	10 91 55 0d 	lds	r17, 0x0D55	; 0x800d55 <total_container_weight+0x1>
    3fd2:	20 91 56 0d 	lds	r18, 0x0D56	; 0x800d56 <total_container_weight+0x2>
    3fd6:	30 91 57 0d 	lds	r19, 0x0D57	; 0x800d57 <total_container_weight+0x3>
    3fda:	60 17       	cp	r22, r16
    3fdc:	71 07       	cpc	r23, r17
    3fde:	82 07       	cpc	r24, r18
    3fe0:	93 07       	cpc	r25, r19
    3fe2:	0c f0       	brlt	.+2      	; 0x3fe6 <GetKey_Tick+0xdc>
    3fe4:	b5 c1       	rjmp	.+874    	; 0x4350 <__stack+0x251>
    3fe6:	68 01       	movw	r12, r16
    3fe8:	79 01       	movw	r14, r18
    3fea:	c6 1a       	sub	r12, r22
    3fec:	d7 0a       	sbc	r13, r23
    3fee:	e8 0a       	sbc	r14, r24
    3ff0:	f9 0a       	sbc	r15, r25
    3ff2:	40 91 58 0d 	lds	r20, 0x0D58	; 0x800d58 <volume_of_drink>
    3ff6:	50 91 59 0d 	lds	r21, 0x0D59	; 0x800d59 <volume_of_drink+0x1>
    3ffa:	60 91 5a 0d 	lds	r22, 0x0D5A	; 0x800d5a <volume_of_drink+0x2>
    3ffe:	70 91 5b 0d 	lds	r23, 0x0D5B	; 0x800d5b <volume_of_drink+0x3>
    4002:	c4 16       	cp	r12, r20
    4004:	d5 06       	cpc	r13, r21
    4006:	e6 06       	cpc	r14, r22
    4008:	f7 06       	cpc	r15, r23
    400a:	0c f0       	brlt	.+2      	; 0x400e <GetKey_Tick+0x104>
    400c:	a1 c1       	rjmp	.+834    	; 0x4350 <__stack+0x251>
    400e:	10 92 61 0d 	sts	0x0D61, r1	; 0x800d61 <drink_has_been_removed>
    4012:	e0 91 e7 0f 	lds	r30, 0x0FE7	; 0x800fe7 <get_key_state>
    4016:	8e 2f       	mov	r24, r30
    4018:	90 e0       	ldi	r25, 0x00	; 0
    401a:	88 30       	cpi	r24, 0x08	; 8
    401c:	91 05       	cpc	r25, r1
    401e:	08 f0       	brcs	.+2      	; 0x4022 <GetKey_Tick+0x118>
    4020:	7a c2       	rjmp	.+1268   	; 0x4516 <__stack+0x417>
    4022:	fc 01       	movw	r30, r24
    4024:	e7 56       	subi	r30, 0x67	; 103
    4026:	ff 4f       	sbci	r31, 0xFF	; 255
    4028:	0c 94 ba 2c 	jmp	0x5974	; 0x5974 <__tablejump2__>
    402c:	81 e0       	ldi	r24, 0x01	; 1
    402e:	80 93 61 0d 	sts	0x0D61, r24	; 0x800d61 <drink_has_been_removed>
    4032:	10 92 64 0d 	sts	0x0D64, r1	; 0x800d64 <liquor_door_sensor>
    4036:	71 c2       	rjmp	.+1250   	; 0x451a <__stack+0x41b>
    4038:	8a e0       	ldi	r24, 0x0A	; 10
    403a:	0e 94 74 02 	call	0x4e8	; 0x4e8 <HX711_get_units>
    403e:	8a e0       	ldi	r24, 0x0A	; 10
    4040:	0e 94 74 02 	call	0x4e8	; 0x4e8 <HX711_get_units>
    4044:	8a e0       	ldi	r24, 0x0A	; 10
    4046:	0e 94 74 02 	call	0x4e8	; 0x4e8 <HX711_get_units>
    404a:	8a e0       	ldi	r24, 0x0A	; 10
    404c:	0e 94 74 02 	call	0x4e8	; 0x4e8 <HX711_get_units>
    4050:	8a e0       	ldi	r24, 0x0A	; 10
    4052:	0e 94 74 02 	call	0x4e8	; 0x4e8 <HX711_get_units>
    4056:	8a e0       	ldi	r24, 0x0A	; 10
    4058:	0e 94 74 02 	call	0x4e8	; 0x4e8 <HX711_get_units>
    405c:	8a e0       	ldi	r24, 0x0A	; 10
    405e:	0e 94 74 02 	call	0x4e8	; 0x4e8 <HX711_get_units>
    4062:	8a e0       	ldi	r24, 0x0A	; 10
    4064:	0e 94 74 02 	call	0x4e8	; 0x4e8 <HX711_get_units>
    4068:	8a e0       	ldi	r24, 0x0A	; 10
    406a:	0e 94 74 02 	call	0x4e8	; 0x4e8 <HX711_get_units>
    406e:	8a e0       	ldi	r24, 0x0A	; 10
    4070:	0e 94 74 02 	call	0x4e8	; 0x4e8 <HX711_get_units>
    4074:	0e 94 12 2b 	call	0x5624	; 0x5624 <__fixsfsi>
    4078:	26 2f       	mov	r18, r22
    407a:	60 91 54 0d 	lds	r22, 0x0D54	; 0x800d54 <total_container_weight>
    407e:	62 1b       	sub	r22, r18
    4080:	60 93 18 0d 	sts	0x0D18, r22	; 0x800d18 <amount_alcohol_consumed>
    4084:	20 93 54 0d 	sts	0x0D54, r18	; 0x800d54 <total_container_weight>
    4088:	70 93 55 0d 	sts	0x0D55, r23	; 0x800d55 <total_container_weight+0x1>
    408c:	80 93 56 0d 	sts	0x0D56, r24	; 0x800d56 <total_container_weight+0x2>
    4090:	90 93 57 0d 	sts	0x0D57, r25	; 0x800d57 <total_container_weight+0x3>
    4094:	80 91 58 0d 	lds	r24, 0x0D58	; 0x800d58 <volume_of_drink>
    4098:	90 91 59 0d 	lds	r25, 0x0D59	; 0x800d59 <volume_of_drink+0x1>
    409c:	a0 91 5a 0d 	lds	r26, 0x0D5A	; 0x800d5a <volume_of_drink+0x2>
    40a0:	b0 91 5b 0d 	lds	r27, 0x0D5B	; 0x800d5b <volume_of_drink+0x3>
    40a4:	86 1b       	sub	r24, r22
    40a6:	91 09       	sbc	r25, r1
    40a8:	a1 09       	sbc	r26, r1
    40aa:	b1 09       	sbc	r27, r1
    40ac:	80 93 58 0d 	sts	0x0D58, r24	; 0x800d58 <volume_of_drink>
    40b0:	90 93 59 0d 	sts	0x0D59, r25	; 0x800d59 <volume_of_drink+0x1>
    40b4:	a0 93 5a 0d 	sts	0x0D5A, r26	; 0x800d5a <volume_of_drink+0x2>
    40b8:	b0 93 5b 0d 	sts	0x0D5B, r27	; 0x800d5b <volume_of_drink+0x3>
    40bc:	18 16       	cp	r1, r24
    40be:	19 06       	cpc	r1, r25
    40c0:	1a 06       	cpc	r1, r26
    40c2:	1b 06       	cpc	r1, r27
    40c4:	14 f0       	brlt	.+4      	; 0x40ca <GetKey_Tick+0x1c0>
    40c6:	10 92 5c 0d 	sts	0x0D5C, r1	; 0x800d5c <type_of_drink>
    40ca:	70 e0       	ldi	r23, 0x00	; 0
    40cc:	80 e0       	ldi	r24, 0x00	; 0
    40ce:	90 e0       	ldi	r25, 0x00	; 0
    40d0:	0e 94 43 2b 	call	0x5686	; 0x5686 <__floatunsisf>
    40d4:	27 ee       	ldi	r18, 0xE7	; 231
    40d6:	3b ef       	ldi	r19, 0xFB	; 251
    40d8:	49 e4       	ldi	r20, 0x49	; 73
    40da:	5f e3       	ldi	r21, 0x3F	; 63
    40dc:	0e 94 d5 2b 	call	0x57aa	; 0x57aa <__mulsf3>
    40e0:	6b 01       	movw	r12, r22
    40e2:	7c 01       	movw	r14, r24
    40e4:	60 91 53 0d 	lds	r22, 0x0D53	; 0x800d53 <drink_alcohol_content>
    40e8:	70 e0       	ldi	r23, 0x00	; 0
    40ea:	80 e0       	ldi	r24, 0x00	; 0
    40ec:	90 e0       	ldi	r25, 0x00	; 0
    40ee:	0e 94 43 2b 	call	0x5686	; 0x5686 <__floatunsisf>
    40f2:	9b 01       	movw	r18, r22
    40f4:	ac 01       	movw	r20, r24
    40f6:	c7 01       	movw	r24, r14
    40f8:	b6 01       	movw	r22, r12
    40fa:	0e 94 d5 2b 	call	0x57aa	; 0x57aa <__mulsf3>
    40fe:	6b 01       	movw	r12, r22
    4100:	7c 01       	movw	r14, r24
    4102:	c0 91 ce 01 	lds	r28, 0x01CE	; 0x8001ce <current_user>
    4106:	8e e1       	ldi	r24, 0x1E	; 30
    4108:	c8 9f       	mul	r28, r24
    410a:	e0 01       	movw	r28, r0
    410c:	11 24       	eor	r1, r1
    410e:	ca 5a       	subi	r28, 0xAA	; 170
    4110:	de 4f       	sbci	r29, 0xFE	; 254
    4112:	6e 85       	ldd	r22, Y+14	; 0x0e
    4114:	7f 85       	ldd	r23, Y+15	; 0x0f
    4116:	80 e0       	ldi	r24, 0x00	; 0
    4118:	90 e0       	ldi	r25, 0x00	; 0
    411a:	0e 94 43 2b 	call	0x5686	; 0x5686 <__floatunsisf>
    411e:	20 e0       	ldi	r18, 0x00	; 0
    4120:	30 e0       	ldi	r19, 0x00	; 0
    4122:	43 ee       	ldi	r20, 0xE3	; 227
    4124:	53 e4       	ldi	r21, 0x43	; 67
    4126:	0e 94 d5 2b 	call	0x57aa	; 0x57aa <__mulsf3>
    412a:	28 89       	ldd	r18, Y+16	; 0x10
    412c:	21 30       	cpi	r18, 0x01	; 1
    412e:	79 f4       	brne	.+30     	; 0x414e <__stack+0x4f>
    4130:	2b e7       	ldi	r18, 0x7B	; 123
    4132:	34 e1       	ldi	r19, 0x14	; 20
    4134:	4e e2       	ldi	r20, 0x2E	; 46
    4136:	5f e3       	ldi	r21, 0x3F	; 63
    4138:	0e 94 d5 2b 	call	0x57aa	; 0x57aa <__mulsf3>
    413c:	9b 01       	movw	r18, r22
    413e:	ac 01       	movw	r20, r24
    4140:	c7 01       	movw	r24, r14
    4142:	b6 01       	movw	r22, r12
    4144:	0e 94 aa 2a 	call	0x5554	; 0x5554 <__divsf3>
    4148:	6b 01       	movw	r12, r22
    414a:	7c 01       	movw	r14, r24
    414c:	0e c0       	rjmp	.+28     	; 0x416a <__stack+0x6b>
    414e:	2d ec       	ldi	r18, 0xCD	; 205
    4150:	3c ec       	ldi	r19, 0xCC	; 204
    4152:	4c e0       	ldi	r20, 0x0C	; 12
    4154:	5f e3       	ldi	r21, 0x3F	; 63
    4156:	0e 94 d5 2b 	call	0x57aa	; 0x57aa <__mulsf3>
    415a:	9b 01       	movw	r18, r22
    415c:	ac 01       	movw	r20, r24
    415e:	c7 01       	movw	r24, r14
    4160:	b6 01       	movw	r22, r12
    4162:	0e 94 aa 2a 	call	0x5554	; 0x5554 <__divsf3>
    4166:	6b 01       	movw	r12, r22
    4168:	7c 01       	movw	r14, r24
    416a:	60 91 68 0d 	lds	r22, 0x0D68	; 0x800d68 <time_elapsed_counter>
    416e:	70 91 69 0d 	lds	r23, 0x0D69	; 0x800d69 <time_elapsed_counter+0x1>
    4172:	80 e0       	ldi	r24, 0x00	; 0
    4174:	90 e0       	ldi	r25, 0x00	; 0
    4176:	0e 94 43 2b 	call	0x5686	; 0x5686 <__floatunsisf>
    417a:	2b ea       	ldi	r18, 0xAB	; 171
    417c:	39 ec       	ldi	r19, 0xC9	; 201
    417e:	4b e0       	ldi	r20, 0x0B	; 11
    4180:	56 e3       	ldi	r21, 0x36	; 54
    4182:	0e 94 d5 2b 	call	0x57aa	; 0x57aa <__mulsf3>
    4186:	9b 01       	movw	r18, r22
    4188:	ac 01       	movw	r20, r24
    418a:	c7 01       	movw	r24, r14
    418c:	b6 01       	movw	r22, r12
    418e:	0e 94 45 2a 	call	0x548a	; 0x548a <__subsf3>
    4192:	6b 01       	movw	r12, r22
    4194:	7c 01       	movw	r14, r24
    4196:	2a e0       	ldi	r18, 0x0A	; 10
    4198:	37 ed       	ldi	r19, 0xD7	; 215
    419a:	43 ea       	ldi	r20, 0xA3	; 163
    419c:	5d e3       	ldi	r21, 0x3D	; 61
    419e:	0e 94 d1 2b 	call	0x57a2	; 0x57a2 <__gesf2>
    41a2:	18 16       	cp	r1, r24
    41a4:	54 f5       	brge	.+84     	; 0x41fa <__stack+0xfb>
    41a6:	2a e0       	ldi	r18, 0x0A	; 10
    41a8:	37 ed       	ldi	r19, 0xD7	; 215
    41aa:	43 ea       	ldi	r20, 0xA3	; 163
    41ac:	5d e3       	ldi	r21, 0x3D	; 61
    41ae:	c7 01       	movw	r24, r14
    41b0:	b6 01       	movw	r22, r12
    41b2:	0e 94 45 2a 	call	0x548a	; 0x548a <__subsf3>
    41b6:	2f e8       	ldi	r18, 0x8F	; 143
    41b8:	32 ec       	ldi	r19, 0xC2	; 194
    41ba:	45 e7       	ldi	r20, 0x75	; 117
    41bc:	5c e3       	ldi	r21, 0x3C	; 60
    41be:	0e 94 aa 2a 	call	0x5554	; 0x5554 <__divsf3>
    41c2:	20 e0       	ldi	r18, 0x00	; 0
    41c4:	30 e0       	ldi	r19, 0x00	; 0
    41c6:	40 e1       	ldi	r20, 0x10	; 16
    41c8:	52 e4       	ldi	r21, 0x42	; 66
    41ca:	0e 94 d5 2b 	call	0x57aa	; 0x57aa <__mulsf3>
    41ce:	0e 94 17 2b 	call	0x562e	; 0x562e <__fixunssfsi>
    41d2:	70 93 67 0d 	sts	0x0D67, r23	; 0x800d67 <time_remaining_counter+0x1>
    41d6:	60 93 66 0d 	sts	0x0D66, r22	; 0x800d66 <time_remaining_counter>
    41da:	81 e0       	ldi	r24, 0x01	; 1
    41dc:	80 93 6a 0d 	sts	0x0D6A, r24	; 0x800d6a <timer_is_on>
    41e0:	e0 91 e7 0f 	lds	r30, 0x0FE7	; 0x800fe7 <get_key_state>
    41e4:	8e 2f       	mov	r24, r30
    41e6:	90 e0       	ldi	r25, 0x00	; 0
    41e8:	88 30       	cpi	r24, 0x08	; 8
    41ea:	91 05       	cpc	r25, r1
    41ec:	08 f0       	brcs	.+2      	; 0x41f0 <__stack+0xf1>
    41ee:	93 c1       	rjmp	.+806    	; 0x4516 <__stack+0x417>
    41f0:	fc 01       	movw	r30, r24
    41f2:	ef 55       	subi	r30, 0x5F	; 95
    41f4:	ff 4f       	sbci	r31, 0xFF	; 255
    41f6:	0c 94 ba 2c 	jmp	0x5974	; 0x5974 <__tablejump2__>
    41fa:	10 92 6a 0d 	sts	0x0D6A, r1	; 0x800d6a <timer_is_on>
    41fe:	e0 91 e7 0f 	lds	r30, 0x0FE7	; 0x800fe7 <get_key_state>
    4202:	8e 2f       	mov	r24, r30
    4204:	90 e0       	ldi	r25, 0x00	; 0
    4206:	88 30       	cpi	r24, 0x08	; 8
    4208:	91 05       	cpc	r25, r1
    420a:	08 f0       	brcs	.+2      	; 0x420e <__stack+0x10f>
    420c:	84 c1       	rjmp	.+776    	; 0x4516 <__stack+0x417>
    420e:	fc 01       	movw	r30, r24
    4210:	e7 55       	subi	r30, 0x57	; 87
    4212:	ff 4f       	sbci	r31, 0xFF	; 255
    4214:	0c 94 ba 2c 	jmp	0x5974	; 0x5974 <__tablejump2__>
    4218:	8f e4       	ldi	r24, 0x4F	; 79
    421a:	93 ec       	ldi	r25, 0xC3	; 195
    421c:	01 97       	sbiw	r24, 0x01	; 1
    421e:	f1 f7       	brne	.-4      	; 0x421c <__stack+0x11d>
    4220:	00 c0       	rjmp	.+0      	; 0x4222 <__stack+0x123>
    4222:	00 00       	nop
    4224:	0e 94 80 04 	call	0x900	; 0x900 <GetKeypadKey>
    4228:	80 93 1a 0d 	sts	0x0D1A, r24	; 0x800d1a <gk_selection>
    422c:	88 23       	and	r24, r24
    422e:	a1 f3       	breq	.-24     	; 0x4218 <__stack+0x119>
    4230:	06 c0       	rjmp	.+12     	; 0x423e <__stack+0x13f>
    4232:	8f e4       	ldi	r24, 0x4F	; 79
    4234:	93 ec       	ldi	r25, 0xC3	; 195
    4236:	01 97       	sbiw	r24, 0x01	; 1
    4238:	f1 f7       	brne	.-4      	; 0x4236 <__stack+0x137>
    423a:	00 c0       	rjmp	.+0      	; 0x423c <__stack+0x13d>
    423c:	00 00       	nop
    423e:	0e 94 80 04 	call	0x900	; 0x900 <GetKeypadKey>
    4242:	80 93 19 0d 	sts	0x0D19, r24	; 0x800d19 <gk_prev_select>
    4246:	90 91 1a 0d 	lds	r25, 0x0D1A	; 0x800d1a <gk_selection>
    424a:	89 17       	cp	r24, r25
    424c:	91 f3       	breq	.-28     	; 0x4232 <__stack+0x133>
    424e:	80 c0       	rjmp	.+256    	; 0x4350 <__stack+0x251>
    4250:	80 91 66 0d 	lds	r24, 0x0D66	; 0x800d66 <time_remaining_counter>
    4254:	90 91 67 0d 	lds	r25, 0x0D67	; 0x800d67 <time_remaining_counter+0x1>
    4258:	8c 01       	movw	r16, r24
    425a:	16 95       	lsr	r17
    425c:	07 95       	ror	r16
    425e:	60 e2       	ldi	r22, 0x20	; 32
    4260:	7c e1       	ldi	r23, 0x1C	; 28
    4262:	0e 94 68 2c 	call	0x58d0	; 0x58d0 <__udivmodhi4>
    4266:	d6 2f       	mov	r29, r22
    4268:	c8 01       	movw	r24, r16
    426a:	60 e1       	ldi	r22, 0x10	; 16
    426c:	7e e0       	ldi	r23, 0x0E	; 14
    426e:	0e 94 68 2c 	call	0x58d0	; 0x58d0 <__udivmodhi4>
    4272:	9c 01       	movw	r18, r24
    4274:	a9 e8       	ldi	r26, 0x89	; 137
    4276:	b8 e8       	ldi	r27, 0x88	; 136
    4278:	0e 94 c3 2c 	call	0x5986	; 0x5986 <__umulhisi3>
    427c:	7c 01       	movw	r14, r24
    427e:	f6 94       	lsr	r15
    4280:	e7 94       	ror	r14
    4282:	f6 94       	lsr	r15
    4284:	e7 94       	ror	r14
    4286:	f6 94       	lsr	r15
    4288:	e7 94       	ror	r14
    428a:	f6 94       	lsr	r15
    428c:	e7 94       	ror	r14
    428e:	f6 94       	lsr	r15
    4290:	e7 94       	ror	r14
    4292:	98 01       	movw	r18, r16
    4294:	0e 94 c3 2c 	call	0x5986	; 0x5986 <__umulhisi3>
    4298:	96 95       	lsr	r25
    429a:	87 95       	ror	r24
    429c:	92 95       	swap	r25
    429e:	82 95       	swap	r24
    42a0:	8f 70       	andi	r24, 0x0F	; 15
    42a2:	89 27       	eor	r24, r25
    42a4:	9f 70       	andi	r25, 0x0F	; 15
    42a6:	89 27       	eor	r24, r25
    42a8:	4c e3       	ldi	r20, 0x3C	; 60
    42aa:	48 9f       	mul	r20, r24
    42ac:	90 01       	movw	r18, r0
    42ae:	49 9f       	mul	r20, r25
    42b0:	30 0d       	add	r19, r0
    42b2:	11 24       	eor	r1, r1
    42b4:	02 1b       	sub	r16, r18
    42b6:	13 0b       	sbc	r17, r19
    42b8:	0b d3       	rcall	.+1558   	; 0x48d0 <nokia_lcd_clear>
    42ba:	61 e0       	ldi	r22, 0x01	; 1
    42bc:	8c e5       	ldi	r24, 0x5C	; 92
    42be:	96 e0       	ldi	r25, 0x06	; 6
    42c0:	ed d3       	rcall	.+2010   	; 0x4a9c <nokia_lcd_write_string>
    42c2:	6a e0       	ldi	r22, 0x0A	; 10
    42c4:	80 e0       	ldi	r24, 0x00	; 0
    42c6:	fc d3       	rcall	.+2040   	; 0x4ac0 <nokia_lcd_set_cursor>
    42c8:	cd ec       	ldi	r28, 0xCD	; 205
    42ca:	dc 9f       	mul	r29, r28
    42cc:	11 2d       	mov	r17, r1
    42ce:	11 24       	eor	r1, r1
    42d0:	16 95       	lsr	r17
    42d2:	16 95       	lsr	r17
    42d4:	16 95       	lsr	r17
    42d6:	61 e0       	ldi	r22, 0x01	; 1
    42d8:	80 e3       	ldi	r24, 0x30	; 48
    42da:	81 0f       	add	r24, r17
    42dc:	35 d3       	rcall	.+1642   	; 0x4948 <nokia_lcd_write_char>
    42de:	11 0f       	add	r17, r17
    42e0:	81 2f       	mov	r24, r17
    42e2:	88 0f       	add	r24, r24
    42e4:	88 0f       	add	r24, r24
    42e6:	18 0f       	add	r17, r24
    42e8:	8d 2f       	mov	r24, r29
    42ea:	81 1b       	sub	r24, r17
    42ec:	61 e0       	ldi	r22, 0x01	; 1
    42ee:	80 5d       	subi	r24, 0xD0	; 208
    42f0:	2b d3       	rcall	.+1622   	; 0x4948 <nokia_lcd_write_char>
    42f2:	61 e0       	ldi	r22, 0x01	; 1
    42f4:	8a e3       	ldi	r24, 0x3A	; 58
    42f6:	28 d3       	rcall	.+1616   	; 0x4948 <nokia_lcd_write_char>
    42f8:	ec 9e       	mul	r14, r28
    42fa:	11 2d       	mov	r17, r1
    42fc:	11 24       	eor	r1, r1
    42fe:	16 95       	lsr	r17
    4300:	16 95       	lsr	r17
    4302:	16 95       	lsr	r17
    4304:	61 e0       	ldi	r22, 0x01	; 1
    4306:	80 e3       	ldi	r24, 0x30	; 48
    4308:	81 0f       	add	r24, r17
    430a:	1e d3       	rcall	.+1596   	; 0x4948 <nokia_lcd_write_char>
    430c:	11 0f       	add	r17, r17
    430e:	81 2f       	mov	r24, r17
    4310:	88 0f       	add	r24, r24
    4312:	88 0f       	add	r24, r24
    4314:	18 0f       	add	r17, r24
    4316:	8e 2d       	mov	r24, r14
    4318:	81 1b       	sub	r24, r17
    431a:	61 e0       	ldi	r22, 0x01	; 1
    431c:	80 5d       	subi	r24, 0xD0	; 208
    431e:	14 d3       	rcall	.+1576   	; 0x4948 <nokia_lcd_write_char>
    4320:	61 e0       	ldi	r22, 0x01	; 1
    4322:	8a e3       	ldi	r24, 0x3A	; 58
    4324:	11 d3       	rcall	.+1570   	; 0x4948 <nokia_lcd_write_char>
    4326:	0c 9f       	mul	r16, r28
    4328:	c1 2d       	mov	r28, r1
    432a:	11 24       	eor	r1, r1
    432c:	c6 95       	lsr	r28
    432e:	c6 95       	lsr	r28
    4330:	c6 95       	lsr	r28
    4332:	61 e0       	ldi	r22, 0x01	; 1
    4334:	80 e3       	ldi	r24, 0x30	; 48
    4336:	8c 0f       	add	r24, r28
    4338:	07 d3       	rcall	.+1550   	; 0x4948 <nokia_lcd_write_char>
    433a:	cc 0f       	add	r28, r28
    433c:	8c 2f       	mov	r24, r28
    433e:	88 0f       	add	r24, r24
    4340:	88 0f       	add	r24, r24
    4342:	c8 0f       	add	r28, r24
    4344:	80 2f       	mov	r24, r16
    4346:	8c 1b       	sub	r24, r28
    4348:	61 e0       	ldi	r22, 0x01	; 1
    434a:	80 5d       	subi	r24, 0xD0	; 208
    434c:	fd d2       	rcall	.+1530   	; 0x4948 <nokia_lcd_write_char>
    434e:	bd d3       	rcall	.+1914   	; 0x4aca <nokia_lcd_render>
    4350:	e0 91 e7 0f 	lds	r30, 0x0FE7	; 0x800fe7 <get_key_state>
    4354:	8e 2f       	mov	r24, r30
    4356:	90 e0       	ldi	r25, 0x00	; 0
    4358:	88 30       	cpi	r24, 0x08	; 8
    435a:	91 05       	cpc	r25, r1
    435c:	08 f0       	brcs	.+2      	; 0x4360 <__stack+0x261>
    435e:	db c0       	rjmp	.+438    	; 0x4516 <__stack+0x417>
    4360:	fc 01       	movw	r30, r24
    4362:	ef 54       	subi	r30, 0x4F	; 79
    4364:	ff 4f       	sbci	r31, 0xFF	; 255
    4366:	0c 94 ba 2c 	jmp	0x5974	; 0x5974 <__tablejump2__>
    436a:	80 91 6d 0d 	lds	r24, 0x0D6D	; 0x800d6d <get_key_flag>
    436e:	88 23       	and	r24, r24
    4370:	09 f4       	brne	.+2      	; 0x4374 <__stack+0x275>
    4372:	d3 c0       	rjmp	.+422    	; 0x451a <__stack+0x41b>
    4374:	80 91 6b 0d 	lds	r24, 0x0D6B	; 0x800d6b <number_of_users>
    4378:	81 11       	cpse	r24, r1
    437a:	0c c0       	rjmp	.+24     	; 0x4394 <__stack+0x295>
    437c:	a9 d2       	rcall	.+1362   	; 0x48d0 <nokia_lcd_clear>
    437e:	61 e0       	ldi	r22, 0x01	; 1
    4380:	84 ec       	ldi	r24, 0xC4	; 196
    4382:	92 e0       	ldi	r25, 0x02	; 2
    4384:	8b d3       	rcall	.+1814   	; 0x4a9c <nokia_lcd_write_string>
    4386:	a1 d3       	rcall	.+1858   	; 0x4aca <nokia_lcd_render>
    4388:	10 92 6f 0d 	sts	0x0D6F, r1	; 0x800d6f <user_verify_flag>
    438c:	81 e0       	ldi	r24, 0x01	; 1
    438e:	80 93 e7 0f 	sts	0x0FE7, r24	; 0x800fe7 <get_key_state>
    4392:	c3 c0       	rjmp	.+390    	; 0x451a <__stack+0x41b>
    4394:	80 91 5c 0d 	lds	r24, 0x0D5C	; 0x800d5c <type_of_drink>
    4398:	81 11       	cpse	r24, r1
    439a:	0c c0       	rjmp	.+24     	; 0x43b4 <__stack+0x2b5>
    439c:	99 d2       	rcall	.+1330   	; 0x48d0 <nokia_lcd_clear>
    439e:	61 e0       	ldi	r22, 0x01	; 1
    43a0:	8b e6       	ldi	r24, 0x6B	; 107
    43a2:	95 e0       	ldi	r25, 0x05	; 5
    43a4:	7b d3       	rcall	.+1782   	; 0x4a9c <nokia_lcd_write_string>
    43a6:	91 d3       	rcall	.+1826   	; 0x4aca <nokia_lcd_render>
    43a8:	10 92 6f 0d 	sts	0x0D6F, r1	; 0x800d6f <user_verify_flag>
    43ac:	82 e0       	ldi	r24, 0x02	; 2
    43ae:	80 93 e7 0f 	sts	0x0FE7, r24	; 0x800fe7 <get_key_state>
    43b2:	b3 c0       	rjmp	.+358    	; 0x451a <__stack+0x41b>
    43b4:	80 91 60 0d 	lds	r24, 0x0D60	; 0x800d60 <keys_have_been_deposited>
    43b8:	81 11       	cpse	r24, r1
    43ba:	0c c0       	rjmp	.+24     	; 0x43d4 <__stack+0x2d5>
    43bc:	89 d2       	rcall	.+1298   	; 0x48d0 <nokia_lcd_clear>
    43be:	61 e0       	ldi	r22, 0x01	; 1
    43c0:	8b e6       	ldi	r24, 0x6B	; 107
    43c2:	96 e0       	ldi	r25, 0x06	; 6
    43c4:	6b d3       	rcall	.+1750   	; 0x4a9c <nokia_lcd_write_string>
    43c6:	81 d3       	rcall	.+1794   	; 0x4aca <nokia_lcd_render>
    43c8:	10 92 6f 0d 	sts	0x0D6F, r1	; 0x800d6f <user_verify_flag>
    43cc:	82 e0       	ldi	r24, 0x02	; 2
    43ce:	80 93 e7 0f 	sts	0x0FE7, r24	; 0x800fe7 <get_key_state>
    43d2:	a3 c0       	rjmp	.+326    	; 0x451a <__stack+0x41b>
    43d4:	81 e0       	ldi	r24, 0x01	; 1
    43d6:	80 93 6f 0d 	sts	0x0D6F, r24	; 0x800d6f <user_verify_flag>
    43da:	83 e0       	ldi	r24, 0x03	; 3
    43dc:	80 93 e7 0f 	sts	0x0FE7, r24	; 0x800fe7 <get_key_state>
    43e0:	9c c0       	rjmp	.+312    	; 0x451a <__stack+0x41b>
    43e2:	80 91 1a 0d 	lds	r24, 0x0D1A	; 0x800d1a <gk_selection>
    43e6:	88 23       	and	r24, r24
    43e8:	09 f4       	brne	.+2      	; 0x43ec <__stack+0x2ed>
    43ea:	97 c0       	rjmp	.+302    	; 0x451a <__stack+0x41b>
    43ec:	10 92 6d 0d 	sts	0x0D6D, r1	; 0x800d6d <get_key_flag>
    43f0:	10 92 e7 0f 	sts	0x0FE7, r1	; 0x800fe7 <get_key_state>
    43f4:	92 c0       	rjmp	.+292    	; 0x451a <__stack+0x41b>
    43f6:	80 91 1a 0d 	lds	r24, 0x0D1A	; 0x800d1a <gk_selection>
    43fa:	88 23       	and	r24, r24
    43fc:	09 f4       	brne	.+2      	; 0x4400 <__stack+0x301>
    43fe:	8d c0       	rjmp	.+282    	; 0x451a <__stack+0x41b>
    4400:	10 92 6d 0d 	sts	0x0D6D, r1	; 0x800d6d <get_key_flag>
    4404:	10 92 e7 0f 	sts	0x0FE7, r1	; 0x800fe7 <get_key_state>
    4408:	88 c0       	rjmp	.+272    	; 0x451a <__stack+0x41b>
    440a:	80 91 6f 0d 	lds	r24, 0x0D6F	; 0x800d6f <user_verify_flag>
    440e:	81 11       	cpse	r24, r1
    4410:	84 c0       	rjmp	.+264    	; 0x451a <__stack+0x41b>
    4412:	80 91 6c 0d 	lds	r24, 0x0D6C	; 0x800d6c <correct_user_credentials>
    4416:	88 23       	and	r24, r24
    4418:	99 f0       	breq	.+38     	; 0x4440 <__stack+0x341>
    441a:	90 91 01 01 	lds	r25, 0x0101	; 0x800101 <user_to_remove>
    441e:	80 91 ce 01 	lds	r24, 0x01CE	; 0x8001ce <current_user>
    4422:	98 13       	cpse	r25, r24
    4424:	0d c0       	rjmp	.+26     	; 0x4440 <__stack+0x341>
    4426:	54 d2       	rcall	.+1192   	; 0x48d0 <nokia_lcd_clear>
    4428:	61 e0       	ldi	r22, 0x01	; 1
    442a:	8e e9       	ldi	r24, 0x9E	; 158
    442c:	96 e0       	ldi	r25, 0x06	; 6
    442e:	36 d3       	rcall	.+1644   	; 0x4a9c <nokia_lcd_write_string>
    4430:	4c d3       	rcall	.+1688   	; 0x4aca <nokia_lcd_render>
    4432:	10 92 65 0d 	sts	0x0D65, r1	; 0x800d65 <liquor_door_signal>
    4436:	29 98       	cbi	0x05, 1	; 5
    4438:	84 e0       	ldi	r24, 0x04	; 4
    443a:	80 93 e7 0f 	sts	0x0FE7, r24	; 0x800fe7 <get_key_state>
    443e:	6d c0       	rjmp	.+218    	; 0x451a <__stack+0x41b>
    4440:	10 92 6d 0d 	sts	0x0D6D, r1	; 0x800d6d <get_key_flag>
    4444:	10 92 e7 0f 	sts	0x0FE7, r1	; 0x800fe7 <get_key_state>
    4448:	68 c0       	rjmp	.+208    	; 0x451a <__stack+0x41b>
    444a:	80 91 61 0d 	lds	r24, 0x0D61	; 0x800d61 <drink_has_been_removed>
    444e:	81 11       	cpse	r24, r1
    4450:	64 c0       	rjmp	.+200    	; 0x451a <__stack+0x41b>
    4452:	80 91 64 0d 	lds	r24, 0x0D64	; 0x800d64 <liquor_door_sensor>
    4456:	88 23       	and	r24, r24
    4458:	09 f4       	brne	.+2      	; 0x445c <__stack+0x35d>
    445a:	5f c0       	rjmp	.+190    	; 0x451a <__stack+0x41b>
    445c:	85 e0       	ldi	r24, 0x05	; 5
    445e:	80 93 e7 0f 	sts	0x0FE7, r24	; 0x800fe7 <get_key_state>
    4462:	5b c0       	rjmp	.+182    	; 0x451a <__stack+0x41b>
    4464:	80 91 6a 0d 	lds	r24, 0x0D6A	; 0x800d6a <timer_is_on>
    4468:	88 23       	and	r24, r24
    446a:	21 f0       	breq	.+8      	; 0x4474 <__stack+0x375>
    446c:	87 e0       	ldi	r24, 0x07	; 7
    446e:	80 93 e7 0f 	sts	0x0FE7, r24	; 0x800fe7 <get_key_state>
    4472:	53 c0       	rjmp	.+166    	; 0x451a <__stack+0x41b>
    4474:	2d d2       	rcall	.+1114   	; 0x48d0 <nokia_lcd_clear>
    4476:	61 e0       	ldi	r22, 0x01	; 1
    4478:	8b eb       	ldi	r24, 0xBB	; 187
    447a:	96 e0       	ldi	r25, 0x06	; 6
    447c:	0f d3       	rcall	.+1566   	; 0x4a9c <nokia_lcd_write_string>
    447e:	25 d3       	rcall	.+1610   	; 0x4aca <nokia_lcd_render>
    4480:	81 e0       	ldi	r24, 0x01	; 1
    4482:	80 93 63 0d 	sts	0x0D63, r24	; 0x800d63 <key_door_signal>
    4486:	10 92 65 0d 	sts	0x0D65, r1	; 0x800d65 <liquor_door_signal>
    448a:	28 9a       	sbi	0x05, 0	; 5
    448c:	85 b1       	in	r24, 0x05	; 5
    448e:	90 91 65 0d 	lds	r25, 0x0D65	; 0x800d65 <liquor_door_signal>
    4492:	99 23       	and	r25, r25
    4494:	11 f0       	breq	.+4      	; 0x449a <__stack+0x39b>
    4496:	82 60       	ori	r24, 0x02	; 2
    4498:	01 c0       	rjmp	.+2      	; 0x449c <__stack+0x39d>
    449a:	8d 7f       	andi	r24, 0xFD	; 253
    449c:	85 b9       	out	0x05, r24	; 5
    449e:	86 e0       	ldi	r24, 0x06	; 6
    44a0:	80 93 e7 0f 	sts	0x0FE7, r24	; 0x800fe7 <get_key_state>
    44a4:	3a c0       	rjmp	.+116    	; 0x451a <__stack+0x41b>
    44a6:	80 91 1a 0d 	lds	r24, 0x0D1A	; 0x800d1a <gk_selection>
    44aa:	88 23       	and	r24, r24
    44ac:	b1 f1       	breq	.+108    	; 0x451a <__stack+0x41b>
    44ae:	10 92 6d 0d 	sts	0x0D6D, r1	; 0x800d6d <get_key_flag>
    44b2:	10 92 61 0d 	sts	0x0D61, r1	; 0x800d61 <drink_has_been_removed>
    44b6:	10 92 60 0d 	sts	0x0D60, r1	; 0x800d60 <keys_have_been_deposited>
    44ba:	2a 9a       	sbi	0x05, 2	; 5
    44bc:	10 92 e7 0f 	sts	0x0FE7, r1	; 0x800fe7 <get_key_state>
    44c0:	2c c0       	rjmp	.+88     	; 0x451a <__stack+0x41b>
    44c2:	80 91 66 0d 	lds	r24, 0x0D66	; 0x800d66 <time_remaining_counter>
    44c6:	90 91 67 0d 	lds	r25, 0x0D67	; 0x800d67 <time_remaining_counter+0x1>
    44ca:	00 97       	sbiw	r24, 0x00	; 0
    44cc:	49 f0       	breq	.+18     	; 0x44e0 <__stack+0x3e1>
    44ce:	01 97       	sbiw	r24, 0x01	; 1
    44d0:	90 93 67 0d 	sts	0x0D67, r25	; 0x800d67 <time_remaining_counter+0x1>
    44d4:	80 93 66 0d 	sts	0x0D66, r24	; 0x800d66 <time_remaining_counter>
    44d8:	87 e0       	ldi	r24, 0x07	; 7
    44da:	80 93 e7 0f 	sts	0x0FE7, r24	; 0x800fe7 <get_key_state>
    44de:	1d c0       	rjmp	.+58     	; 0x451a <__stack+0x41b>
    44e0:	f7 d1       	rcall	.+1006   	; 0x48d0 <nokia_lcd_clear>
    44e2:	61 e0       	ldi	r22, 0x01	; 1
    44e4:	8b eb       	ldi	r24, 0xBB	; 187
    44e6:	96 e0       	ldi	r25, 0x06	; 6
    44e8:	d9 d2       	rcall	.+1458   	; 0x4a9c <nokia_lcd_write_string>
    44ea:	ef d2       	rcall	.+1502   	; 0x4aca <nokia_lcd_render>
    44ec:	10 92 6a 0d 	sts	0x0D6A, r1	; 0x800d6a <timer_is_on>
    44f0:	81 e0       	ldi	r24, 0x01	; 1
    44f2:	80 93 63 0d 	sts	0x0D63, r24	; 0x800d63 <key_door_signal>
    44f6:	10 92 65 0d 	sts	0x0D65, r1	; 0x800d65 <liquor_door_signal>
    44fa:	28 9a       	sbi	0x05, 0	; 5
    44fc:	85 b1       	in	r24, 0x05	; 5
    44fe:	90 91 65 0d 	lds	r25, 0x0D65	; 0x800d65 <liquor_door_signal>
    4502:	99 23       	and	r25, r25
    4504:	11 f0       	breq	.+4      	; 0x450a <__stack+0x40b>
    4506:	82 60       	ori	r24, 0x02	; 2
    4508:	01 c0       	rjmp	.+2      	; 0x450c <__stack+0x40d>
    450a:	8d 7f       	andi	r24, 0xFD	; 253
    450c:	85 b9       	out	0x05, r24	; 5
    450e:	86 e0       	ldi	r24, 0x06	; 6
    4510:	80 93 e7 0f 	sts	0x0FE7, r24	; 0x800fe7 <get_key_state>
    4514:	02 c0       	rjmp	.+4      	; 0x451a <__stack+0x41b>
    4516:	10 92 e7 0f 	sts	0x0FE7, r1	; 0x800fe7 <get_key_state>
    451a:	df 91       	pop	r29
    451c:	cf 91       	pop	r28
    451e:	1f 91       	pop	r17
    4520:	0f 91       	pop	r16
    4522:	ff 90       	pop	r15
    4524:	ef 90       	pop	r14
    4526:	df 90       	pop	r13
    4528:	cf 90       	pop	r12
    452a:	08 95       	ret

0000452c <GetKeyTask>:
    452c:	10 92 e7 0f 	sts	0x0FE7, r1	; 0x800fe7 <get_key_state>
    4530:	ec dc       	rcall	.-1576   	; 0x3f0a <GetKey_Tick>
    4532:	84 e6       	ldi	r24, 0x64	; 100
    4534:	90 e0       	ldi	r25, 0x00	; 0
    4536:	e8 d6       	rcall	.+3536   	; 0x5308 <vTaskDelay>
    4538:	fb cf       	rjmp	.-10     	; 0x4530 <GetKeyTask+0x4>

0000453a <GetKeyPulse>:
    453a:	af 92       	push	r10
    453c:	bf 92       	push	r11
    453e:	cf 92       	push	r12
    4540:	df 92       	push	r13
    4542:	ef 92       	push	r14
    4544:	ff 92       	push	r15
    4546:	0f 93       	push	r16
    4548:	a1 2c       	mov	r10, r1
    454a:	b1 2c       	mov	r11, r1
    454c:	c1 2c       	mov	r12, r1
    454e:	d1 2c       	mov	r13, r1
    4550:	e1 2c       	mov	r14, r1
    4552:	f1 2c       	mov	r15, r1
    4554:	08 2f       	mov	r16, r24
    4556:	20 e0       	ldi	r18, 0x00	; 0
    4558:	30 e0       	ldi	r19, 0x00	; 0
    455a:	45 e5       	ldi	r20, 0x55	; 85
    455c:	50 e0       	ldi	r21, 0x00	; 0
    455e:	6b ee       	ldi	r22, 0xEB	; 235
    4560:	76 e0       	ldi	r23, 0x06	; 6
    4562:	86 e9       	ldi	r24, 0x96	; 150
    4564:	92 e2       	ldi	r25, 0x22	; 34
    4566:	58 d4       	rcall	.+2224   	; 0x4e18 <xTaskGenericCreate>
    4568:	0f 91       	pop	r16
    456a:	ff 90       	pop	r15
    456c:	ef 90       	pop	r14
    456e:	df 90       	pop	r13
    4570:	cf 90       	pop	r12
    4572:	bf 90       	pop	r11
    4574:	af 90       	pop	r10
    4576:	08 95       	ret

00004578 <AutoLockLiquorDoor_Tick>:
    4578:	80 91 e3 0f 	lds	r24, 0x0FE3	; 0x800fe3 <auto_lock_liquor_door>
    457c:	81 30       	cpi	r24, 0x01	; 1
    457e:	a1 f0       	breq	.+40     	; 0x45a8 <AutoLockLiquorDoor_Tick+0x30>
    4580:	18 f0       	brcs	.+6      	; 0x4588 <AutoLockLiquorDoor_Tick+0x10>
    4582:	82 30       	cpi	r24, 0x02	; 2
    4584:	31 f1       	breq	.+76     	; 0x45d2 <AutoLockLiquorDoor_Tick+0x5a>
    4586:	2b c0       	rjmp	.+86     	; 0x45de <AutoLockLiquorDoor_Tick+0x66>
    4588:	80 91 61 0d 	lds	r24, 0x0D61	; 0x800d61 <drink_has_been_removed>
    458c:	88 23       	and	r24, r24
    458e:	49 f1       	breq	.+82     	; 0x45e2 <AutoLockLiquorDoor_Tick+0x6a>
    4590:	80 91 65 0d 	lds	r24, 0x0D65	; 0x800d65 <liquor_door_signal>
    4594:	88 23       	and	r24, r24
    4596:	29 f1       	breq	.+74     	; 0x45e2 <AutoLockLiquorDoor_Tick+0x6a>
    4598:	10 92 17 0d 	sts	0x0D17, r1	; 0x800d17 <liquor_door_counter+0x1>
    459c:	10 92 16 0d 	sts	0x0D16, r1	; 0x800d16 <liquor_door_counter>
    45a0:	81 e0       	ldi	r24, 0x01	; 1
    45a2:	80 93 e3 0f 	sts	0x0FE3, r24	; 0x800fe3 <auto_lock_liquor_door>
    45a6:	08 95       	ret
    45a8:	80 91 16 0d 	lds	r24, 0x0D16	; 0x800d16 <liquor_door_counter>
    45ac:	90 91 17 0d 	lds	r25, 0x0D17	; 0x800d17 <liquor_door_counter+0x1>
    45b0:	8d 3d       	cpi	r24, 0xDD	; 221
    45b2:	25 e0       	ldi	r18, 0x05	; 5
    45b4:	92 07       	cpc	r25, r18
    45b6:	20 f0       	brcs	.+8      	; 0x45c0 <AutoLockLiquorDoor_Tick+0x48>
    45b8:	82 e0       	ldi	r24, 0x02	; 2
    45ba:	80 93 e3 0f 	sts	0x0FE3, r24	; 0x800fe3 <auto_lock_liquor_door>
    45be:	08 95       	ret
    45c0:	01 96       	adiw	r24, 0x01	; 1
    45c2:	90 93 17 0d 	sts	0x0D17, r25	; 0x800d17 <liquor_door_counter+0x1>
    45c6:	80 93 16 0d 	sts	0x0D16, r24	; 0x800d16 <liquor_door_counter>
    45ca:	81 e0       	ldi	r24, 0x01	; 1
    45cc:	80 93 e3 0f 	sts	0x0FE3, r24	; 0x800fe3 <auto_lock_liquor_door>
    45d0:	08 95       	ret
    45d2:	10 92 65 0d 	sts	0x0D65, r1	; 0x800d65 <liquor_door_signal>
    45d6:	29 98       	cbi	0x05, 1	; 5
    45d8:	10 92 e3 0f 	sts	0x0FE3, r1	; 0x800fe3 <auto_lock_liquor_door>
    45dc:	08 95       	ret
    45de:	10 92 e3 0f 	sts	0x0FE3, r1	; 0x800fe3 <auto_lock_liquor_door>
    45e2:	08 95       	ret

000045e4 <AutoLockLiquorDoorTask>:
    45e4:	10 92 e3 0f 	sts	0x0FE3, r1	; 0x800fe3 <auto_lock_liquor_door>
    45e8:	c7 df       	rcall	.-114    	; 0x4578 <AutoLockLiquorDoor_Tick>
    45ea:	8a e0       	ldi	r24, 0x0A	; 10
    45ec:	90 e0       	ldi	r25, 0x00	; 0
    45ee:	8c d6       	rcall	.+3352   	; 0x5308 <vTaskDelay>
    45f0:	fb cf       	rjmp	.-10     	; 0x45e8 <AutoLockLiquorDoorTask+0x4>

000045f2 <AutoLockLiquorDoorPulse>:
    45f2:	af 92       	push	r10
    45f4:	bf 92       	push	r11
    45f6:	cf 92       	push	r12
    45f8:	df 92       	push	r13
    45fa:	ef 92       	push	r14
    45fc:	ff 92       	push	r15
    45fe:	0f 93       	push	r16
    4600:	a1 2c       	mov	r10, r1
    4602:	b1 2c       	mov	r11, r1
    4604:	c1 2c       	mov	r12, r1
    4606:	d1 2c       	mov	r13, r1
    4608:	e1 2c       	mov	r14, r1
    460a:	f1 2c       	mov	r15, r1
    460c:	08 2f       	mov	r16, r24
    460e:	20 e0       	ldi	r18, 0x00	; 0
    4610:	30 e0       	ldi	r19, 0x00	; 0
    4612:	45 e5       	ldi	r20, 0x55	; 85
    4614:	50 e0       	ldi	r21, 0x00	; 0
    4616:	66 ef       	ldi	r22, 0xF6	; 246
    4618:	76 e0       	ldi	r23, 0x06	; 6
    461a:	82 ef       	ldi	r24, 0xF2	; 242
    461c:	92 e2       	ldi	r25, 0x22	; 34
    461e:	fc d3       	rcall	.+2040   	; 0x4e18 <xTaskGenericCreate>
    4620:	0f 91       	pop	r16
    4622:	ff 90       	pop	r15
    4624:	ef 90       	pop	r14
    4626:	df 90       	pop	r13
    4628:	cf 90       	pop	r12
    462a:	bf 90       	pop	r11
    462c:	af 90       	pop	r10
    462e:	08 95       	ret

00004630 <AutoLockKeyDoor_Tick>:
    4630:	80 91 de 0f 	lds	r24, 0x0FDE	; 0x800fde <auto_lock_key_door>
    4634:	81 30       	cpi	r24, 0x01	; 1
    4636:	a1 f0       	breq	.+40     	; 0x4660 <AutoLockKeyDoor_Tick+0x30>
    4638:	18 f0       	brcs	.+6      	; 0x4640 <AutoLockKeyDoor_Tick+0x10>
    463a:	82 30       	cpi	r24, 0x02	; 2
    463c:	31 f1       	breq	.+76     	; 0x468a <AutoLockKeyDoor_Tick+0x5a>
    463e:	2b c0       	rjmp	.+86     	; 0x4696 <AutoLockKeyDoor_Tick+0x66>
    4640:	80 91 60 0d 	lds	r24, 0x0D60	; 0x800d60 <keys_have_been_deposited>
    4644:	81 11       	cpse	r24, r1
    4646:	29 c0       	rjmp	.+82     	; 0x469a <AutoLockKeyDoor_Tick+0x6a>
    4648:	80 91 63 0d 	lds	r24, 0x0D63	; 0x800d63 <key_door_signal>
    464c:	88 23       	and	r24, r24
    464e:	29 f1       	breq	.+74     	; 0x469a <AutoLockKeyDoor_Tick+0x6a>
    4650:	10 92 15 0d 	sts	0x0D15, r1	; 0x800d15 <key_door_counter+0x1>
    4654:	10 92 14 0d 	sts	0x0D14, r1	; 0x800d14 <key_door_counter>
    4658:	81 e0       	ldi	r24, 0x01	; 1
    465a:	80 93 de 0f 	sts	0x0FDE, r24	; 0x800fde <auto_lock_key_door>
    465e:	08 95       	ret
    4660:	80 91 14 0d 	lds	r24, 0x0D14	; 0x800d14 <key_door_counter>
    4664:	90 91 15 0d 	lds	r25, 0x0D15	; 0x800d15 <key_door_counter+0x1>
    4668:	8d 3d       	cpi	r24, 0xDD	; 221
    466a:	25 e0       	ldi	r18, 0x05	; 5
    466c:	92 07       	cpc	r25, r18
    466e:	20 f0       	brcs	.+8      	; 0x4678 <AutoLockKeyDoor_Tick+0x48>
    4670:	82 e0       	ldi	r24, 0x02	; 2
    4672:	80 93 de 0f 	sts	0x0FDE, r24	; 0x800fde <auto_lock_key_door>
    4676:	08 95       	ret
    4678:	01 96       	adiw	r24, 0x01	; 1
    467a:	90 93 15 0d 	sts	0x0D15, r25	; 0x800d15 <key_door_counter+0x1>
    467e:	80 93 14 0d 	sts	0x0D14, r24	; 0x800d14 <key_door_counter>
    4682:	81 e0       	ldi	r24, 0x01	; 1
    4684:	80 93 de 0f 	sts	0x0FDE, r24	; 0x800fde <auto_lock_key_door>
    4688:	08 95       	ret
    468a:	10 92 63 0d 	sts	0x0D63, r1	; 0x800d63 <key_door_signal>
    468e:	28 98       	cbi	0x05, 0	; 5
    4690:	10 92 de 0f 	sts	0x0FDE, r1	; 0x800fde <auto_lock_key_door>
    4694:	08 95       	ret
    4696:	10 92 de 0f 	sts	0x0FDE, r1	; 0x800fde <auto_lock_key_door>
    469a:	08 95       	ret

0000469c <AutoLockKeyDoorTask>:
    469c:	10 92 de 0f 	sts	0x0FDE, r1	; 0x800fde <auto_lock_key_door>
    46a0:	c7 df       	rcall	.-114    	; 0x4630 <AutoLockKeyDoor_Tick>
    46a2:	8a e0       	ldi	r24, 0x0A	; 10
    46a4:	90 e0       	ldi	r25, 0x00	; 0
    46a6:	30 d6       	rcall	.+3168   	; 0x5308 <vTaskDelay>
    46a8:	fb cf       	rjmp	.-10     	; 0x46a0 <AutoLockKeyDoorTask+0x4>

000046aa <AutoLockKeyDoorPulse>:
    46aa:	af 92       	push	r10
    46ac:	bf 92       	push	r11
    46ae:	cf 92       	push	r12
    46b0:	df 92       	push	r13
    46b2:	ef 92       	push	r14
    46b4:	ff 92       	push	r15
    46b6:	0f 93       	push	r16
    46b8:	a1 2c       	mov	r10, r1
    46ba:	b1 2c       	mov	r11, r1
    46bc:	c1 2c       	mov	r12, r1
    46be:	d1 2c       	mov	r13, r1
    46c0:	e1 2c       	mov	r14, r1
    46c2:	f1 2c       	mov	r15, r1
    46c4:	08 2f       	mov	r16, r24
    46c6:	20 e0       	ldi	r18, 0x00	; 0
    46c8:	30 e0       	ldi	r19, 0x00	; 0
    46ca:	45 e5       	ldi	r20, 0x55	; 85
    46cc:	50 e0       	ldi	r21, 0x00	; 0
    46ce:	6d e0       	ldi	r22, 0x0D	; 13
    46d0:	77 e0       	ldi	r23, 0x07	; 7
    46d2:	8e e4       	ldi	r24, 0x4E	; 78
    46d4:	93 e2       	ldi	r25, 0x23	; 35
    46d6:	a0 d3       	rcall	.+1856   	; 0x4e18 <xTaskGenericCreate>
    46d8:	0f 91       	pop	r16
    46da:	ff 90       	pop	r15
    46dc:	ef 90       	pop	r14
    46de:	df 90       	pop	r13
    46e0:	cf 90       	pop	r12
    46e2:	bf 90       	pop	r11
    46e4:	af 90       	pop	r10
    46e6:	08 95       	ret

000046e8 <TimeElapsed_Tick>:
}

void TimeElapsed_Tick(){
	//Actions
	switch(time_elapsed_state){
    46e8:	80 91 e8 0f 	lds	r24, 0x0FE8	; 0x800fe8 <time_elapsed_state>
    46ec:	81 30       	cpi	r24, 0x01	; 1
    46ee:	51 f4       	brne	.+20     	; 0x4704 <TimeElapsed_Tick+0x1c>
		case te_wait:
			break;
		
		case te_counter:
			++time_elapsed_counter;
    46f0:	80 91 68 0d 	lds	r24, 0x0D68	; 0x800d68 <time_elapsed_counter>
    46f4:	90 91 69 0d 	lds	r25, 0x0D69	; 0x800d69 <time_elapsed_counter+0x1>
    46f8:	01 96       	adiw	r24, 0x01	; 1
    46fa:	90 93 69 0d 	sts	0x0D69, r25	; 0x800d69 <time_elapsed_counter+0x1>
    46fe:	80 93 68 0d 	sts	0x0D68, r24	; 0x800d68 <time_elapsed_counter>
    4702:	11 c0       	rjmp	.+34     	; 0x4726 <TimeElapsed_Tick+0x3e>
		default:
			break;
	}
	
	//Transitions
	switch(time_elapsed_state){
    4704:	88 23       	and	r24, r24
    4706:	19 f0       	breq	.+6      	; 0x470e <TimeElapsed_Tick+0x26>
    4708:	81 30       	cpi	r24, 0x01	; 1
    470a:	c1 f4       	brne	.+48     	; 0x473c <TimeElapsed_Tick+0x54>
    470c:	0c c0       	rjmp	.+24     	; 0x4726 <TimeElapsed_Tick+0x3e>
		case te_wait:
			if(drink_has_been_removed){
    470e:	80 91 61 0d 	lds	r24, 0x0D61	; 0x800d61 <drink_has_been_removed>
    4712:	88 23       	and	r24, r24
    4714:	a9 f0       	breq	.+42     	; 0x4740 <TimeElapsed_Tick+0x58>
				time_elapsed_counter = 0;
    4716:	10 92 69 0d 	sts	0x0D69, r1	; 0x800d69 <time_elapsed_counter+0x1>
    471a:	10 92 68 0d 	sts	0x0D68, r1	; 0x800d68 <time_elapsed_counter>
				time_elapsed_state = te_counter;
    471e:	81 e0       	ldi	r24, 0x01	; 1
    4720:	80 93 e8 0f 	sts	0x0FE8, r24	; 0x800fe8 <time_elapsed_state>
    4724:	08 95       	ret
				time_elapsed_state = te_wait;
			}
			break;
		
		case te_counter:
			if(!drink_has_been_removed){
    4726:	80 91 61 0d 	lds	r24, 0x0D61	; 0x800d61 <drink_has_been_removed>
    472a:	81 11       	cpse	r24, r1
    472c:	03 c0       	rjmp	.+6      	; 0x4734 <TimeElapsed_Tick+0x4c>
				time_elapsed_state = te_wait;
    472e:	10 92 e8 0f 	sts	0x0FE8, r1	; 0x800fe8 <time_elapsed_state>
    4732:	08 95       	ret
			}
			
			else{
				time_elapsed_state = te_counter;
    4734:	81 e0       	ldi	r24, 0x01	; 1
    4736:	80 93 e8 0f 	sts	0x0FE8, r24	; 0x800fe8 <time_elapsed_state>
    473a:	08 95       	ret
			}
			break;
		
		default:
			time_elapsed_state = te_wait;
    473c:	10 92 e8 0f 	sts	0x0FE8, r1	; 0x800fe8 <time_elapsed_state>
    4740:	08 95       	ret

00004742 <TimeElapsedTask>:

/////// Time-elapsed since drink has been removed state machine /////
enum TimeElapsedState {te_wait, te_counter} time_elapsed_state;
	
void TimeElapsed_Init(){
	time_elapsed_state = te_wait;
    4742:	10 92 e8 0f 	sts	0x0FE8, r1	; 0x800fe8 <time_elapsed_state>
}

void TimeElapsedTask(){
	TimeElapsed_Init();
	for(;;){
		TimeElapsed_Tick();
    4746:	d0 df       	rcall	.-96     	; 0x46e8 <TimeElapsed_Tick>
		vTaskDelay(500);
    4748:	84 ef       	ldi	r24, 0xF4	; 244
    474a:	91 e0       	ldi	r25, 0x01	; 1
    474c:	dd d5       	rcall	.+3002   	; 0x5308 <vTaskDelay>
    474e:	fb cf       	rjmp	.-10     	; 0x4746 <TimeElapsedTask+0x4>

00004750 <TimeElapsedPulse>:
	}
}

void TimeElapsedPulse(unsigned portBASE_TYPE Priority){
    4750:	af 92       	push	r10
    4752:	bf 92       	push	r11
    4754:	cf 92       	push	r12
    4756:	df 92       	push	r13
    4758:	ef 92       	push	r14
    475a:	ff 92       	push	r15
    475c:	0f 93       	push	r16
	xTaskCreate(TimeElapsedTask, (signed portCHAR *)"TimeElapsedTask", configMINIMAL_STACK_SIZE, NULL, Priority, NULL );
    475e:	a1 2c       	mov	r10, r1
    4760:	b1 2c       	mov	r11, r1
    4762:	c1 2c       	mov	r12, r1
    4764:	d1 2c       	mov	r13, r1
    4766:	e1 2c       	mov	r14, r1
    4768:	f1 2c       	mov	r15, r1
    476a:	08 2f       	mov	r16, r24
    476c:	20 e0       	ldi	r18, 0x00	; 0
    476e:	30 e0       	ldi	r19, 0x00	; 0
    4770:	45 e5       	ldi	r20, 0x55	; 85
    4772:	50 e0       	ldi	r21, 0x00	; 0
    4774:	61 e2       	ldi	r22, 0x21	; 33
    4776:	77 e0       	ldi	r23, 0x07	; 7
    4778:	81 ea       	ldi	r24, 0xA1	; 161
    477a:	93 e2       	ldi	r25, 0x23	; 35
    477c:	4d d3       	rcall	.+1690   	; 0x4e18 <xTaskGenericCreate>
}
    477e:	0f 91       	pop	r16
    4780:	ff 90       	pop	r15
    4782:	ef 90       	pop	r14
    4784:	df 90       	pop	r13
    4786:	cf 90       	pop	r12
    4788:	bf 90       	pop	r11
    478a:	af 90       	pop	r10
    478c:	08 95       	ret

0000478e <main>:
	/*
	when scaling by 1: 14 chars per line, 8 pixels in height
	when scaling by 2: 8 chars per line, 14 pixels in height
	when scaling by 3: 5 chars per line, 21 pixels in height
	*/
	DDRA = 0x00;	//Controls the sensors to make sure door is locked
    478e:	11 b8       	out	0x01, r1	; 1
	PORTA = 0xFF;
    4790:	8f ef       	ldi	r24, 0xFF	; 255
    4792:	82 b9       	out	0x02, r24	; 2
	DDRB = 0x0F;	//Controls the locks [keylock = PB0, liquorlock = PB1
    4794:	2f e0       	ldi	r18, 0x0F	; 15
    4796:	24 b9       	out	0x04, r18	; 4
	PORTB = 0xF0;	//Controls the door sensors [keydoor = PB4, liquordoor PB5
    4798:	90 ef       	ldi	r25, 0xF0	; 240
    479a:	95 b9       	out	0x05, r25	; 5
	DDRC = 0x0F;	//Set PC7...PC3 to input, PC2...PC0 to output [0000 1111]
    479c:	27 b9       	out	0x07, r18	; 7
	PORTC = 0xF0;	//Init port C to 1s							  [1111 0000]
    479e:	98 b9       	out	0x08, r25	; 8
	DDRD = 0xFF;	//Set Port D to output
    47a0:	8a b9       	out	0x0a, r24	; 10
	PORTD = 0x00;	//Init Port D to 0s
    47a2:	1b b8       	out	0x0b, r1	; 11
	
	nokia_lcd_init();
    47a4:	5f d0       	rcall	.+190    	; 0x4864 <nokia_lcd_init>
	
	HX711_init(64);
    47a6:	80 e4       	ldi	r24, 0x40	; 64
    47a8:	0e 94 37 02 	call	0x46e	; 0x46e <HX711_init>
	HX711_set_offset(8406650);
    47ac:	6a e7       	ldi	r22, 0x7A	; 122
    47ae:	76 e4       	ldi	r23, 0x46	; 70
    47b0:	80 e0       	ldi	r24, 0x00	; 0
    47b2:	9b e4       	ldi	r25, 0x4B	; 75
    47b4:	0e 94 89 02 	call	0x512	; 0x512 <HX711_set_offset>
	HX711_set_scale(-163.4955075);
    47b8:	6a ed       	ldi	r22, 0xDA	; 218
    47ba:	7e e7       	ldi	r23, 0x7E	; 126
    47bc:	83 e2       	ldi	r24, 0x23	; 35
    47be:	93 ec       	ldi	r25, 0xC3	; 195
    47c0:	0e 94 80 02 	call	0x500	; 0x500 <HX711_set_scale>
	
	HX711_1_init(128);
    47c4:	80 e8       	ldi	r24, 0x80	; 128
    47c6:	0e 94 d7 02 	call	0x5ae	; 0x5ae <HX711_1_init>
	HX711_1_set_offset(8409384);
    47ca:	68 e2       	ldi	r22, 0x28	; 40
    47cc:	71 e5       	ldi	r23, 0x51	; 81
    47ce:	80 e0       	ldi	r24, 0x00	; 0
    47d0:	9b e4       	ldi	r25, 0x4B	; 75
    47d2:	0e 94 29 03 	call	0x652	; 0x652 <HX711_1_set_offset>
	HX711_1_set_scale(-946.4825995);
    47d6:	63 ee       	ldi	r22, 0xE3	; 227
    47d8:	7e e9       	ldi	r23, 0x9E	; 158
    47da:	8c e6       	ldi	r24, 0x6C	; 108
    47dc:	94 ec       	ldi	r25, 0xC4	; 196
    47de:	0e 94 20 03 	call	0x640	; 0x640 <HX711_1_set_scale>

	PORTB = SetBit(PORTB,2,1);
    47e2:	2a 9a       	sbi	0x05, 2	; 5
	
    //Start Tasks  
    MainMenuPulse(1);
    47e4:	81 e0       	ldi	r24, 0x01	; 1
    47e6:	0e 94 b7 08 	call	0x116e	; 0x116e <MainMenuPulse>
	AddUserPulse(1);
    47ea:	81 e0       	ldi	r24, 0x01	; 1
    47ec:	0e 94 e3 0f 	call	0x1fc6	; 0x1fc6 <AddUserPulse>
	RemoveUsersPulse(1);
    47f0:	81 e0       	ldi	r24, 0x01	; 1
    47f2:	0e 94 e3 13 	call	0x27c6	; 0x27c6 <RemoveUsersPulse>
	AddDrinkPulse(1);
    47f6:	81 e0       	ldi	r24, 0x01	; 1
    47f8:	0e 94 8e 1a 	call	0x351c	; 0x351c <AddDrinkPulse>
	ReplaceDrinkPulse(1);
    47fc:	81 e0       	ldi	r24, 0x01	; 1
    47fe:	0e 94 53 1b 	call	0x36a6	; 0x36a6 <ReplaceDrinkPulse>
	UserVerifyPulse(1);
    4802:	81 e0       	ldi	r24, 0x01	; 1
    4804:	6c d9       	rcall	.-3368   	; 0x3ade <UserVerifyPulse>
	GetDrinkPulse(1);
    4806:	81 e0       	ldi	r24, 0x01	; 1
    4808:	61 db       	rcall	.-2366   	; 0x3ecc <GetDrinkPulse>
	GetKeyPulse(1);
    480a:	81 e0       	ldi	r24, 0x01	; 1
    480c:	96 de       	rcall	.-724    	; 0x453a <GetKeyPulse>
	AutoLockLiquorDoorPulse(1);
    480e:	81 e0       	ldi	r24, 0x01	; 1
    4810:	f0 de       	rcall	.-544    	; 0x45f2 <AutoLockLiquorDoorPulse>
	AutoLockKeyDoorPulse(1);
    4812:	81 e0       	ldi	r24, 0x01	; 1
    4814:	4a df       	rcall	.-364    	; 0x46aa <AutoLockKeyDoorPulse>
    4816:	81 e0       	ldi	r24, 0x01	; 1
	TimeElapsedPulse(1);
    4818:	9b df       	rcall	.-202    	; 0x4750 <TimeElapsedPulse>
    481a:	ff d3       	rcall	.+2046   	; 0x501a <vTaskStartScheduler>
    481c:	80 e0       	ldi	r24, 0x00	; 0
	
    //RunSchedular 
    vTaskStartScheduler(); 
    481e:	90 e0       	ldi	r25, 0x00	; 0
    4820:	08 95       	ret

00004822 <write>:
	return 0; 
    4822:	59 98       	cbi	0x0b, 1	; 11
    4824:	66 23       	and	r22, r22
    4826:	11 f0       	breq	.+4      	; 0x482c <write+0xa>
		nokia_lcd.screen[i] = 0x00;
}

void nokia_lcd_power(uint8_t on)
{
	write_cmd(on ? 0x20 : 0x24);
    4828:	5b 9a       	sbi	0x0b, 3	; 11
    482a:	15 c0       	rjmp	.+42     	; 0x4856 <write+0x34>
    482c:	5b 98       	cbi	0x0b, 3	; 11
    482e:	13 c0       	rjmp	.+38     	; 0x4856 <write+0x34>
    4830:	ac 01       	movw	r20, r24
    4832:	02 2e       	mov	r0, r18
    4834:	02 c0       	rjmp	.+4      	; 0x483a <write+0x18>
    4836:	55 95       	asr	r21
    4838:	47 95       	ror	r20
    483a:	0a 94       	dec	r0
    483c:	e2 f7       	brpl	.-8      	; 0x4836 <write+0x14>
    483e:	40 ff       	sbrs	r20, 0
    4840:	02 c0       	rjmp	.+4      	; 0x4846 <write+0x24>
    4842:	5c 9a       	sbi	0x0b, 4	; 11
    4844:	01 c0       	rjmp	.+2      	; 0x4848 <write+0x26>
    4846:	5c 98       	cbi	0x0b, 4	; 11
    4848:	5d 9a       	sbi	0x0b, 5	; 11
    484a:	5d 98       	cbi	0x0b, 5	; 11
    484c:	21 50       	subi	r18, 0x01	; 1
    484e:	31 09       	sbc	r19, r1
    4850:	78 f7       	brcc	.-34     	; 0x4830 <write+0xe>
    4852:	59 9a       	sbi	0x0b, 1	; 11
    4854:	08 95       	ret
    4856:	27 e0       	ldi	r18, 0x07	; 7
    4858:	30 e0       	ldi	r19, 0x00	; 0
    485a:	90 e0       	ldi	r25, 0x00	; 0
    485c:	e9 cf       	rjmp	.-46     	; 0x4830 <write+0xe>

0000485e <write_cmd>:
    485e:	60 e0       	ldi	r22, 0x00	; 0
    4860:	e0 cf       	rjmp	.-64     	; 0x4822 <write>
    4862:	08 95       	ret

00004864 <nokia_lcd_init>:
    4864:	cf 93       	push	r28
    4866:	df 93       	push	r29
    4868:	51 9a       	sbi	0x0a, 1	; 10
    486a:	52 9a       	sbi	0x0a, 2	; 10
    486c:	53 9a       	sbi	0x0a, 3	; 10
    486e:	54 9a       	sbi	0x0a, 4	; 10
    4870:	55 9a       	sbi	0x0a, 5	; 10
    4872:	5a 9a       	sbi	0x0b, 2	; 11
    4874:	59 9a       	sbi	0x0b, 1	; 11
    4876:	83 ec       	ldi	r24, 0xC3	; 195
    4878:	99 e0       	ldi	r25, 0x09	; 9
    487a:	01 97       	sbiw	r24, 0x01	; 1
    487c:	f1 f7       	brne	.-4      	; 0x487a <nokia_lcd_init+0x16>
    487e:	00 c0       	rjmp	.+0      	; 0x4880 <nokia_lcd_init+0x1c>
    4880:	00 00       	nop
    4882:	5a 98       	cbi	0x0b, 2	; 11
    4884:	8b e5       	ldi	r24, 0x5B	; 91
    4886:	94 e4       	ldi	r25, 0x44	; 68
    4888:	01 97       	sbiw	r24, 0x01	; 1
    488a:	f1 f7       	brne	.-4      	; 0x4888 <nokia_lcd_init+0x24>
    488c:	00 c0       	rjmp	.+0      	; 0x488e <nokia_lcd_init+0x2a>
    488e:	00 00       	nop
    4890:	5a 9a       	sbi	0x0b, 2	; 11
    4892:	59 98       	cbi	0x0b, 1	; 11
    4894:	81 e2       	ldi	r24, 0x21	; 33
    4896:	e3 df       	rcall	.-58     	; 0x485e <write_cmd>
    4898:	83 e1       	ldi	r24, 0x13	; 19
    489a:	e1 df       	rcall	.-62     	; 0x485e <write_cmd>
    489c:	86 e0       	ldi	r24, 0x06	; 6
    489e:	df df       	rcall	.-66     	; 0x485e <write_cmd>
    48a0:	82 ec       	ldi	r24, 0xC2	; 194
    48a2:	dd df       	rcall	.-70     	; 0x485e <write_cmd>
    48a4:	80 e2       	ldi	r24, 0x20	; 32
    48a6:	db df       	rcall	.-74     	; 0x485e <write_cmd>
    48a8:	89 e0       	ldi	r24, 0x09	; 9
    48aa:	d9 df       	rcall	.-78     	; 0x485e <write_cmd>
    48ac:	80 e8       	ldi	r24, 0x80	; 128
    48ae:	d7 df       	rcall	.-82     	; 0x485e <write_cmd>
    48b0:	80 e4       	ldi	r24, 0x40	; 64
    48b2:	d5 df       	rcall	.-86     	; 0x485e <write_cmd>
    48b4:	c8 ef       	ldi	r28, 0xF8	; 248
    48b6:	d1 e0       	ldi	r29, 0x01	; 1
    48b8:	61 e0       	ldi	r22, 0x01	; 1
    48ba:	80 e0       	ldi	r24, 0x00	; 0
    48bc:	b2 df       	rcall	.-156    	; 0x4822 <write>
    48be:	21 97       	sbiw	r28, 0x01	; 1
    48c0:	d9 f7       	brne	.-10     	; 0x48b8 <nokia_lcd_init+0x54>
    48c2:	88 e0       	ldi	r24, 0x08	; 8
    48c4:	cc df       	rcall	.-104    	; 0x485e <write_cmd>
    48c6:	8c e0       	ldi	r24, 0x0C	; 12
    48c8:	ca df       	rcall	.-108    	; 0x485e <write_cmd>
    48ca:	df 91       	pop	r29
    48cc:	cf 91       	pop	r28
    48ce:	08 95       	ret

000048d0 <nokia_lcd_clear>:
    48d0:	80 e8       	ldi	r24, 0x80	; 128
    48d2:	c5 df       	rcall	.-118    	; 0x485e <write_cmd>
    48d4:	80 e4       	ldi	r24, 0x40	; 64
    48d6:	c3 df       	rcall	.-122    	; 0x485e <write_cmd>
    48d8:	10 92 6f 0f 	sts	0x0F6F, r1	; 0x800f6f <nokia_lcd+0x1f8>
    48dc:	10 92 70 0f 	sts	0x0F70, r1	; 0x800f70 <nokia_lcd+0x1f9>
    48e0:	e7 e7       	ldi	r30, 0x77	; 119
    48e2:	fd e0       	ldi	r31, 0x0D	; 13
    48e4:	8f e6       	ldi	r24, 0x6F	; 111
    48e6:	9f e0       	ldi	r25, 0x0F	; 15
    48e8:	11 92       	st	Z+, r1
    48ea:	e8 17       	cp	r30, r24
    48ec:	f9 07       	cpc	r31, r25
    48ee:	e1 f7       	brne	.-8      	; 0x48e8 <nokia_lcd_clear+0x18>
    48f0:	08 95       	ret

000048f2 <nokia_lcd_set_pixel>:
}

void nokia_lcd_set_pixel(uint8_t x, uint8_t y, uint8_t value)
{
	uint8_t *byte = &nokia_lcd.screen[y/8*84+x];
    48f2:	26 2f       	mov	r18, r22
    48f4:	26 95       	lsr	r18
    48f6:	26 95       	lsr	r18
    48f8:	26 95       	lsr	r18
    48fa:	90 e0       	ldi	r25, 0x00	; 0
    48fc:	34 e5       	ldi	r19, 0x54	; 84
    48fe:	23 9f       	mul	r18, r19
    4900:	80 0d       	add	r24, r0
    4902:	91 1d       	adc	r25, r1
    4904:	11 24       	eor	r1, r1
	if (value)
    4906:	44 23       	and	r20, r20
    4908:	79 f0       	breq	.+30     	; 0x4928 <nokia_lcd_set_pixel+0x36>
		*byte |= (1 << (y % 8));
    490a:	fc 01       	movw	r30, r24
    490c:	e9 58       	subi	r30, 0x89	; 137
    490e:	f2 4f       	sbci	r31, 0xF2	; 242
    4910:	67 70       	andi	r22, 0x07	; 7
    4912:	81 e0       	ldi	r24, 0x01	; 1
    4914:	90 e0       	ldi	r25, 0x00	; 0
    4916:	02 c0       	rjmp	.+4      	; 0x491c <nokia_lcd_set_pixel+0x2a>
    4918:	88 0f       	add	r24, r24
    491a:	99 1f       	adc	r25, r25
    491c:	6a 95       	dec	r22
    491e:	e2 f7       	brpl	.-8      	; 0x4918 <nokia_lcd_set_pixel+0x26>
    4920:	90 81       	ld	r25, Z
    4922:	89 2b       	or	r24, r25
    4924:	80 83       	st	Z, r24
    4926:	08 95       	ret
	else
		*byte &= ~(1 << (y %8 ));
    4928:	fc 01       	movw	r30, r24
    492a:	e9 58       	subi	r30, 0x89	; 137
    492c:	f2 4f       	sbci	r31, 0xF2	; 242
    492e:	67 70       	andi	r22, 0x07	; 7
    4930:	81 e0       	ldi	r24, 0x01	; 1
    4932:	90 e0       	ldi	r25, 0x00	; 0
    4934:	02 c0       	rjmp	.+4      	; 0x493a <nokia_lcd_set_pixel+0x48>
    4936:	88 0f       	add	r24, r24
    4938:	99 1f       	adc	r25, r25
    493a:	6a 95       	dec	r22
    493c:	e2 f7       	brpl	.-8      	; 0x4936 <nokia_lcd_set_pixel+0x44>
    493e:	80 95       	com	r24
    4940:	90 81       	ld	r25, Z
    4942:	89 23       	and	r24, r25
    4944:	80 83       	st	Z, r24
    4946:	08 95       	ret

00004948 <nokia_lcd_write_char>:
}

void nokia_lcd_write_char(char code, uint8_t scale)
{
    4948:	5f 92       	push	r5
    494a:	6f 92       	push	r6
    494c:	7f 92       	push	r7
    494e:	8f 92       	push	r8
    4950:	9f 92       	push	r9
    4952:	af 92       	push	r10
    4954:	bf 92       	push	r11
    4956:	cf 92       	push	r12
    4958:	df 92       	push	r13
    495a:	ef 92       	push	r14
    495c:	ff 92       	push	r15
    495e:	0f 93       	push	r16
    4960:	1f 93       	push	r17
    4962:	cf 93       	push	r28
    4964:	df 93       	push	r29
    4966:	56 2e       	mov	r5, r22
	register uint8_t x, y;

	for (x = 0; x < 5*scale; x++)
    4968:	26 2f       	mov	r18, r22
    496a:	30 e0       	ldi	r19, 0x00	; 0
    496c:	49 01       	movw	r8, r18
    496e:	88 0c       	add	r8, r8
    4970:	99 1c       	adc	r9, r9
    4972:	88 0c       	add	r8, r8
    4974:	99 1c       	adc	r9, r9
    4976:	82 0e       	add	r8, r18
    4978:	93 1e       	adc	r9, r19
    497a:	18 14       	cp	r1, r8
    497c:	19 04       	cpc	r1, r9
    497e:	0c f0       	brlt	.+2      	; 0x4982 <nokia_lcd_write_char+0x3a>
    4980:	59 c0       	rjmp	.+178    	; 0x4a34 <nokia_lcd_write_char+0xec>
		for (y = 0; y < 7*scale; y++)
    4982:	89 01       	movw	r16, r18
    4984:	00 0f       	add	r16, r16
    4986:	11 1f       	adc	r17, r17
    4988:	00 0f       	add	r16, r16
    498a:	11 1f       	adc	r17, r17
    498c:	00 0f       	add	r16, r16
    498e:	11 1f       	adc	r17, r17
    4990:	02 1b       	sub	r16, r18
    4992:	13 0b       	sbc	r17, r19
    4994:	61 2c       	mov	r6, r1
			if (pgm_read_byte(&CHARSET[code-32][x/scale]) & (1 << y/scale))
    4996:	a8 2e       	mov	r10, r24
    4998:	b1 2c       	mov	r11, r1
    499a:	c5 01       	movw	r24, r10
    499c:	80 97       	sbiw	r24, 0x20	; 32
    499e:	5c 01       	movw	r10, r24
    49a0:	aa 0c       	add	r10, r10
    49a2:	bb 1c       	adc	r11, r11
    49a4:	aa 0c       	add	r10, r10
    49a6:	bb 1c       	adc	r11, r11
    49a8:	a8 0e       	add	r10, r24
    49aa:	b9 1e       	adc	r11, r25
				nokia_lcd_set_pixel(nokia_lcd.cursor_x + x, nokia_lcd.cursor_y + y, 1);
			else
				nokia_lcd_set_pixel(nokia_lcd.cursor_x + x, nokia_lcd.cursor_y + y, 0);
    49ac:	0f 2e       	mov	r0, r31
    49ae:	f0 e7       	ldi	r31, 0x70	; 112
    49b0:	cf 2e       	mov	r12, r31
    49b2:	ff e0       	ldi	r31, 0x0F	; 15
    49b4:	df 2e       	mov	r13, r31
    49b6:	f0 2d       	mov	r31, r0
    49b8:	0f 2e       	mov	r0, r31
    49ba:	ff e6       	ldi	r31, 0x6F	; 111
    49bc:	ef 2e       	mov	r14, r31
    49be:	ff e0       	ldi	r31, 0x0F	; 15
    49c0:	ff 2e       	mov	r15, r31
    49c2:	f0 2d       	mov	r31, r0
    49c4:	2a c0       	rjmp	.+84     	; 0x4a1a <nokia_lcd_write_char+0xd2>
{
	register uint8_t x, y;

	for (x = 0; x < 5*scale; x++)
		for (y = 0; y < 7*scale; y++)
			if (pgm_read_byte(&CHARSET[code-32][x/scale]) & (1 << y/scale))
    49c6:	fe 01       	movw	r30, r28
    49c8:	24 91       	lpm	r18, Z
    49ca:	30 e0       	ldi	r19, 0x00	; 0
    49cc:	87 2d       	mov	r24, r7
    49ce:	65 2d       	mov	r22, r5
    49d0:	73 d7       	rcall	.+3814   	; 0x58b8 <__udivmodqi4>
    49d2:	02 c0       	rjmp	.+4      	; 0x49d8 <nokia_lcd_write_char+0x90>
    49d4:	35 95       	asr	r19
    49d6:	27 95       	ror	r18
    49d8:	8a 95       	dec	r24
    49da:	e2 f7       	brpl	.-8      	; 0x49d4 <nokia_lcd_write_char+0x8c>
    49dc:	20 ff       	sbrs	r18, 0
    49de:	09 c0       	rjmp	.+18     	; 0x49f2 <nokia_lcd_write_char+0xaa>
				nokia_lcd_set_pixel(nokia_lcd.cursor_x + x, nokia_lcd.cursor_y + y, 1);
    49e0:	f6 01       	movw	r30, r12
    49e2:	60 81       	ld	r22, Z
    49e4:	67 0d       	add	r22, r7
    49e6:	f7 01       	movw	r30, r14
    49e8:	80 81       	ld	r24, Z
    49ea:	41 e0       	ldi	r20, 0x01	; 1
    49ec:	86 0d       	add	r24, r6
    49ee:	81 df       	rcall	.-254    	; 0x48f2 <nokia_lcd_set_pixel>
    49f0:	08 c0       	rjmp	.+16     	; 0x4a02 <nokia_lcd_write_char+0xba>
			else
				nokia_lcd_set_pixel(nokia_lcd.cursor_x + x, nokia_lcd.cursor_y + y, 0);
    49f2:	f6 01       	movw	r30, r12
    49f4:	60 81       	ld	r22, Z
    49f6:	67 0d       	add	r22, r7
    49f8:	f7 01       	movw	r30, r14
    49fa:	80 81       	ld	r24, Z
    49fc:	40 e0       	ldi	r20, 0x00	; 0
    49fe:	86 0d       	add	r24, r6
    4a00:	78 df       	rcall	.-272    	; 0x48f2 <nokia_lcd_set_pixel>
void nokia_lcd_write_char(char code, uint8_t scale)
{
	register uint8_t x, y;

	for (x = 0; x < 5*scale; x++)
		for (y = 0; y < 7*scale; y++)
    4a02:	73 94       	inc	r7
    4a04:	87 2d       	mov	r24, r7
    4a06:	90 e0       	ldi	r25, 0x00	; 0
    4a08:	80 17       	cp	r24, r16
    4a0a:	91 07       	cpc	r25, r17
    4a0c:	e4 f2       	brlt	.-72     	; 0x49c6 <nokia_lcd_write_char+0x7e>

void nokia_lcd_write_char(char code, uint8_t scale)
{
	register uint8_t x, y;

	for (x = 0; x < 5*scale; x++)
    4a0e:	63 94       	inc	r6
    4a10:	86 2d       	mov	r24, r6
    4a12:	90 e0       	ldi	r25, 0x00	; 0
    4a14:	88 15       	cp	r24, r8
    4a16:	99 05       	cpc	r25, r9
    4a18:	6c f4       	brge	.+26     	; 0x4a34 <nokia_lcd_write_char+0xec>
		for (y = 0; y < 7*scale; y++)
    4a1a:	10 16       	cp	r1, r16
    4a1c:	11 06       	cpc	r1, r17
			if (pgm_read_byte(&CHARSET[code-32][x/scale]) & (1 << y/scale))
    4a1e:	bc f7       	brge	.-18     	; 0x4a0e <nokia_lcd_write_char+0xc6>
    4a20:	86 2d       	mov	r24, r6
    4a22:	65 2d       	mov	r22, r5
    4a24:	49 d7       	rcall	.+3730   	; 0x58b8 <__udivmodqi4>
    4a26:	e5 01       	movw	r28, r10
    4a28:	c8 0f       	add	r28, r24
    4a2a:	d1 1d       	adc	r29, r1
    4a2c:	ce 58       	subi	r28, 0x8E	; 142
    4a2e:	de 4f       	sbci	r29, 0xFE	; 254
    4a30:	71 2c       	mov	r7, r1
    4a32:	c9 cf       	rjmp	.-110    	; 0x49c6 <nokia_lcd_write_char+0x7e>
				nokia_lcd_set_pixel(nokia_lcd.cursor_x + x, nokia_lcd.cursor_y + y, 1);
			else
				nokia_lcd_set_pixel(nokia_lcd.cursor_x + x, nokia_lcd.cursor_y + y, 0);

	nokia_lcd.cursor_x += 5*scale + 1;
    4a34:	80 91 6f 0f 	lds	r24, 0x0F6F	; 0x800f6f <nokia_lcd+0x1f8>
    4a38:	91 e0       	ldi	r25, 0x01	; 1
    4a3a:	98 0f       	add	r25, r24
    4a3c:	85 2d       	mov	r24, r5
    4a3e:	88 0f       	add	r24, r24
    4a40:	88 0f       	add	r24, r24
    4a42:	85 0d       	add	r24, r5
    4a44:	89 0f       	add	r24, r25
	if (nokia_lcd.cursor_x >= 84) {
    4a46:	84 35       	cpi	r24, 0x54	; 84
    4a48:	18 f4       	brcc	.+6      	; 0x4a50 <nokia_lcd_write_char+0x108>
			if (pgm_read_byte(&CHARSET[code-32][x/scale]) & (1 << y/scale))
				nokia_lcd_set_pixel(nokia_lcd.cursor_x + x, nokia_lcd.cursor_y + y, 1);
			else
				nokia_lcd_set_pixel(nokia_lcd.cursor_x + x, nokia_lcd.cursor_y + y, 0);

	nokia_lcd.cursor_x += 5*scale + 1;
    4a4a:	80 93 6f 0f 	sts	0x0F6F, r24	; 0x800f6f <nokia_lcd+0x1f8>
    4a4e:	0e c0       	rjmp	.+28     	; 0x4a6c <nokia_lcd_write_char+0x124>
	if (nokia_lcd.cursor_x >= 84) {
		nokia_lcd.cursor_x = 0;
    4a50:	10 92 6f 0f 	sts	0x0F6F, r1	; 0x800f6f <nokia_lcd+0x1f8>
		nokia_lcd.cursor_y += 7*scale + 1;
    4a54:	e0 e7       	ldi	r30, 0x70	; 112
    4a56:	ff e0       	ldi	r31, 0x0F	; 15
    4a58:	80 81       	ld	r24, Z
    4a5a:	91 e0       	ldi	r25, 0x01	; 1
    4a5c:	98 0f       	add	r25, r24
    4a5e:	85 2d       	mov	r24, r5
    4a60:	88 0f       	add	r24, r24
    4a62:	88 0f       	add	r24, r24
    4a64:	88 0f       	add	r24, r24
    4a66:	85 19       	sub	r24, r5
    4a68:	89 0f       	add	r24, r25
    4a6a:	80 83       	st	Z, r24
	}
	if (nokia_lcd.cursor_y >= 48) {
    4a6c:	80 91 70 0f 	lds	r24, 0x0F70	; 0x800f70 <nokia_lcd+0x1f9>
    4a70:	80 33       	cpi	r24, 0x30	; 48
    4a72:	20 f0       	brcs	.+8      	; 0x4a7c <nokia_lcd_write_char+0x134>
		nokia_lcd.cursor_x = 0;
    4a74:	10 92 6f 0f 	sts	0x0F6F, r1	; 0x800f6f <nokia_lcd+0x1f8>
		nokia_lcd.cursor_y = 0;
    4a78:	10 92 70 0f 	sts	0x0F70, r1	; 0x800f70 <nokia_lcd+0x1f9>
	}
}
    4a7c:	df 91       	pop	r29
    4a7e:	cf 91       	pop	r28
    4a80:	1f 91       	pop	r17
    4a82:	0f 91       	pop	r16
    4a84:	ff 90       	pop	r15
    4a86:	ef 90       	pop	r14
    4a88:	df 90       	pop	r13
    4a8a:	cf 90       	pop	r12
    4a8c:	bf 90       	pop	r11
    4a8e:	af 90       	pop	r10
    4a90:	9f 90       	pop	r9
    4a92:	8f 90       	pop	r8
    4a94:	7f 90       	pop	r7
    4a96:	6f 90       	pop	r6
    4a98:	5f 90       	pop	r5
    4a9a:	08 95       	ret

00004a9c <nokia_lcd_write_string>:

void nokia_lcd_write_string(const char *str, uint8_t scale)
{
    4a9c:	1f 93       	push	r17
    4a9e:	cf 93       	push	r28
    4aa0:	df 93       	push	r29
    4aa2:	ec 01       	movw	r28, r24
	while(*str)
    4aa4:	88 81       	ld	r24, Y
    4aa6:	88 23       	and	r24, r24
    4aa8:	39 f0       	breq	.+14     	; 0x4ab8 <nokia_lcd_write_string+0x1c>
    4aaa:	16 2f       	mov	r17, r22
    4aac:	21 96       	adiw	r28, 0x01	; 1
		nokia_lcd_write_char(*str++, scale);
    4aae:	61 2f       	mov	r22, r17
    4ab0:	4b df       	rcall	.-362    	; 0x4948 <nokia_lcd_write_char>
	}
}

void nokia_lcd_write_string(const char *str, uint8_t scale)
{
	while(*str)
    4ab2:	89 91       	ld	r24, Y+
    4ab4:	81 11       	cpse	r24, r1
    4ab6:	fb cf       	rjmp	.-10     	; 0x4aae <nokia_lcd_write_string+0x12>
		nokia_lcd_write_char(*str++, scale);
}
    4ab8:	df 91       	pop	r29
    4aba:	cf 91       	pop	r28
    4abc:	1f 91       	pop	r17
    4abe:	08 95       	ret

00004ac0 <nokia_lcd_set_cursor>:

void nokia_lcd_set_cursor(uint8_t x, uint8_t y)
{
	nokia_lcd.cursor_x = x;
    4ac0:	80 93 6f 0f 	sts	0x0F6F, r24	; 0x800f6f <nokia_lcd+0x1f8>
	nokia_lcd.cursor_y = y;
    4ac4:	60 93 70 0f 	sts	0x0F70, r22	; 0x800f70 <nokia_lcd+0x1f9>
    4ac8:	08 95       	ret

00004aca <nokia_lcd_render>:
}

void nokia_lcd_render(void)
{
    4aca:	0f 93       	push	r16
    4acc:	1f 93       	push	r17
    4ace:	cf 93       	push	r28
    4ad0:	df 93       	push	r29
	register unsigned i;
	/* Set column and row to 0 */
	write_cmd(0x80);
    4ad2:	80 e8       	ldi	r24, 0x80	; 128
    4ad4:	c4 de       	rcall	.-632    	; 0x485e <write_cmd>
	write_cmd(0x40);
    4ad6:	80 e4       	ldi	r24, 0x40	; 64
    4ad8:	c2 de       	rcall	.-636    	; 0x485e <write_cmd>
    4ada:	c7 e7       	ldi	r28, 0x77	; 119
    4adc:	dd e0       	ldi	r29, 0x0D	; 13
    4ade:	0f e6       	ldi	r16, 0x6F	; 111
    4ae0:	1f e0       	ldi	r17, 0x0F	; 15
	write(cmd, 0);
}

static void write_data(uint8_t data)
{
	write(data, 1);
    4ae2:	61 e0       	ldi	r22, 0x01	; 1
    4ae4:	89 91       	ld	r24, Y+
    4ae6:	9d de       	rcall	.-710    	; 0x4822 <write>
	/* Set column and row to 0 */
	write_cmd(0x80);
	write_cmd(0x40);

	/* Write screen to display */
	for (i = 0; i < 504; i++)
    4ae8:	c0 17       	cp	r28, r16
    4aea:	d1 07       	cpc	r29, r17
    4aec:	d1 f7       	brne	.-12     	; 0x4ae2 <nokia_lcd_render+0x18>
		write_data(nokia_lcd.screen[i]);
}
    4aee:	df 91       	pop	r29
    4af0:	cf 91       	pop	r28
    4af2:	1f 91       	pop	r17
    4af4:	0f 91       	pop	r16
    4af6:	08 95       	ret

00004af8 <pxPortInitialiseStack>:
	return pdTRUE;
}
/*-----------------------------------------------------------*/

void vPortEndScheduler( void )
{
    4af8:	31 e1       	ldi	r19, 0x11	; 17
    4afa:	fc 01       	movw	r30, r24
    4afc:	30 83       	st	Z, r19
    4afe:	31 97       	sbiw	r30, 0x01	; 1
    4b00:	22 e2       	ldi	r18, 0x22	; 34
    4b02:	20 83       	st	Z, r18
    4b04:	31 97       	sbiw	r30, 0x01	; 1
    4b06:	a3 e3       	ldi	r26, 0x33	; 51
    4b08:	a0 83       	st	Z, r26
    4b0a:	31 97       	sbiw	r30, 0x01	; 1
    4b0c:	60 83       	st	Z, r22
    4b0e:	31 97       	sbiw	r30, 0x01	; 1
    4b10:	70 83       	st	Z, r23
    4b12:	31 97       	sbiw	r30, 0x01	; 1
    4b14:	10 82       	st	Z, r1
    4b16:	31 97       	sbiw	r30, 0x01	; 1
    4b18:	60 e8       	ldi	r22, 0x80	; 128
    4b1a:	60 83       	st	Z, r22
    4b1c:	31 97       	sbiw	r30, 0x01	; 1
    4b1e:	10 82       	st	Z, r1
    4b20:	31 97       	sbiw	r30, 0x01	; 1
    4b22:	62 e0       	ldi	r22, 0x02	; 2
    4b24:	60 83       	st	Z, r22
    4b26:	31 97       	sbiw	r30, 0x01	; 1
    4b28:	63 e0       	ldi	r22, 0x03	; 3
    4b2a:	60 83       	st	Z, r22
    4b2c:	31 97       	sbiw	r30, 0x01	; 1
    4b2e:	64 e0       	ldi	r22, 0x04	; 4
    4b30:	60 83       	st	Z, r22
    4b32:	31 97       	sbiw	r30, 0x01	; 1
    4b34:	65 e0       	ldi	r22, 0x05	; 5
    4b36:	60 83       	st	Z, r22
    4b38:	31 97       	sbiw	r30, 0x01	; 1
    4b3a:	66 e0       	ldi	r22, 0x06	; 6
    4b3c:	60 83       	st	Z, r22
    4b3e:	31 97       	sbiw	r30, 0x01	; 1
    4b40:	67 e0       	ldi	r22, 0x07	; 7
    4b42:	60 83       	st	Z, r22
    4b44:	31 97       	sbiw	r30, 0x01	; 1
    4b46:	68 e0       	ldi	r22, 0x08	; 8
    4b48:	60 83       	st	Z, r22
    4b4a:	31 97       	sbiw	r30, 0x01	; 1
    4b4c:	69 e0       	ldi	r22, 0x09	; 9
    4b4e:	60 83       	st	Z, r22
    4b50:	31 97       	sbiw	r30, 0x01	; 1
    4b52:	60 e1       	ldi	r22, 0x10	; 16
    4b54:	60 83       	st	Z, r22
    4b56:	31 97       	sbiw	r30, 0x01	; 1
    4b58:	30 83       	st	Z, r19
    4b5a:	31 97       	sbiw	r30, 0x01	; 1
    4b5c:	32 e1       	ldi	r19, 0x12	; 18
    4b5e:	30 83       	st	Z, r19
    4b60:	31 97       	sbiw	r30, 0x01	; 1
    4b62:	33 e1       	ldi	r19, 0x13	; 19
    4b64:	30 83       	st	Z, r19
    4b66:	31 97       	sbiw	r30, 0x01	; 1
    4b68:	34 e1       	ldi	r19, 0x14	; 20
    4b6a:	30 83       	st	Z, r19
    4b6c:	31 97       	sbiw	r30, 0x01	; 1
    4b6e:	35 e1       	ldi	r19, 0x15	; 21
    4b70:	30 83       	st	Z, r19
    4b72:	31 97       	sbiw	r30, 0x01	; 1
    4b74:	36 e1       	ldi	r19, 0x16	; 22
    4b76:	30 83       	st	Z, r19
    4b78:	31 97       	sbiw	r30, 0x01	; 1
    4b7a:	37 e1       	ldi	r19, 0x17	; 23
    4b7c:	30 83       	st	Z, r19
    4b7e:	31 97       	sbiw	r30, 0x01	; 1
    4b80:	38 e1       	ldi	r19, 0x18	; 24
    4b82:	30 83       	st	Z, r19
    4b84:	31 97       	sbiw	r30, 0x01	; 1
    4b86:	39 e1       	ldi	r19, 0x19	; 25
    4b88:	30 83       	st	Z, r19
    4b8a:	31 97       	sbiw	r30, 0x01	; 1
    4b8c:	30 e2       	ldi	r19, 0x20	; 32
    4b8e:	30 83       	st	Z, r19
    4b90:	31 97       	sbiw	r30, 0x01	; 1
    4b92:	31 e2       	ldi	r19, 0x21	; 33
    4b94:	30 83       	st	Z, r19
    4b96:	31 97       	sbiw	r30, 0x01	; 1
    4b98:	20 83       	st	Z, r18
    4b9a:	31 97       	sbiw	r30, 0x01	; 1
    4b9c:	23 e2       	ldi	r18, 0x23	; 35
    4b9e:	20 83       	st	Z, r18
    4ba0:	31 97       	sbiw	r30, 0x01	; 1
    4ba2:	40 83       	st	Z, r20
    4ba4:	31 97       	sbiw	r30, 0x01	; 1
    4ba6:	50 83       	st	Z, r21
    4ba8:	31 97       	sbiw	r30, 0x01	; 1
    4baa:	26 e2       	ldi	r18, 0x26	; 38
    4bac:	20 83       	st	Z, r18
    4bae:	31 97       	sbiw	r30, 0x01	; 1
    4bb0:	27 e2       	ldi	r18, 0x27	; 39
    4bb2:	20 83       	st	Z, r18
    4bb4:	31 97       	sbiw	r30, 0x01	; 1
    4bb6:	28 e2       	ldi	r18, 0x28	; 40
    4bb8:	20 83       	st	Z, r18
    4bba:	31 97       	sbiw	r30, 0x01	; 1
    4bbc:	29 e2       	ldi	r18, 0x29	; 41
    4bbe:	20 83       	st	Z, r18
    4bc0:	31 97       	sbiw	r30, 0x01	; 1
    4bc2:	20 e3       	ldi	r18, 0x30	; 48
    4bc4:	20 83       	st	Z, r18
    4bc6:	31 97       	sbiw	r30, 0x01	; 1
    4bc8:	21 e3       	ldi	r18, 0x31	; 49
    4bca:	20 83       	st	Z, r18
    4bcc:	86 97       	sbiw	r24, 0x26	; 38
    4bce:	08 95       	ret

00004bd0 <xPortStartScheduler>:
    4bd0:	10 92 89 00 	sts	0x0089, r1	; 0x800089 <__TEXT_REGION_LENGTH__+0x7e0089>
    4bd4:	8c e7       	ldi	r24, 0x7C	; 124
    4bd6:	80 93 88 00 	sts	0x0088, r24	; 0x800088 <__TEXT_REGION_LENGTH__+0x7e0088>
    4bda:	8b e0       	ldi	r24, 0x0B	; 11
    4bdc:	80 93 81 00 	sts	0x0081, r24	; 0x800081 <__TEXT_REGION_LENGTH__+0x7e0081>
    4be0:	ef e6       	ldi	r30, 0x6F	; 111
    4be2:	f0 e0       	ldi	r31, 0x00	; 0
    4be4:	80 81       	ld	r24, Z
    4be6:	82 60       	ori	r24, 0x02	; 2
    4be8:	80 83       	st	Z, r24
    4bea:	a0 91 c9 0f 	lds	r26, 0x0FC9	; 0x800fc9 <pxCurrentTCB>
    4bee:	b0 91 ca 0f 	lds	r27, 0x0FCA	; 0x800fca <pxCurrentTCB+0x1>
    4bf2:	cd 91       	ld	r28, X+
    4bf4:	cd bf       	out	0x3d, r28	; 61
    4bf6:	dd 91       	ld	r29, X+
    4bf8:	de bf       	out	0x3e, r29	; 62
    4bfa:	ff 91       	pop	r31
    4bfc:	ef 91       	pop	r30
    4bfe:	df 91       	pop	r29
    4c00:	cf 91       	pop	r28
    4c02:	bf 91       	pop	r27
    4c04:	af 91       	pop	r26
    4c06:	9f 91       	pop	r25
    4c08:	8f 91       	pop	r24
    4c0a:	7f 91       	pop	r23
    4c0c:	6f 91       	pop	r22
    4c0e:	5f 91       	pop	r21
    4c10:	4f 91       	pop	r20
    4c12:	3f 91       	pop	r19
    4c14:	2f 91       	pop	r18
    4c16:	1f 91       	pop	r17
    4c18:	0f 91       	pop	r16
    4c1a:	ff 90       	pop	r15
    4c1c:	ef 90       	pop	r14
    4c1e:	df 90       	pop	r13
    4c20:	cf 90       	pop	r12
    4c22:	bf 90       	pop	r11
    4c24:	af 90       	pop	r10
    4c26:	9f 90       	pop	r9
    4c28:	8f 90       	pop	r8
    4c2a:	7f 90       	pop	r7
    4c2c:	6f 90       	pop	r6
    4c2e:	5f 90       	pop	r5
    4c30:	4f 90       	pop	r4
    4c32:	3f 90       	pop	r3
    4c34:	2f 90       	pop	r2
    4c36:	1f 90       	pop	r1
    4c38:	0f 90       	pop	r0
    4c3a:	0f be       	out	0x3f, r0	; 63
    4c3c:	0f 90       	pop	r0
    4c3e:	08 95       	ret
    4c40:	81 e0       	ldi	r24, 0x01	; 1
    4c42:	08 95       	ret

00004c44 <vPortYield>:
 * can use a naked attribute.
 */
void vPortYield( void ) __attribute__ ( ( naked ) );
void vPortYield( void )
{
	portSAVE_CONTEXT();
    4c44:	0f 92       	push	r0
    4c46:	0f b6       	in	r0, 0x3f	; 63
    4c48:	f8 94       	cli
    4c4a:	0f 92       	push	r0
    4c4c:	1f 92       	push	r1
    4c4e:	11 24       	eor	r1, r1
    4c50:	2f 92       	push	r2
    4c52:	3f 92       	push	r3
    4c54:	4f 92       	push	r4
    4c56:	5f 92       	push	r5
    4c58:	6f 92       	push	r6
    4c5a:	7f 92       	push	r7
    4c5c:	8f 92       	push	r8
    4c5e:	9f 92       	push	r9
    4c60:	af 92       	push	r10
    4c62:	bf 92       	push	r11
    4c64:	cf 92       	push	r12
    4c66:	df 92       	push	r13
    4c68:	ef 92       	push	r14
    4c6a:	ff 92       	push	r15
    4c6c:	0f 93       	push	r16
    4c6e:	1f 93       	push	r17
    4c70:	2f 93       	push	r18
    4c72:	3f 93       	push	r19
    4c74:	4f 93       	push	r20
    4c76:	5f 93       	push	r21
    4c78:	6f 93       	push	r22
    4c7a:	7f 93       	push	r23
    4c7c:	8f 93       	push	r24
    4c7e:	9f 93       	push	r25
    4c80:	af 93       	push	r26
    4c82:	bf 93       	push	r27
    4c84:	cf 93       	push	r28
    4c86:	df 93       	push	r29
    4c88:	ef 93       	push	r30
    4c8a:	ff 93       	push	r31
    4c8c:	a0 91 c9 0f 	lds	r26, 0x0FC9	; 0x800fc9 <pxCurrentTCB>
    4c90:	b0 91 ca 0f 	lds	r27, 0x0FCA	; 0x800fca <pxCurrentTCB+0x1>
    4c94:	0d b6       	in	r0, 0x3d	; 61
    4c96:	0d 92       	st	X+, r0
    4c98:	0e b6       	in	r0, 0x3e	; 62
    4c9a:	0d 92       	st	X+, r0
	vTaskSwitchContext();
    4c9c:	8a d3       	rcall	.+1812   	; 0x53b2 <vTaskSwitchContext>
	portRESTORE_CONTEXT();
    4c9e:	a0 91 c9 0f 	lds	r26, 0x0FC9	; 0x800fc9 <pxCurrentTCB>
    4ca2:	b0 91 ca 0f 	lds	r27, 0x0FCA	; 0x800fca <pxCurrentTCB+0x1>
    4ca6:	cd 91       	ld	r28, X+
    4ca8:	cd bf       	out	0x3d, r28	; 61
    4caa:	dd 91       	ld	r29, X+
    4cac:	de bf       	out	0x3e, r29	; 62
    4cae:	ff 91       	pop	r31
    4cb0:	ef 91       	pop	r30
    4cb2:	df 91       	pop	r29
    4cb4:	cf 91       	pop	r28
    4cb6:	bf 91       	pop	r27
    4cb8:	af 91       	pop	r26
    4cba:	9f 91       	pop	r25
    4cbc:	8f 91       	pop	r24
    4cbe:	7f 91       	pop	r23
    4cc0:	6f 91       	pop	r22
    4cc2:	5f 91       	pop	r21
    4cc4:	4f 91       	pop	r20
    4cc6:	3f 91       	pop	r19
    4cc8:	2f 91       	pop	r18
    4cca:	1f 91       	pop	r17
    4ccc:	0f 91       	pop	r16
    4cce:	ff 90       	pop	r15
    4cd0:	ef 90       	pop	r14
    4cd2:	df 90       	pop	r13
    4cd4:	cf 90       	pop	r12
    4cd6:	bf 90       	pop	r11
    4cd8:	af 90       	pop	r10
    4cda:	9f 90       	pop	r9
    4cdc:	8f 90       	pop	r8
    4cde:	7f 90       	pop	r7
    4ce0:	6f 90       	pop	r6
    4ce2:	5f 90       	pop	r5
    4ce4:	4f 90       	pop	r4
    4ce6:	3f 90       	pop	r3
    4ce8:	2f 90       	pop	r2
    4cea:	1f 90       	pop	r1
    4cec:	0f 90       	pop	r0
    4cee:	0f be       	out	0x3f, r0	; 63
    4cf0:	0f 90       	pop	r0

	asm volatile ( "ret" );
    4cf2:	08 95       	ret

00004cf4 <vPortYieldFromTick>:
 * call comes from the tick ISR.
 */
void vPortYieldFromTick( void ) __attribute__ ( ( naked ) );
void vPortYieldFromTick( void )
{
	portSAVE_CONTEXT();
    4cf4:	0f 92       	push	r0
    4cf6:	0f b6       	in	r0, 0x3f	; 63
    4cf8:	f8 94       	cli
    4cfa:	0f 92       	push	r0
    4cfc:	1f 92       	push	r1
    4cfe:	11 24       	eor	r1, r1
    4d00:	2f 92       	push	r2
    4d02:	3f 92       	push	r3
    4d04:	4f 92       	push	r4
    4d06:	5f 92       	push	r5
    4d08:	6f 92       	push	r6
    4d0a:	7f 92       	push	r7
    4d0c:	8f 92       	push	r8
    4d0e:	9f 92       	push	r9
    4d10:	af 92       	push	r10
    4d12:	bf 92       	push	r11
    4d14:	cf 92       	push	r12
    4d16:	df 92       	push	r13
    4d18:	ef 92       	push	r14
    4d1a:	ff 92       	push	r15
    4d1c:	0f 93       	push	r16
    4d1e:	1f 93       	push	r17
    4d20:	2f 93       	push	r18
    4d22:	3f 93       	push	r19
    4d24:	4f 93       	push	r20
    4d26:	5f 93       	push	r21
    4d28:	6f 93       	push	r22
    4d2a:	7f 93       	push	r23
    4d2c:	8f 93       	push	r24
    4d2e:	9f 93       	push	r25
    4d30:	af 93       	push	r26
    4d32:	bf 93       	push	r27
    4d34:	cf 93       	push	r28
    4d36:	df 93       	push	r29
    4d38:	ef 93       	push	r30
    4d3a:	ff 93       	push	r31
    4d3c:	a0 91 c9 0f 	lds	r26, 0x0FC9	; 0x800fc9 <pxCurrentTCB>
    4d40:	b0 91 ca 0f 	lds	r27, 0x0FCA	; 0x800fca <pxCurrentTCB+0x1>
    4d44:	0d b6       	in	r0, 0x3d	; 61
    4d46:	0d 92       	st	X+, r0
    4d48:	0e b6       	in	r0, 0x3e	; 62
    4d4a:	0d 92       	st	X+, r0
	vTaskIncrementTick();
    4d4c:	95 d1       	rcall	.+810    	; 0x5078 <vTaskIncrementTick>
	vTaskSwitchContext();
    4d4e:	31 d3       	rcall	.+1634   	; 0x53b2 <vTaskSwitchContext>
    4d50:	a0 91 c9 0f 	lds	r26, 0x0FC9	; 0x800fc9 <pxCurrentTCB>
	portRESTORE_CONTEXT();
    4d54:	b0 91 ca 0f 	lds	r27, 0x0FCA	; 0x800fca <pxCurrentTCB+0x1>
    4d58:	cd 91       	ld	r28, X+
    4d5a:	cd bf       	out	0x3d, r28	; 61
    4d5c:	dd 91       	ld	r29, X+
    4d5e:	de bf       	out	0x3e, r29	; 62
    4d60:	ff 91       	pop	r31
    4d62:	ef 91       	pop	r30
    4d64:	df 91       	pop	r29
    4d66:	cf 91       	pop	r28
    4d68:	bf 91       	pop	r27
    4d6a:	af 91       	pop	r26
    4d6c:	9f 91       	pop	r25
    4d6e:	8f 91       	pop	r24
    4d70:	7f 91       	pop	r23
    4d72:	6f 91       	pop	r22
    4d74:	5f 91       	pop	r21
    4d76:	4f 91       	pop	r20
    4d78:	3f 91       	pop	r19
    4d7a:	2f 91       	pop	r18
    4d7c:	1f 91       	pop	r17
    4d7e:	0f 91       	pop	r16
    4d80:	ff 90       	pop	r15
    4d82:	ef 90       	pop	r14
    4d84:	df 90       	pop	r13
    4d86:	cf 90       	pop	r12
    4d88:	bf 90       	pop	r11
    4d8a:	af 90       	pop	r10
    4d8c:	9f 90       	pop	r9
    4d8e:	8f 90       	pop	r8
    4d90:	7f 90       	pop	r7
    4d92:	6f 90       	pop	r6
    4d94:	5f 90       	pop	r5
    4d96:	4f 90       	pop	r4
    4d98:	3f 90       	pop	r3
    4d9a:	2f 90       	pop	r2
    4d9c:	1f 90       	pop	r1
    4d9e:	0f 90       	pop	r0
    4da0:	0f be       	out	0x3f, r0	; 63
    4da2:	0f 90       	pop	r0
    4da4:	08 95       	ret

00004da6 <__vector_13>:

	asm volatile ( "ret" );
    4da6:	a6 df       	rcall	.-180    	; 0x4cf4 <vPortYieldFromTick>
	 */
	void TIMER1_COMPA_vect( void ) __attribute__ ( ( signal, naked ) );
	void TIMER1_COMPA_vect( void )
	{
		vPortYieldFromTick();
		asm volatile ( "reti" );
    4da8:	18 95       	reti

00004daa <prvAddCurrentTaskToDelayedList>:
		have put ourselves to sleep. */
		if( xAlreadyYielded == pdFALSE )
		{
			portYIELD_WITHIN_API();
		}
	}
    4daa:	cf 93       	push	r28
    4dac:	df 93       	push	r29
    4dae:	ec 01       	movw	r28, r24
    4db0:	e0 91 c9 0f 	lds	r30, 0x0FC9	; 0x800fc9 <pxCurrentTCB>
    4db4:	f0 91 ca 0f 	lds	r31, 0x0FCA	; 0x800fca <pxCurrentTCB+0x1>
    4db8:	93 83       	std	Z+3, r25	; 0x03
    4dba:	82 83       	std	Z+2, r24	; 0x02
    4dbc:	80 91 79 0f 	lds	r24, 0x0F79	; 0x800f79 <xTickCount>
    4dc0:	90 91 7a 0f 	lds	r25, 0x0F7A	; 0x800f7a <xTickCount+0x1>
    4dc4:	c8 17       	cp	r28, r24
    4dc6:	d9 07       	cpc	r29, r25
    4dc8:	68 f4       	brcc	.+26     	; 0x4de4 <prvAddCurrentTaskToDelayedList+0x3a>
    4dca:	60 91 c9 0f 	lds	r22, 0x0FC9	; 0x800fc9 <pxCurrentTCB>
    4dce:	70 91 ca 0f 	lds	r23, 0x0FCA	; 0x800fca <pxCurrentTCB+0x1>
    4dd2:	80 91 8f 0f 	lds	r24, 0x0F8F	; 0x800f8f <pxOverflowDelayedTaskList>
    4dd6:	90 91 90 0f 	lds	r25, 0x0F90	; 0x800f90 <pxOverflowDelayedTaskList+0x1>
    4dda:	6e 5f       	subi	r22, 0xFE	; 254
    4ddc:	7f 4f       	sbci	r23, 0xFF	; 255
    4dde:	0e 94 6b 03 	call	0x6d6	; 0x6d6 <vListInsert>
    4de2:	17 c0       	rjmp	.+46     	; 0x4e12 <prvAddCurrentTaskToDelayedList+0x68>
    4de4:	60 91 c9 0f 	lds	r22, 0x0FC9	; 0x800fc9 <pxCurrentTCB>
    4de8:	70 91 ca 0f 	lds	r23, 0x0FCA	; 0x800fca <pxCurrentTCB+0x1>
    4dec:	80 91 91 0f 	lds	r24, 0x0F91	; 0x800f91 <pxDelayedTaskList>
    4df0:	90 91 92 0f 	lds	r25, 0x0F92	; 0x800f92 <pxDelayedTaskList+0x1>
    4df4:	6e 5f       	subi	r22, 0xFE	; 254
    4df6:	7f 4f       	sbci	r23, 0xFF	; 255
    4df8:	0e 94 6b 03 	call	0x6d6	; 0x6d6 <vListInsert>
    4dfc:	80 91 cf 01 	lds	r24, 0x01CF	; 0x8001cf <xNextTaskUnblockTime>
    4e00:	90 91 d0 01 	lds	r25, 0x01D0	; 0x8001d0 <xNextTaskUnblockTime+0x1>
    4e04:	c8 17       	cp	r28, r24
    4e06:	d9 07       	cpc	r29, r25
    4e08:	20 f4       	brcc	.+8      	; 0x4e12 <prvAddCurrentTaskToDelayedList+0x68>
    4e0a:	d0 93 d0 01 	sts	0x01D0, r29	; 0x8001d0 <xNextTaskUnblockTime+0x1>
    4e0e:	c0 93 cf 01 	sts	0x01CF, r28	; 0x8001cf <xNextTaskUnblockTime>
    4e12:	df 91       	pop	r29
    4e14:	cf 91       	pop	r28
    4e16:	08 95       	ret

00004e18 <xTaskGenericCreate>:
    4e18:	4f 92       	push	r4
    4e1a:	5f 92       	push	r5
    4e1c:	6f 92       	push	r6
    4e1e:	7f 92       	push	r7
    4e20:	8f 92       	push	r8
    4e22:	9f 92       	push	r9
    4e24:	af 92       	push	r10
    4e26:	bf 92       	push	r11
    4e28:	cf 92       	push	r12
    4e2a:	df 92       	push	r13
    4e2c:	ef 92       	push	r14
    4e2e:	ff 92       	push	r15
    4e30:	0f 93       	push	r16
    4e32:	1f 93       	push	r17
    4e34:	cf 93       	push	r28
    4e36:	df 93       	push	r29
    4e38:	5c 01       	movw	r10, r24
    4e3a:	4b 01       	movw	r8, r22
    4e3c:	3a 01       	movw	r6, r20
    4e3e:	29 01       	movw	r4, r18
    4e40:	81 e2       	ldi	r24, 0x21	; 33
    4e42:	90 e0       	ldi	r25, 0x00	; 0
    4e44:	0e 94 c9 01 	call	0x392	; 0x392 <pvPortMalloc>
    4e48:	ec 01       	movw	r28, r24
    4e4a:	89 2b       	or	r24, r25
    4e4c:	09 f4       	brne	.+2      	; 0x4e50 <xTaskGenericCreate+0x38>
    4e4e:	d3 c0       	rjmp	.+422    	; 0x4ff6 <xTaskGenericCreate+0x1de>
    4e50:	c1 14       	cp	r12, r1
    4e52:	d1 04       	cpc	r13, r1
    4e54:	09 f0       	breq	.+2      	; 0x4e58 <xTaskGenericCreate+0x40>
    4e56:	cb c0       	rjmp	.+406    	; 0x4fee <xTaskGenericCreate+0x1d6>
    4e58:	c3 01       	movw	r24, r6
    4e5a:	0e 94 c9 01 	call	0x392	; 0x392 <pvPortMalloc>
    4e5e:	98 8f       	std	Y+24, r25	; 0x18
    4e60:	8f 8b       	std	Y+23, r24	; 0x17
    4e62:	00 97       	sbiw	r24, 0x00	; 0
    4e64:	21 f4       	brne	.+8      	; 0x4e6e <xTaskGenericCreate+0x56>
    4e66:	ce 01       	movw	r24, r28
    4e68:	0e 94 ef 01 	call	0x3de	; 0x3de <vPortFree>
    4e6c:	c4 c0       	rjmp	.+392    	; 0x4ff6 <xTaskGenericCreate+0x1de>
    4e6e:	a3 01       	movw	r20, r6
    4e70:	65 ea       	ldi	r22, 0xA5	; 165
    4e72:	70 e0       	ldi	r23, 0x00	; 0
    4e74:	97 d5       	rcall	.+2862   	; 0x59a4 <memset>
    4e76:	93 01       	movw	r18, r6
    4e78:	21 50       	subi	r18, 0x01	; 1
    4e7a:	31 09       	sbc	r19, r1
    4e7c:	8f 89       	ldd	r24, Y+23	; 0x17
    4e7e:	98 8d       	ldd	r25, Y+24	; 0x18
    4e80:	3c 01       	movw	r6, r24
    4e82:	62 0e       	add	r6, r18
    4e84:	73 1e       	adc	r7, r19
    4e86:	48 e0       	ldi	r20, 0x08	; 8
    4e88:	50 e0       	ldi	r21, 0x00	; 0
    4e8a:	b4 01       	movw	r22, r8
    4e8c:	ce 01       	movw	r24, r28
    4e8e:	49 96       	adiw	r24, 0x19	; 25
    4e90:	90 d5       	rcall	.+2848   	; 0x59b2 <strncpy>
    4e92:	18 a2       	std	Y+32, r1	; 0x20
    4e94:	10 2f       	mov	r17, r16
    4e96:	04 30       	cpi	r16, 0x04	; 4
    4e98:	08 f0       	brcs	.+2      	; 0x4e9c <xTaskGenericCreate+0x84>
    4e9a:	13 e0       	ldi	r17, 0x03	; 3
    4e9c:	1e 8b       	std	Y+22, r17	; 0x16
    4e9e:	6e 01       	movw	r12, r28
    4ea0:	82 e0       	ldi	r24, 0x02	; 2
    4ea2:	c8 0e       	add	r12, r24
    4ea4:	d1 1c       	adc	r13, r1
    4ea6:	c6 01       	movw	r24, r12
    4ea8:	0e 94 40 03 	call	0x680	; 0x680 <vListInitialiseItem>
    4eac:	ce 01       	movw	r24, r28
    4eae:	0c 96       	adiw	r24, 0x0c	; 12
    4eb0:	0e 94 40 03 	call	0x680	; 0x680 <vListInitialiseItem>
    4eb4:	d9 87       	std	Y+9, r29	; 0x09
    4eb6:	c8 87       	std	Y+8, r28	; 0x08
    4eb8:	84 e0       	ldi	r24, 0x04	; 4
    4eba:	90 e0       	ldi	r25, 0x00	; 0
    4ebc:	81 1b       	sub	r24, r17
    4ebe:	91 09       	sbc	r25, r1
    4ec0:	9d 87       	std	Y+13, r25	; 0x0d
    4ec2:	8c 87       	std	Y+12, r24	; 0x0c
    4ec4:	db 8b       	std	Y+19, r29	; 0x13
    4ec6:	ca 8b       	std	Y+18, r28	; 0x12
    4ec8:	a2 01       	movw	r20, r4
    4eca:	b5 01       	movw	r22, r10
    4ecc:	c3 01       	movw	r24, r6
    4ece:	14 de       	rcall	.-984    	; 0x4af8 <pxPortInitialiseStack>
    4ed0:	99 83       	std	Y+1, r25	; 0x01
    4ed2:	88 83       	st	Y, r24
    4ed4:	e1 14       	cp	r14, r1
    4ed6:	f1 04       	cpc	r15, r1
    4ed8:	19 f0       	breq	.+6      	; 0x4ee0 <xTaskGenericCreate+0xc8>
    4eda:	f7 01       	movw	r30, r14
    4edc:	d1 83       	std	Z+1, r29	; 0x01
    4ede:	c0 83       	st	Z, r28
    4ee0:	0f b6       	in	r0, 0x3f	; 63
    4ee2:	f8 94       	cli
    4ee4:	0f 92       	push	r0
    4ee6:	80 91 7b 0f 	lds	r24, 0x0F7B	; 0x800f7b <uxCurrentNumberOfTasks>
    4eea:	8f 5f       	subi	r24, 0xFF	; 255
    4eec:	80 93 7b 0f 	sts	0x0F7B, r24	; 0x800f7b <uxCurrentNumberOfTasks>
    4ef0:	80 91 c9 0f 	lds	r24, 0x0FC9	; 0x800fc9 <pxCurrentTCB>
    4ef4:	90 91 ca 0f 	lds	r25, 0x0FCA	; 0x800fca <pxCurrentTCB+0x1>
    4ef8:	89 2b       	or	r24, r25
    4efa:	a9 f5       	brne	.+106    	; 0x4f66 <xTaskGenericCreate+0x14e>
    4efc:	d0 93 ca 0f 	sts	0x0FCA, r29	; 0x800fca <pxCurrentTCB+0x1>
    4f00:	c0 93 c9 0f 	sts	0x0FC9, r28	; 0x800fc9 <pxCurrentTCB>
    4f04:	80 91 7b 0f 	lds	r24, 0x0F7B	; 0x800f7b <uxCurrentNumberOfTasks>
    4f08:	81 30       	cpi	r24, 0x01	; 1
    4f0a:	e1 f5       	brne	.+120    	; 0x4f84 <xTaskGenericCreate+0x16c>
    4f0c:	85 ea       	ldi	r24, 0xA5	; 165
    4f0e:	9f e0       	ldi	r25, 0x0F	; 15
    4f10:	0e 94 32 03 	call	0x664	; 0x664 <vListInitialise>
    4f14:	8e ea       	ldi	r24, 0xAE	; 174
    4f16:	9f e0       	ldi	r25, 0x0F	; 15
    4f18:	0e 94 32 03 	call	0x664	; 0x664 <vListInitialise>
    4f1c:	87 eb       	ldi	r24, 0xB7	; 183
    4f1e:	9f e0       	ldi	r25, 0x0F	; 15
    4f20:	0e 94 32 03 	call	0x664	; 0x664 <vListInitialise>
    4f24:	80 ec       	ldi	r24, 0xC0	; 192
    4f26:	9f e0       	ldi	r25, 0x0F	; 15
    4f28:	0e 94 32 03 	call	0x664	; 0x664 <vListInitialise>
    4f2c:	8c e9       	ldi	r24, 0x9C	; 156
    4f2e:	9f e0       	ldi	r25, 0x0F	; 15
    4f30:	0e 94 32 03 	call	0x664	; 0x664 <vListInitialise>
    4f34:	83 e9       	ldi	r24, 0x93	; 147
    4f36:	9f e0       	ldi	r25, 0x0F	; 15
    4f38:	0e 94 32 03 	call	0x664	; 0x664 <vListInitialise>
    4f3c:	86 e8       	ldi	r24, 0x86	; 134
    4f3e:	9f e0       	ldi	r25, 0x0F	; 15
    4f40:	0e 94 32 03 	call	0x664	; 0x664 <vListInitialise>
    4f44:	8d e7       	ldi	r24, 0x7D	; 125
    4f46:	9f e0       	ldi	r25, 0x0F	; 15
    4f48:	0e 94 32 03 	call	0x664	; 0x664 <vListInitialise>
    4f4c:	8c e9       	ldi	r24, 0x9C	; 156
    4f4e:	9f e0       	ldi	r25, 0x0F	; 15
    4f50:	90 93 92 0f 	sts	0x0F92, r25	; 0x800f92 <pxDelayedTaskList+0x1>
    4f54:	80 93 91 0f 	sts	0x0F91, r24	; 0x800f91 <pxDelayedTaskList>
    4f58:	83 e9       	ldi	r24, 0x93	; 147
    4f5a:	9f e0       	ldi	r25, 0x0F	; 15
    4f5c:	90 93 90 0f 	sts	0x0F90, r25	; 0x800f90 <pxOverflowDelayedTaskList+0x1>
    4f60:	80 93 8f 0f 	sts	0x0F8F, r24	; 0x800f8f <pxOverflowDelayedTaskList>
    4f64:	0f c0       	rjmp	.+30     	; 0x4f84 <xTaskGenericCreate+0x16c>
    4f66:	80 91 76 0f 	lds	r24, 0x0F76	; 0x800f76 <xSchedulerRunning>
    4f6a:	81 11       	cpse	r24, r1
    4f6c:	0b c0       	rjmp	.+22     	; 0x4f84 <xTaskGenericCreate+0x16c>
    4f6e:	e0 91 c9 0f 	lds	r30, 0x0FC9	; 0x800fc9 <pxCurrentTCB>
    4f72:	f0 91 ca 0f 	lds	r31, 0x0FCA	; 0x800fca <pxCurrentTCB+0x1>
    4f76:	86 89       	ldd	r24, Z+22	; 0x16
    4f78:	08 17       	cp	r16, r24
    4f7a:	20 f0       	brcs	.+8      	; 0x4f84 <xTaskGenericCreate+0x16c>
    4f7c:	d0 93 ca 0f 	sts	0x0FCA, r29	; 0x800fca <pxCurrentTCB+0x1>
    4f80:	c0 93 c9 0f 	sts	0x0FC9, r28	; 0x800fc9 <pxCurrentTCB>
    4f84:	8e 89       	ldd	r24, Y+22	; 0x16
    4f86:	90 91 78 0f 	lds	r25, 0x0F78	; 0x800f78 <uxTopUsedPriority>
    4f8a:	98 17       	cp	r25, r24
    4f8c:	10 f4       	brcc	.+4      	; 0x4f92 <xTaskGenericCreate+0x17a>
    4f8e:	80 93 78 0f 	sts	0x0F78, r24	; 0x800f78 <uxTopUsedPriority>
    4f92:	90 91 71 0f 	lds	r25, 0x0F71	; 0x800f71 <uxTaskNumber>
    4f96:	9f 5f       	subi	r25, 0xFF	; 255
    4f98:	90 93 71 0f 	sts	0x0F71, r25	; 0x800f71 <uxTaskNumber>
    4f9c:	90 91 77 0f 	lds	r25, 0x0F77	; 0x800f77 <uxTopReadyPriority>
    4fa0:	98 17       	cp	r25, r24
    4fa2:	10 f4       	brcc	.+4      	; 0x4fa8 <xTaskGenericCreate+0x190>
    4fa4:	80 93 77 0f 	sts	0x0F77, r24	; 0x800f77 <uxTopReadyPriority>
    4fa8:	90 e0       	ldi	r25, 0x00	; 0
    4faa:	9c 01       	movw	r18, r24
    4fac:	22 0f       	add	r18, r18
    4fae:	33 1f       	adc	r19, r19
    4fb0:	22 0f       	add	r18, r18
    4fb2:	33 1f       	adc	r19, r19
    4fb4:	22 0f       	add	r18, r18
    4fb6:	33 1f       	adc	r19, r19
    4fb8:	82 0f       	add	r24, r18
    4fba:	93 1f       	adc	r25, r19
    4fbc:	b6 01       	movw	r22, r12
    4fbe:	8b 55       	subi	r24, 0x5B	; 91
    4fc0:	90 4f       	sbci	r25, 0xF0	; 240
    4fc2:	0e 94 44 03 	call	0x688	; 0x688 <vListInsertEnd>
    4fc6:	0f 90       	pop	r0
    4fc8:	0f be       	out	0x3f, r0	; 63
    4fca:	80 91 76 0f 	lds	r24, 0x0F76	; 0x800f76 <xSchedulerRunning>
    4fce:	88 23       	and	r24, r24
    4fd0:	51 f0       	breq	.+20     	; 0x4fe6 <xTaskGenericCreate+0x1ce>
    4fd2:	e0 91 c9 0f 	lds	r30, 0x0FC9	; 0x800fc9 <pxCurrentTCB>
    4fd6:	f0 91 ca 0f 	lds	r31, 0x0FCA	; 0x800fca <pxCurrentTCB+0x1>
    4fda:	86 89       	ldd	r24, Z+22	; 0x16
    4fdc:	80 17       	cp	r24, r16
    4fde:	28 f4       	brcc	.+10     	; 0x4fea <xTaskGenericCreate+0x1d2>
    4fe0:	31 de       	rcall	.-926    	; 0x4c44 <vPortYield>
    4fe2:	81 e0       	ldi	r24, 0x01	; 1
    4fe4:	09 c0       	rjmp	.+18     	; 0x4ff8 <xTaskGenericCreate+0x1e0>
    4fe6:	81 e0       	ldi	r24, 0x01	; 1
    4fe8:	07 c0       	rjmp	.+14     	; 0x4ff8 <xTaskGenericCreate+0x1e0>
    4fea:	81 e0       	ldi	r24, 0x01	; 1
    4fec:	05 c0       	rjmp	.+10     	; 0x4ff8 <xTaskGenericCreate+0x1e0>
    4fee:	d8 8e       	std	Y+24, r13	; 0x18
    4ff0:	cf 8a       	std	Y+23, r12	; 0x17
    4ff2:	c6 01       	movw	r24, r12
    4ff4:	3c cf       	rjmp	.-392    	; 0x4e6e <xTaskGenericCreate+0x56>
    4ff6:	8f ef       	ldi	r24, 0xFF	; 255
    4ff8:	df 91       	pop	r29
    4ffa:	cf 91       	pop	r28
    4ffc:	1f 91       	pop	r17
    4ffe:	0f 91       	pop	r16
    5000:	ff 90       	pop	r15
    5002:	ef 90       	pop	r14
    5004:	df 90       	pop	r13
    5006:	cf 90       	pop	r12
    5008:	bf 90       	pop	r11
    500a:	af 90       	pop	r10
    500c:	9f 90       	pop	r9
    500e:	8f 90       	pop	r8
    5010:	7f 90       	pop	r7
    5012:	6f 90       	pop	r6
    5014:	5f 90       	pop	r5
    5016:	4f 90       	pop	r4
    5018:	08 95       	ret

0000501a <vTaskStartScheduler>:
    501a:	af 92       	push	r10
    501c:	bf 92       	push	r11
    501e:	cf 92       	push	r12
    5020:	df 92       	push	r13
    5022:	ef 92       	push	r14
    5024:	ff 92       	push	r15
    5026:	0f 93       	push	r16
    5028:	a1 2c       	mov	r10, r1
    502a:	b1 2c       	mov	r11, r1
    502c:	c1 2c       	mov	r12, r1
    502e:	d1 2c       	mov	r13, r1
    5030:	e1 2c       	mov	r14, r1
    5032:	f1 2c       	mov	r15, r1
    5034:	00 e0       	ldi	r16, 0x00	; 0
    5036:	20 e0       	ldi	r18, 0x00	; 0
    5038:	30 e0       	ldi	r19, 0x00	; 0
    503a:	45 e5       	ldi	r20, 0x55	; 85
    503c:	50 e0       	ldi	r21, 0x00	; 0
    503e:	61 e3       	ldi	r22, 0x31	; 49
    5040:	77 e0       	ldi	r23, 0x07	; 7
    5042:	80 ea       	ldi	r24, 0xA0	; 160
    5044:	99 e2       	ldi	r25, 0x29	; 41
    5046:	e8 de       	rcall	.-560    	; 0x4e18 <xTaskGenericCreate>
    5048:	81 30       	cpi	r24, 0x01	; 1
    504a:	41 f4       	brne	.+16     	; 0x505c <vTaskStartScheduler+0x42>
    504c:	f8 94       	cli
    504e:	80 93 76 0f 	sts	0x0F76, r24	; 0x800f76 <xSchedulerRunning>
    5052:	10 92 7a 0f 	sts	0x0F7A, r1	; 0x800f7a <xTickCount+0x1>
    5056:	10 92 79 0f 	sts	0x0F79, r1	; 0x800f79 <xTickCount>
    505a:	ba dd       	rcall	.-1164   	; 0x4bd0 <xPortStartScheduler>
    505c:	0f 91       	pop	r16
    505e:	ff 90       	pop	r15
    5060:	ef 90       	pop	r14
    5062:	df 90       	pop	r13
    5064:	cf 90       	pop	r12
    5066:	bf 90       	pop	r11
    5068:	af 90       	pop	r10
    506a:	08 95       	ret

0000506c <vTaskSuspendAll>:
    506c:	80 91 75 0f 	lds	r24, 0x0F75	; 0x800f75 <uxSchedulerSuspended>
    5070:	8f 5f       	subi	r24, 0xFF	; 255
    5072:	80 93 75 0f 	sts	0x0F75, r24	; 0x800f75 <uxSchedulerSuspended>
    5076:	08 95       	ret

00005078 <vTaskIncrementTick>:
    5078:	0f 93       	push	r16
    507a:	1f 93       	push	r17
    507c:	cf 93       	push	r28
    507e:	df 93       	push	r29
    5080:	80 91 75 0f 	lds	r24, 0x0F75	; 0x800f75 <uxSchedulerSuspended>
    5084:	81 11       	cpse	r24, r1
    5086:	b2 c0       	rjmp	.+356    	; 0x51ec <vTaskIncrementTick+0x174>
    5088:	80 91 79 0f 	lds	r24, 0x0F79	; 0x800f79 <xTickCount>
    508c:	90 91 7a 0f 	lds	r25, 0x0F7A	; 0x800f7a <xTickCount+0x1>
    5090:	01 96       	adiw	r24, 0x01	; 1
    5092:	90 93 7a 0f 	sts	0x0F7A, r25	; 0x800f7a <xTickCount+0x1>
    5096:	80 93 79 0f 	sts	0x0F79, r24	; 0x800f79 <xTickCount>
    509a:	80 91 79 0f 	lds	r24, 0x0F79	; 0x800f79 <xTickCount>
    509e:	90 91 7a 0f 	lds	r25, 0x0F7A	; 0x800f7a <xTickCount+0x1>
    50a2:	89 2b       	or	r24, r25
    50a4:	99 f5       	brne	.+102    	; 0x510c <vTaskIncrementTick+0x94>
    50a6:	80 91 91 0f 	lds	r24, 0x0F91	; 0x800f91 <pxDelayedTaskList>
    50aa:	90 91 92 0f 	lds	r25, 0x0F92	; 0x800f92 <pxDelayedTaskList+0x1>
    50ae:	20 91 8f 0f 	lds	r18, 0x0F8F	; 0x800f8f <pxOverflowDelayedTaskList>
    50b2:	30 91 90 0f 	lds	r19, 0x0F90	; 0x800f90 <pxOverflowDelayedTaskList+0x1>
    50b6:	30 93 92 0f 	sts	0x0F92, r19	; 0x800f92 <pxDelayedTaskList+0x1>
    50ba:	20 93 91 0f 	sts	0x0F91, r18	; 0x800f91 <pxDelayedTaskList>
    50be:	90 93 90 0f 	sts	0x0F90, r25	; 0x800f90 <pxOverflowDelayedTaskList+0x1>
    50c2:	80 93 8f 0f 	sts	0x0F8F, r24	; 0x800f8f <pxOverflowDelayedTaskList>
    50c6:	80 91 72 0f 	lds	r24, 0x0F72	; 0x800f72 <xNumOfOverflows>
    50ca:	8f 5f       	subi	r24, 0xFF	; 255
    50cc:	80 93 72 0f 	sts	0x0F72, r24	; 0x800f72 <xNumOfOverflows>
    50d0:	e0 91 91 0f 	lds	r30, 0x0F91	; 0x800f91 <pxDelayedTaskList>
    50d4:	f0 91 92 0f 	lds	r31, 0x0F92	; 0x800f92 <pxDelayedTaskList+0x1>
    50d8:	80 81       	ld	r24, Z
    50da:	81 11       	cpse	r24, r1
    50dc:	07 c0       	rjmp	.+14     	; 0x50ec <vTaskIncrementTick+0x74>
    50de:	8f ef       	ldi	r24, 0xFF	; 255
    50e0:	9f ef       	ldi	r25, 0xFF	; 255
    50e2:	90 93 d0 01 	sts	0x01D0, r25	; 0x8001d0 <xNextTaskUnblockTime+0x1>
    50e6:	80 93 cf 01 	sts	0x01CF, r24	; 0x8001cf <xNextTaskUnblockTime>
    50ea:	10 c0       	rjmp	.+32     	; 0x510c <vTaskIncrementTick+0x94>
    50ec:	e0 91 91 0f 	lds	r30, 0x0F91	; 0x800f91 <pxDelayedTaskList>
    50f0:	f0 91 92 0f 	lds	r31, 0x0F92	; 0x800f92 <pxDelayedTaskList+0x1>
    50f4:	05 80       	ldd	r0, Z+5	; 0x05
    50f6:	f6 81       	ldd	r31, Z+6	; 0x06
    50f8:	e0 2d       	mov	r30, r0
    50fa:	06 80       	ldd	r0, Z+6	; 0x06
    50fc:	f7 81       	ldd	r31, Z+7	; 0x07
    50fe:	e0 2d       	mov	r30, r0
    5100:	82 81       	ldd	r24, Z+2	; 0x02
    5102:	93 81       	ldd	r25, Z+3	; 0x03
    5104:	90 93 d0 01 	sts	0x01D0, r25	; 0x8001d0 <xNextTaskUnblockTime+0x1>
    5108:	80 93 cf 01 	sts	0x01CF, r24	; 0x8001cf <xNextTaskUnblockTime>
    510c:	20 91 79 0f 	lds	r18, 0x0F79	; 0x800f79 <xTickCount>
    5110:	30 91 7a 0f 	lds	r19, 0x0F7A	; 0x800f7a <xTickCount+0x1>
    5114:	80 91 cf 01 	lds	r24, 0x01CF	; 0x8001cf <xNextTaskUnblockTime>
    5118:	90 91 d0 01 	lds	r25, 0x01D0	; 0x8001d0 <xNextTaskUnblockTime+0x1>
    511c:	28 17       	cp	r18, r24
    511e:	39 07       	cpc	r19, r25
    5120:	08 f4       	brcc	.+2      	; 0x5124 <vTaskIncrementTick+0xac>
    5122:	69 c0       	rjmp	.+210    	; 0x51f6 <vTaskIncrementTick+0x17e>
    5124:	e0 91 91 0f 	lds	r30, 0x0F91	; 0x800f91 <pxDelayedTaskList>
    5128:	f0 91 92 0f 	lds	r31, 0x0F92	; 0x800f92 <pxDelayedTaskList+0x1>
    512c:	80 81       	ld	r24, Z
    512e:	88 23       	and	r24, r24
    5130:	99 f0       	breq	.+38     	; 0x5158 <vTaskIncrementTick+0xe0>
    5132:	e0 91 91 0f 	lds	r30, 0x0F91	; 0x800f91 <pxDelayedTaskList>
    5136:	f0 91 92 0f 	lds	r31, 0x0F92	; 0x800f92 <pxDelayedTaskList+0x1>
    513a:	05 80       	ldd	r0, Z+5	; 0x05
    513c:	f6 81       	ldd	r31, Z+6	; 0x06
    513e:	e0 2d       	mov	r30, r0
    5140:	c6 81       	ldd	r28, Z+6	; 0x06
    5142:	d7 81       	ldd	r29, Z+7	; 0x07
    5144:	8a 81       	ldd	r24, Y+2	; 0x02
    5146:	9b 81       	ldd	r25, Y+3	; 0x03
    5148:	20 91 79 0f 	lds	r18, 0x0F79	; 0x800f79 <xTickCount>
    514c:	30 91 7a 0f 	lds	r19, 0x0F7A	; 0x800f7a <xTickCount+0x1>
    5150:	28 17       	cp	r18, r24
    5152:	39 07       	cpc	r19, r25
    5154:	f8 f4       	brcc	.+62     	; 0x5194 <vTaskIncrementTick+0x11c>
    5156:	19 c0       	rjmp	.+50     	; 0x518a <vTaskIncrementTick+0x112>
    5158:	8f ef       	ldi	r24, 0xFF	; 255
    515a:	9f ef       	ldi	r25, 0xFF	; 255
    515c:	90 93 d0 01 	sts	0x01D0, r25	; 0x8001d0 <xNextTaskUnblockTime+0x1>
    5160:	80 93 cf 01 	sts	0x01CF, r24	; 0x8001cf <xNextTaskUnblockTime>
    5164:	48 c0       	rjmp	.+144    	; 0x51f6 <vTaskIncrementTick+0x17e>
    5166:	e0 91 91 0f 	lds	r30, 0x0F91	; 0x800f91 <pxDelayedTaskList>
    516a:	f0 91 92 0f 	lds	r31, 0x0F92	; 0x800f92 <pxDelayedTaskList+0x1>
    516e:	05 80       	ldd	r0, Z+5	; 0x05
    5170:	f6 81       	ldd	r31, Z+6	; 0x06
    5172:	e0 2d       	mov	r30, r0
    5174:	c6 81       	ldd	r28, Z+6	; 0x06
    5176:	d7 81       	ldd	r29, Z+7	; 0x07
    5178:	8a 81       	ldd	r24, Y+2	; 0x02
    517a:	9b 81       	ldd	r25, Y+3	; 0x03
    517c:	20 91 79 0f 	lds	r18, 0x0F79	; 0x800f79 <xTickCount>
    5180:	30 91 7a 0f 	lds	r19, 0x0F7A	; 0x800f7a <xTickCount+0x1>
    5184:	28 17       	cp	r18, r24
    5186:	39 07       	cpc	r19, r25
    5188:	28 f4       	brcc	.+10     	; 0x5194 <vTaskIncrementTick+0x11c>
    518a:	90 93 d0 01 	sts	0x01D0, r25	; 0x8001d0 <xNextTaskUnblockTime+0x1>
    518e:	80 93 cf 01 	sts	0x01CF, r24	; 0x8001cf <xNextTaskUnblockTime>
    5192:	31 c0       	rjmp	.+98     	; 0x51f6 <vTaskIncrementTick+0x17e>
    5194:	8e 01       	movw	r16, r28
    5196:	0e 5f       	subi	r16, 0xFE	; 254
    5198:	1f 4f       	sbci	r17, 0xFF	; 255
    519a:	c8 01       	movw	r24, r16
    519c:	0e 94 a6 03 	call	0x74c	; 0x74c <vListRemove>
    51a0:	8c 89       	ldd	r24, Y+20	; 0x14
    51a2:	9d 89       	ldd	r25, Y+21	; 0x15
    51a4:	89 2b       	or	r24, r25
    51a6:	21 f0       	breq	.+8      	; 0x51b0 <vTaskIncrementTick+0x138>
    51a8:	ce 01       	movw	r24, r28
    51aa:	0c 96       	adiw	r24, 0x0c	; 12
    51ac:	0e 94 a6 03 	call	0x74c	; 0x74c <vListRemove>
    51b0:	8e 89       	ldd	r24, Y+22	; 0x16
    51b2:	90 91 77 0f 	lds	r25, 0x0F77	; 0x800f77 <uxTopReadyPriority>
    51b6:	98 17       	cp	r25, r24
    51b8:	10 f4       	brcc	.+4      	; 0x51be <vTaskIncrementTick+0x146>
    51ba:	80 93 77 0f 	sts	0x0F77, r24	; 0x800f77 <uxTopReadyPriority>
    51be:	90 e0       	ldi	r25, 0x00	; 0
    51c0:	9c 01       	movw	r18, r24
    51c2:	22 0f       	add	r18, r18
    51c4:	33 1f       	adc	r19, r19
    51c6:	22 0f       	add	r18, r18
    51c8:	33 1f       	adc	r19, r19
    51ca:	22 0f       	add	r18, r18
    51cc:	33 1f       	adc	r19, r19
    51ce:	82 0f       	add	r24, r18
    51d0:	93 1f       	adc	r25, r19
    51d2:	b8 01       	movw	r22, r16
    51d4:	8b 55       	subi	r24, 0x5B	; 91
    51d6:	90 4f       	sbci	r25, 0xF0	; 240
    51d8:	0e 94 44 03 	call	0x688	; 0x688 <vListInsertEnd>
    51dc:	e0 91 91 0f 	lds	r30, 0x0F91	; 0x800f91 <pxDelayedTaskList>
    51e0:	f0 91 92 0f 	lds	r31, 0x0F92	; 0x800f92 <pxDelayedTaskList+0x1>
    51e4:	80 81       	ld	r24, Z
    51e6:	81 11       	cpse	r24, r1
    51e8:	be cf       	rjmp	.-132    	; 0x5166 <vTaskIncrementTick+0xee>
    51ea:	b6 cf       	rjmp	.-148    	; 0x5158 <vTaskIncrementTick+0xe0>
    51ec:	80 91 74 0f 	lds	r24, 0x0F74	; 0x800f74 <uxMissedTicks>
    51f0:	8f 5f       	subi	r24, 0xFF	; 255
    51f2:	80 93 74 0f 	sts	0x0F74, r24	; 0x800f74 <uxMissedTicks>
    51f6:	df 91       	pop	r29
    51f8:	cf 91       	pop	r28
    51fa:	1f 91       	pop	r17
    51fc:	0f 91       	pop	r16
    51fe:	08 95       	ret

00005200 <xTaskResumeAll>:
    5200:	cf 92       	push	r12
    5202:	df 92       	push	r13
    5204:	ef 92       	push	r14
    5206:	ff 92       	push	r15
    5208:	0f 93       	push	r16
    520a:	1f 93       	push	r17
    520c:	cf 93       	push	r28
    520e:	df 93       	push	r29
    5210:	0f b6       	in	r0, 0x3f	; 63
    5212:	f8 94       	cli
    5214:	0f 92       	push	r0
    5216:	80 91 75 0f 	lds	r24, 0x0F75	; 0x800f75 <uxSchedulerSuspended>
    521a:	81 50       	subi	r24, 0x01	; 1
    521c:	80 93 75 0f 	sts	0x0F75, r24	; 0x800f75 <uxSchedulerSuspended>
    5220:	80 91 75 0f 	lds	r24, 0x0F75	; 0x800f75 <uxSchedulerSuspended>
    5224:	81 11       	cpse	r24, r1
    5226:	62 c0       	rjmp	.+196    	; 0x52ec <xTaskResumeAll+0xec>
    5228:	80 91 7b 0f 	lds	r24, 0x0F7B	; 0x800f7b <uxCurrentNumberOfTasks>
    522c:	81 11       	cpse	r24, r1
    522e:	32 c0       	rjmp	.+100    	; 0x5294 <xTaskResumeAll+0x94>
    5230:	60 c0       	rjmp	.+192    	; 0x52f2 <xTaskResumeAll+0xf2>
    5232:	d7 01       	movw	r26, r14
    5234:	15 96       	adiw	r26, 0x05	; 5
    5236:	ed 91       	ld	r30, X+
    5238:	fc 91       	ld	r31, X
    523a:	16 97       	sbiw	r26, 0x06	; 6
    523c:	c6 81       	ldd	r28, Z+6	; 0x06
    523e:	d7 81       	ldd	r29, Z+7	; 0x07
    5240:	ce 01       	movw	r24, r28
    5242:	0c 96       	adiw	r24, 0x0c	; 12
    5244:	0e 94 a6 03 	call	0x74c	; 0x74c <vListRemove>
    5248:	8e 01       	movw	r16, r28
    524a:	0e 5f       	subi	r16, 0xFE	; 254
    524c:	1f 4f       	sbci	r17, 0xFF	; 255
    524e:	c8 01       	movw	r24, r16
    5250:	0e 94 a6 03 	call	0x74c	; 0x74c <vListRemove>
    5254:	8e 89       	ldd	r24, Y+22	; 0x16
    5256:	90 91 77 0f 	lds	r25, 0x0F77	; 0x800f77 <uxTopReadyPriority>
    525a:	98 17       	cp	r25, r24
    525c:	10 f4       	brcc	.+4      	; 0x5262 <xTaskResumeAll+0x62>
    525e:	80 93 77 0f 	sts	0x0F77, r24	; 0x800f77 <uxTopReadyPriority>
    5262:	90 e0       	ldi	r25, 0x00	; 0
    5264:	9c 01       	movw	r18, r24
    5266:	22 0f       	add	r18, r18
    5268:	33 1f       	adc	r19, r19
    526a:	22 0f       	add	r18, r18
    526c:	33 1f       	adc	r19, r19
    526e:	22 0f       	add	r18, r18
    5270:	33 1f       	adc	r19, r19
    5272:	82 0f       	add	r24, r18
    5274:	93 1f       	adc	r25, r19
    5276:	b8 01       	movw	r22, r16
    5278:	8b 55       	subi	r24, 0x5B	; 91
    527a:	90 4f       	sbci	r25, 0xF0	; 240
    527c:	0e 94 44 03 	call	0x688	; 0x688 <vListInsertEnd>
    5280:	e0 91 c9 0f 	lds	r30, 0x0FC9	; 0x800fc9 <pxCurrentTCB>
    5284:	f0 91 ca 0f 	lds	r31, 0x0FCA	; 0x800fca <pxCurrentTCB+0x1>
    5288:	9e 89       	ldd	r25, Y+22	; 0x16
    528a:	86 89       	ldd	r24, Z+22	; 0x16
    528c:	98 17       	cp	r25, r24
    528e:	58 f0       	brcs	.+22     	; 0x52a6 <xTaskResumeAll+0xa6>
    5290:	dc 2c       	mov	r13, r12
    5292:	09 c0       	rjmp	.+18     	; 0x52a6 <xTaskResumeAll+0xa6>
    5294:	d1 2c       	mov	r13, r1
    5296:	0f 2e       	mov	r0, r31
    5298:	f6 e8       	ldi	r31, 0x86	; 134
    529a:	ef 2e       	mov	r14, r31
    529c:	ff e0       	ldi	r31, 0x0F	; 15
    529e:	ff 2e       	mov	r15, r31
    52a0:	f0 2d       	mov	r31, r0
    52a2:	cc 24       	eor	r12, r12
    52a4:	c3 94       	inc	r12
    52a6:	f7 01       	movw	r30, r14
    52a8:	80 81       	ld	r24, Z
    52aa:	81 11       	cpse	r24, r1
    52ac:	c2 cf       	rjmp	.-124    	; 0x5232 <xTaskResumeAll+0x32>
    52ae:	80 91 74 0f 	lds	r24, 0x0F74	; 0x800f74 <uxMissedTicks>
    52b2:	88 23       	and	r24, r24
    52b4:	79 f0       	breq	.+30     	; 0x52d4 <xTaskResumeAll+0xd4>
    52b6:	80 91 74 0f 	lds	r24, 0x0F74	; 0x800f74 <uxMissedTicks>
    52ba:	88 23       	and	r24, r24
    52bc:	91 f0       	breq	.+36     	; 0x52e2 <xTaskResumeAll+0xe2>
    52be:	dc de       	rcall	.-584    	; 0x5078 <vTaskIncrementTick>
    52c0:	80 91 74 0f 	lds	r24, 0x0F74	; 0x800f74 <uxMissedTicks>
    52c4:	81 50       	subi	r24, 0x01	; 1
    52c6:	80 93 74 0f 	sts	0x0F74, r24	; 0x800f74 <uxMissedTicks>
    52ca:	80 91 74 0f 	lds	r24, 0x0F74	; 0x800f74 <uxMissedTicks>
    52ce:	81 11       	cpse	r24, r1
    52d0:	f6 cf       	rjmp	.-20     	; 0x52be <xTaskResumeAll+0xbe>
    52d2:	07 c0       	rjmp	.+14     	; 0x52e2 <xTaskResumeAll+0xe2>
    52d4:	f1 e0       	ldi	r31, 0x01	; 1
    52d6:	df 16       	cp	r13, r31
    52d8:	21 f0       	breq	.+8      	; 0x52e2 <xTaskResumeAll+0xe2>
    52da:	80 91 73 0f 	lds	r24, 0x0F73	; 0x800f73 <xMissedYield>
    52de:	81 30       	cpi	r24, 0x01	; 1
    52e0:	39 f4       	brne	.+14     	; 0x52f0 <xTaskResumeAll+0xf0>
    52e2:	10 92 73 0f 	sts	0x0F73, r1	; 0x800f73 <xMissedYield>
    52e6:	ae dc       	rcall	.-1700   	; 0x4c44 <vPortYield>
    52e8:	81 e0       	ldi	r24, 0x01	; 1
    52ea:	03 c0       	rjmp	.+6      	; 0x52f2 <xTaskResumeAll+0xf2>
    52ec:	80 e0       	ldi	r24, 0x00	; 0
    52ee:	01 c0       	rjmp	.+2      	; 0x52f2 <xTaskResumeAll+0xf2>
    52f0:	80 e0       	ldi	r24, 0x00	; 0
    52f2:	0f 90       	pop	r0
    52f4:	0f be       	out	0x3f, r0	; 63
    52f6:	df 91       	pop	r29
    52f8:	cf 91       	pop	r28
    52fa:	1f 91       	pop	r17
    52fc:	0f 91       	pop	r16
    52fe:	ff 90       	pop	r15
    5300:	ef 90       	pop	r14
    5302:	df 90       	pop	r13
    5304:	cf 90       	pop	r12
    5306:	08 95       	ret

00005308 <vTaskDelay>:
/*-----------------------------------------------------------*/

#if ( INCLUDE_vTaskDelay == 1 )

	void vTaskDelay( portTickType xTicksToDelay )
	{
    5308:	cf 93       	push	r28
    530a:	df 93       	push	r29
    530c:	ec 01       	movw	r28, r24
	portTickType xTimeToWake;
	signed portBASE_TYPE xAlreadyYielded = pdFALSE;

		/* A delay time of zero just forces a reschedule. */
		if( xTicksToDelay > ( portTickType ) 0U )
    530e:	89 2b       	or	r24, r25
    5310:	99 f0       	breq	.+38     	; 0x5338 <vTaskDelay+0x30>
		{
			vTaskSuspendAll();
    5312:	ac de       	rcall	.-680    	; 0x506c <vTaskSuspendAll>
				This task cannot be in an event list as it is the currently
				executing task. */

				/* Calculate the time to wake - this may overflow but this is
				not a problem. */
				xTimeToWake = xTickCount + xTicksToDelay;
    5314:	80 91 79 0f 	lds	r24, 0x0F79	; 0x800f79 <xTickCount>
    5318:	90 91 7a 0f 	lds	r25, 0x0F7A	; 0x800f7a <xTickCount+0x1>
    531c:	c8 0f       	add	r28, r24
    531e:	d9 1f       	adc	r29, r25

				/* We must remove ourselves from the ready list before adding
				ourselves to the blocked list as the same list item is used for
				both lists. */
				vListRemove( ( xListItem * ) &( pxCurrentTCB->xGenericListItem ) );
    5320:	80 91 c9 0f 	lds	r24, 0x0FC9	; 0x800fc9 <pxCurrentTCB>
    5324:	90 91 ca 0f 	lds	r25, 0x0FCA	; 0x800fca <pxCurrentTCB+0x1>
    5328:	02 96       	adiw	r24, 0x02	; 2
    532a:	0e 94 a6 03 	call	0x74c	; 0x74c <vListRemove>
				prvAddCurrentTaskToDelayedList( xTimeToWake );
    532e:	ce 01       	movw	r24, r28
			}
			xAlreadyYielded = xTaskResumeAll();
    5330:	3c dd       	rcall	.-1416   	; 0x4daa <prvAddCurrentTaskToDelayedList>
		}

		/* Force a reschedule if xTaskResumeAll has not already done so, we may
		have put ourselves to sleep. */
		if( xAlreadyYielded == pdFALSE )
    5332:	66 df       	rcall	.-308    	; 0x5200 <xTaskResumeAll>
    5334:	81 11       	cpse	r24, r1
		{
			portYIELD_WITHIN_API();
    5336:	01 c0       	rjmp	.+2      	; 0x533a <vTaskDelay+0x32>
    5338:	85 dc       	rcall	.-1782   	; 0x4c44 <vPortYield>
		}
	}
    533a:	df 91       	pop	r29
    533c:	cf 91       	pop	r28
    533e:	08 95       	ret

00005340 <prvIdleTask>:
		/* ucTasksDeleted is used to prevent vTaskSuspendAll() being called
		too often in the idle task. */
		if( uxTasksDeleted > ( unsigned portBASE_TYPE ) 0U )
		{
			vTaskSuspendAll();
				xListIsEmpty = listLIST_IS_EMPTY( &xTasksWaitingTermination );
    5340:	0f 2e       	mov	r0, r31
    5342:	fd e7       	ldi	r31, 0x7D	; 125
    5344:	ef 2e       	mov	r14, r31
    5346:	ff e0       	ldi	r31, 0x0F	; 15
    5348:	ff 2e       	mov	r15, r31
    534a:	f0 2d       	mov	r31, r0

			A critical region is not required here as we are just reading from
			the list, and an occasional incorrect value will not matter.  If
			the ready list at the idle priority contains more than one task
			then a task other than the idle task is ready to execute. */
			if( listCURRENT_LIST_LENGTH( &( pxReadyTasksLists[ tskIDLE_PRIORITY ] ) ) > ( unsigned portBASE_TYPE ) 1 )
    534c:	c5 ea       	ldi	r28, 0xA5	; 165
    534e:	df e0       	ldi	r29, 0x0F	; 15
	{
		portBASE_TYPE xListIsEmpty;

		/* ucTasksDeleted is used to prevent vTaskSuspendAll() being called
		too often in the idle task. */
		if( uxTasksDeleted > ( unsigned portBASE_TYPE ) 0U )
    5350:	80 91 7c 0f 	lds	r24, 0x0F7C	; 0x800f7c <uxTasksDeleted>
    5354:	88 23       	and	r24, r24
    5356:	41 f1       	breq	.+80     	; 0x53a8 <prvIdleTask+0x68>
		{
			vTaskSuspendAll();
    5358:	89 de       	rcall	.-750    	; 0x506c <vTaskSuspendAll>
				xListIsEmpty = listLIST_IS_EMPTY( &xTasksWaitingTermination );
    535a:	d7 01       	movw	r26, r14
			xTaskResumeAll();
    535c:	1c 91       	ld	r17, X
    535e:	50 df       	rcall	.-352    	; 0x5200 <xTaskResumeAll>

			if( xListIsEmpty == pdFALSE )
    5360:	11 23       	and	r17, r17
    5362:	11 f1       	breq	.+68     	; 0x53a8 <prvIdleTask+0x68>
			{
				tskTCB *pxTCB;

				taskENTER_CRITICAL();
    5364:	0f b6       	in	r0, 0x3f	; 63
    5366:	f8 94       	cli
    5368:	0f 92       	push	r0
				{
					pxTCB = ( tskTCB * ) listGET_OWNER_OF_HEAD_ENTRY( ( ( xList * ) &xTasksWaitingTermination ) );
    536a:	d7 01       	movw	r26, r14
    536c:	15 96       	adiw	r26, 0x05	; 5
    536e:	ed 91       	ld	r30, X+
    5370:	fc 91       	ld	r31, X
    5372:	16 97       	sbiw	r26, 0x06	; 6
    5374:	06 81       	ldd	r16, Z+6	; 0x06
    5376:	17 81       	ldd	r17, Z+7	; 0x07
					vListRemove( &( pxTCB->xGenericListItem ) );
    5378:	c8 01       	movw	r24, r16
    537a:	02 96       	adiw	r24, 0x02	; 2
    537c:	0e 94 a6 03 	call	0x74c	; 0x74c <vListRemove>
					--uxCurrentNumberOfTasks;
    5380:	80 91 7b 0f 	lds	r24, 0x0F7B	; 0x800f7b <uxCurrentNumberOfTasks>
    5384:	81 50       	subi	r24, 0x01	; 1
    5386:	80 93 7b 0f 	sts	0x0F7B, r24	; 0x800f7b <uxCurrentNumberOfTasks>
					--uxTasksDeleted;
    538a:	80 91 7c 0f 	lds	r24, 0x0F7C	; 0x800f7c <uxTasksDeleted>
    538e:	81 50       	subi	r24, 0x01	; 1
    5390:	80 93 7c 0f 	sts	0x0F7C, r24	; 0x800f7c <uxTasksDeleted>
				}
				taskEXIT_CRITICAL();
    5394:	0f 90       	pop	r0
    5396:	0f be       	out	0x3f, r0	; 63
		want to allocate and clean RAM statically. */
		portCLEAN_UP_TCB( pxTCB );

		/* Free up the memory allocated by the scheduler for the task.  It is up to
		the task to free any memory allocated at the application level. */
		vPortFreeAligned( pxTCB->pxStack );
    5398:	f8 01       	movw	r30, r16
    539a:	87 89       	ldd	r24, Z+23	; 0x17
    539c:	90 8d       	ldd	r25, Z+24	; 0x18
    539e:	0e 94 ef 01 	call	0x3de	; 0x3de <vPortFree>
		vPortFree( pxTCB );
    53a2:	c8 01       	movw	r24, r16
    53a4:	0e 94 ef 01 	call	0x3de	; 0x3de <vPortFree>

			A critical region is not required here as we are just reading from
			the list, and an occasional incorrect value will not matter.  If
			the ready list at the idle priority contains more than one task
			then a task other than the idle task is ready to execute. */
			if( listCURRENT_LIST_LENGTH( &( pxReadyTasksLists[ tskIDLE_PRIORITY ] ) ) > ( unsigned portBASE_TYPE ) 1 )
    53a8:	88 81       	ld	r24, Y
    53aa:	82 30       	cpi	r24, 0x02	; 2
			{
				taskYIELD();
    53ac:	88 f2       	brcs	.-94     	; 0x5350 <prvIdleTask+0x10>
    53ae:	4a dc       	rcall	.-1900   	; 0x4c44 <vPortYield>
    53b0:	cf cf       	rjmp	.-98     	; 0x5350 <prvIdleTask+0x10>

000053b2 <vTaskSwitchContext>:
#endif
/*-----------------------------------------------------------*/

void vTaskSwitchContext( void )
{
	if( uxSchedulerSuspended != ( unsigned portBASE_TYPE ) pdFALSE )
    53b2:	80 91 75 0f 	lds	r24, 0x0F75	; 0x800f75 <uxSchedulerSuspended>
    53b6:	81 11       	cpse	r24, r1
    53b8:	13 c0       	rjmp	.+38     	; 0x53e0 <vTaskSwitchContext+0x2e>
	
		taskFIRST_CHECK_FOR_STACK_OVERFLOW();
		taskSECOND_CHECK_FOR_STACK_OVERFLOW();
	
		/* Find the highest priority queue that contains ready tasks. */
		while( listLIST_IS_EMPTY( &( pxReadyTasksLists[ uxTopReadyPriority ] ) ) )
    53ba:	80 91 77 0f 	lds	r24, 0x0F77	; 0x800f77 <uxTopReadyPriority>
    53be:	90 e0       	ldi	r25, 0x00	; 0
    53c0:	fc 01       	movw	r30, r24
    53c2:	ee 0f       	add	r30, r30
    53c4:	ff 1f       	adc	r31, r31
    53c6:	ee 0f       	add	r30, r30
    53c8:	ff 1f       	adc	r31, r31
    53ca:	ee 0f       	add	r30, r30
    53cc:	ff 1f       	adc	r31, r31
    53ce:	8e 0f       	add	r24, r30
    53d0:	9f 1f       	adc	r25, r31
    53d2:	fc 01       	movw	r30, r24
    53d4:	eb 55       	subi	r30, 0x5B	; 91
    53d6:	f0 4f       	sbci	r31, 0xF0	; 240
    53d8:	80 81       	ld	r24, Z
    53da:	88 23       	and	r24, r24
    53dc:	29 f0       	breq	.+10     	; 0x53e8 <vTaskSwitchContext+0x36>
    53de:	1b c0       	rjmp	.+54     	; 0x5416 <vTaskSwitchContext+0x64>
{
	if( uxSchedulerSuspended != ( unsigned portBASE_TYPE ) pdFALSE )
	{
		/* The scheduler is currently suspended - do not allow a context
		switch. */
		xMissedYield = pdTRUE;
    53e0:	81 e0       	ldi	r24, 0x01	; 1
    53e2:	80 93 73 0f 	sts	0x0F73, r24	; 0x800f73 <xMissedYield>
    53e6:	08 95       	ret
	
		/* Find the highest priority queue that contains ready tasks. */
		while( listLIST_IS_EMPTY( &( pxReadyTasksLists[ uxTopReadyPriority ] ) ) )
		{
			configASSERT( uxTopReadyPriority );
			--uxTopReadyPriority;
    53e8:	80 91 77 0f 	lds	r24, 0x0F77	; 0x800f77 <uxTopReadyPriority>
    53ec:	81 50       	subi	r24, 0x01	; 1
    53ee:	80 93 77 0f 	sts	0x0F77, r24	; 0x800f77 <uxTopReadyPriority>
	
		taskFIRST_CHECK_FOR_STACK_OVERFLOW();
		taskSECOND_CHECK_FOR_STACK_OVERFLOW();
	
		/* Find the highest priority queue that contains ready tasks. */
		while( listLIST_IS_EMPTY( &( pxReadyTasksLists[ uxTopReadyPriority ] ) ) )
    53f2:	80 91 77 0f 	lds	r24, 0x0F77	; 0x800f77 <uxTopReadyPriority>
    53f6:	90 e0       	ldi	r25, 0x00	; 0
    53f8:	fc 01       	movw	r30, r24
    53fa:	ee 0f       	add	r30, r30
    53fc:	ff 1f       	adc	r31, r31
    53fe:	ee 0f       	add	r30, r30
    5400:	ff 1f       	adc	r31, r31
    5402:	ee 0f       	add	r30, r30
    5404:	ff 1f       	adc	r31, r31
    5406:	8e 0f       	add	r24, r30
    5408:	9f 1f       	adc	r25, r31
    540a:	fc 01       	movw	r30, r24
    540c:	eb 55       	subi	r30, 0x5B	; 91
    540e:	f0 4f       	sbci	r31, 0xF0	; 240
    5410:	80 81       	ld	r24, Z
    5412:	88 23       	and	r24, r24
    5414:	49 f3       	breq	.-46     	; 0x53e8 <vTaskSwitchContext+0x36>
			--uxTopReadyPriority;
		}
	
		/* listGET_OWNER_OF_NEXT_ENTRY walks through the list, so the tasks of the
		same priority get an equal share of the processor time. */
		listGET_OWNER_OF_NEXT_ENTRY( pxCurrentTCB, &( pxReadyTasksLists[ uxTopReadyPriority ] ) );
    5416:	80 91 77 0f 	lds	r24, 0x0F77	; 0x800f77 <uxTopReadyPriority>
    541a:	90 e0       	ldi	r25, 0x00	; 0
    541c:	9c 01       	movw	r18, r24
    541e:	22 0f       	add	r18, r18
    5420:	33 1f       	adc	r19, r19
    5422:	22 0f       	add	r18, r18
    5424:	33 1f       	adc	r19, r19
    5426:	22 0f       	add	r18, r18
    5428:	33 1f       	adc	r19, r19
    542a:	28 0f       	add	r18, r24
    542c:	39 1f       	adc	r19, r25
    542e:	d9 01       	movw	r26, r18
    5430:	ab 55       	subi	r26, 0x5B	; 91
    5432:	b0 4f       	sbci	r27, 0xF0	; 240
    5434:	11 96       	adiw	r26, 0x01	; 1
    5436:	ed 91       	ld	r30, X+
    5438:	fc 91       	ld	r31, X
    543a:	12 97       	sbiw	r26, 0x02	; 2
    543c:	02 80       	ldd	r0, Z+2	; 0x02
    543e:	f3 81       	ldd	r31, Z+3	; 0x03
    5440:	e0 2d       	mov	r30, r0
    5442:	12 96       	adiw	r26, 0x02	; 2
    5444:	fc 93       	st	X, r31
    5446:	ee 93       	st	-X, r30
    5448:	11 97       	sbiw	r26, 0x01	; 1
    544a:	28 55       	subi	r18, 0x58	; 88
    544c:	30 4f       	sbci	r19, 0xF0	; 240
    544e:	e2 17       	cp	r30, r18
    5450:	f3 07       	cpc	r31, r19
    5452:	29 f4       	brne	.+10     	; 0x545e <vTaskSwitchContext+0xac>
    5454:	22 81       	ldd	r18, Z+2	; 0x02
    5456:	33 81       	ldd	r19, Z+3	; 0x03
    5458:	fd 01       	movw	r30, r26
    545a:	32 83       	std	Z+2, r19	; 0x02
    545c:	21 83       	std	Z+1, r18	; 0x01
    545e:	fc 01       	movw	r30, r24
    5460:	ee 0f       	add	r30, r30
    5462:	ff 1f       	adc	r31, r31
    5464:	ee 0f       	add	r30, r30
    5466:	ff 1f       	adc	r31, r31
    5468:	ee 0f       	add	r30, r30
    546a:	ff 1f       	adc	r31, r31
    546c:	8e 0f       	add	r24, r30
    546e:	9f 1f       	adc	r25, r31
    5470:	fc 01       	movw	r30, r24
    5472:	eb 55       	subi	r30, 0x5B	; 91
    5474:	f0 4f       	sbci	r31, 0xF0	; 240
    5476:	01 80       	ldd	r0, Z+1	; 0x01
    5478:	f2 81       	ldd	r31, Z+2	; 0x02
    547a:	e0 2d       	mov	r30, r0
    547c:	86 81       	ldd	r24, Z+6	; 0x06
    547e:	97 81       	ldd	r25, Z+7	; 0x07
    5480:	90 93 ca 0f 	sts	0x0FCA, r25	; 0x800fca <pxCurrentTCB+0x1>
    5484:	80 93 c9 0f 	sts	0x0FC9, r24	; 0x800fc9 <pxCurrentTCB>
    5488:	08 95       	ret

0000548a <__subsf3>:
    548a:	50 58       	subi	r21, 0x80	; 128

0000548c <__addsf3>:
    548c:	bb 27       	eor	r27, r27
    548e:	aa 27       	eor	r26, r26
    5490:	0e d0       	rcall	.+28     	; 0x54ae <__addsf3x>
    5492:	4d c1       	rjmp	.+666    	; 0x572e <__fp_round>
    5494:	3e d1       	rcall	.+636    	; 0x5712 <__fp_pscA>
    5496:	30 f0       	brcs	.+12     	; 0x54a4 <__addsf3+0x18>
    5498:	43 d1       	rcall	.+646    	; 0x5720 <__fp_pscB>
    549a:	20 f0       	brcs	.+8      	; 0x54a4 <__addsf3+0x18>
    549c:	31 f4       	brne	.+12     	; 0x54aa <__addsf3+0x1e>
    549e:	9f 3f       	cpi	r25, 0xFF	; 255
    54a0:	11 f4       	brne	.+4      	; 0x54a6 <__addsf3+0x1a>
    54a2:	1e f4       	brtc	.+6      	; 0x54aa <__addsf3+0x1e>
    54a4:	33 c1       	rjmp	.+614    	; 0x570c <__fp_nan>
    54a6:	0e f4       	brtc	.+2      	; 0x54aa <__addsf3+0x1e>
    54a8:	e0 95       	com	r30
    54aa:	e7 fb       	bst	r30, 7
    54ac:	29 c1       	rjmp	.+594    	; 0x5700 <__fp_inf>

000054ae <__addsf3x>:
    54ae:	e9 2f       	mov	r30, r25
    54b0:	4f d1       	rcall	.+670    	; 0x5750 <__fp_split3>
    54b2:	80 f3       	brcs	.-32     	; 0x5494 <__addsf3+0x8>
    54b4:	ba 17       	cp	r27, r26
    54b6:	62 07       	cpc	r22, r18
    54b8:	73 07       	cpc	r23, r19
    54ba:	84 07       	cpc	r24, r20
    54bc:	95 07       	cpc	r25, r21
    54be:	18 f0       	brcs	.+6      	; 0x54c6 <__addsf3x+0x18>
    54c0:	71 f4       	brne	.+28     	; 0x54de <__addsf3x+0x30>
    54c2:	9e f5       	brtc	.+102    	; 0x552a <__addsf3x+0x7c>
    54c4:	67 c1       	rjmp	.+718    	; 0x5794 <__fp_zero>
    54c6:	0e f4       	brtc	.+2      	; 0x54ca <__addsf3x+0x1c>
    54c8:	e0 95       	com	r30
    54ca:	0b 2e       	mov	r0, r27
    54cc:	ba 2f       	mov	r27, r26
    54ce:	a0 2d       	mov	r26, r0
    54d0:	0b 01       	movw	r0, r22
    54d2:	b9 01       	movw	r22, r18
    54d4:	90 01       	movw	r18, r0
    54d6:	0c 01       	movw	r0, r24
    54d8:	ca 01       	movw	r24, r20
    54da:	a0 01       	movw	r20, r0
    54dc:	11 24       	eor	r1, r1
    54de:	ff 27       	eor	r31, r31
    54e0:	59 1b       	sub	r21, r25
    54e2:	99 f0       	breq	.+38     	; 0x550a <__addsf3x+0x5c>
    54e4:	59 3f       	cpi	r21, 0xF9	; 249
    54e6:	50 f4       	brcc	.+20     	; 0x54fc <__addsf3x+0x4e>
    54e8:	50 3e       	cpi	r21, 0xE0	; 224
    54ea:	68 f1       	brcs	.+90     	; 0x5546 <__addsf3x+0x98>
    54ec:	1a 16       	cp	r1, r26
    54ee:	f0 40       	sbci	r31, 0x00	; 0
    54f0:	a2 2f       	mov	r26, r18
    54f2:	23 2f       	mov	r18, r19
    54f4:	34 2f       	mov	r19, r20
    54f6:	44 27       	eor	r20, r20
    54f8:	58 5f       	subi	r21, 0xF8	; 248
    54fa:	f3 cf       	rjmp	.-26     	; 0x54e2 <__addsf3x+0x34>
    54fc:	46 95       	lsr	r20
    54fe:	37 95       	ror	r19
    5500:	27 95       	ror	r18
    5502:	a7 95       	ror	r26
    5504:	f0 40       	sbci	r31, 0x00	; 0
    5506:	53 95       	inc	r21
    5508:	c9 f7       	brne	.-14     	; 0x54fc <__addsf3x+0x4e>
    550a:	7e f4       	brtc	.+30     	; 0x552a <__addsf3x+0x7c>
    550c:	1f 16       	cp	r1, r31
    550e:	ba 0b       	sbc	r27, r26
    5510:	62 0b       	sbc	r22, r18
    5512:	73 0b       	sbc	r23, r19
    5514:	84 0b       	sbc	r24, r20
    5516:	ba f0       	brmi	.+46     	; 0x5546 <__addsf3x+0x98>
    5518:	91 50       	subi	r25, 0x01	; 1
    551a:	a1 f0       	breq	.+40     	; 0x5544 <__addsf3x+0x96>
    551c:	ff 0f       	add	r31, r31
    551e:	bb 1f       	adc	r27, r27
    5520:	66 1f       	adc	r22, r22
    5522:	77 1f       	adc	r23, r23
    5524:	88 1f       	adc	r24, r24
    5526:	c2 f7       	brpl	.-16     	; 0x5518 <__addsf3x+0x6a>
    5528:	0e c0       	rjmp	.+28     	; 0x5546 <__addsf3x+0x98>
    552a:	ba 0f       	add	r27, r26
    552c:	62 1f       	adc	r22, r18
    552e:	73 1f       	adc	r23, r19
    5530:	84 1f       	adc	r24, r20
    5532:	48 f4       	brcc	.+18     	; 0x5546 <__addsf3x+0x98>
    5534:	87 95       	ror	r24
    5536:	77 95       	ror	r23
    5538:	67 95       	ror	r22
    553a:	b7 95       	ror	r27
    553c:	f7 95       	ror	r31
    553e:	9e 3f       	cpi	r25, 0xFE	; 254
    5540:	08 f0       	brcs	.+2      	; 0x5544 <__addsf3x+0x96>
    5542:	b3 cf       	rjmp	.-154    	; 0x54aa <__addsf3+0x1e>
    5544:	93 95       	inc	r25
    5546:	88 0f       	add	r24, r24
    5548:	08 f0       	brcs	.+2      	; 0x554c <__addsf3x+0x9e>
    554a:	99 27       	eor	r25, r25
    554c:	ee 0f       	add	r30, r30
    554e:	97 95       	ror	r25
    5550:	87 95       	ror	r24
    5552:	08 95       	ret

00005554 <__divsf3>:
    5554:	0c d0       	rcall	.+24     	; 0x556e <__divsf3x>
    5556:	eb c0       	rjmp	.+470    	; 0x572e <__fp_round>
    5558:	e3 d0       	rcall	.+454    	; 0x5720 <__fp_pscB>
    555a:	40 f0       	brcs	.+16     	; 0x556c <__divsf3+0x18>
    555c:	da d0       	rcall	.+436    	; 0x5712 <__fp_pscA>
    555e:	30 f0       	brcs	.+12     	; 0x556c <__divsf3+0x18>
    5560:	21 f4       	brne	.+8      	; 0x556a <__divsf3+0x16>
    5562:	5f 3f       	cpi	r21, 0xFF	; 255
    5564:	19 f0       	breq	.+6      	; 0x556c <__divsf3+0x18>
    5566:	cc c0       	rjmp	.+408    	; 0x5700 <__fp_inf>
    5568:	51 11       	cpse	r21, r1
    556a:	15 c1       	rjmp	.+554    	; 0x5796 <__fp_szero>
    556c:	cf c0       	rjmp	.+414    	; 0x570c <__fp_nan>

0000556e <__divsf3x>:
    556e:	f0 d0       	rcall	.+480    	; 0x5750 <__fp_split3>
    5570:	98 f3       	brcs	.-26     	; 0x5558 <__divsf3+0x4>

00005572 <__divsf3_pse>:
    5572:	99 23       	and	r25, r25
    5574:	c9 f3       	breq	.-14     	; 0x5568 <__divsf3+0x14>
    5576:	55 23       	and	r21, r21
    5578:	b1 f3       	breq	.-20     	; 0x5566 <__divsf3+0x12>
    557a:	95 1b       	sub	r25, r21
    557c:	55 0b       	sbc	r21, r21
    557e:	bb 27       	eor	r27, r27
    5580:	aa 27       	eor	r26, r26
    5582:	62 17       	cp	r22, r18
    5584:	73 07       	cpc	r23, r19
    5586:	84 07       	cpc	r24, r20
    5588:	38 f0       	brcs	.+14     	; 0x5598 <__divsf3_pse+0x26>
    558a:	9f 5f       	subi	r25, 0xFF	; 255
    558c:	5f 4f       	sbci	r21, 0xFF	; 255
    558e:	22 0f       	add	r18, r18
    5590:	33 1f       	adc	r19, r19
    5592:	44 1f       	adc	r20, r20
    5594:	aa 1f       	adc	r26, r26
    5596:	a9 f3       	breq	.-22     	; 0x5582 <__divsf3_pse+0x10>
    5598:	33 d0       	rcall	.+102    	; 0x5600 <__divsf3_pse+0x8e>
    559a:	0e 2e       	mov	r0, r30
    559c:	3a f0       	brmi	.+14     	; 0x55ac <__divsf3_pse+0x3a>
    559e:	e0 e8       	ldi	r30, 0x80	; 128
    55a0:	30 d0       	rcall	.+96     	; 0x5602 <__divsf3_pse+0x90>
    55a2:	91 50       	subi	r25, 0x01	; 1
    55a4:	50 40       	sbci	r21, 0x00	; 0
    55a6:	e6 95       	lsr	r30
    55a8:	00 1c       	adc	r0, r0
    55aa:	ca f7       	brpl	.-14     	; 0x559e <__divsf3_pse+0x2c>
    55ac:	29 d0       	rcall	.+82     	; 0x5600 <__divsf3_pse+0x8e>
    55ae:	fe 2f       	mov	r31, r30
    55b0:	27 d0       	rcall	.+78     	; 0x5600 <__divsf3_pse+0x8e>
    55b2:	66 0f       	add	r22, r22
    55b4:	77 1f       	adc	r23, r23
    55b6:	88 1f       	adc	r24, r24
    55b8:	bb 1f       	adc	r27, r27
    55ba:	26 17       	cp	r18, r22
    55bc:	37 07       	cpc	r19, r23
    55be:	48 07       	cpc	r20, r24
    55c0:	ab 07       	cpc	r26, r27
    55c2:	b0 e8       	ldi	r27, 0x80	; 128
    55c4:	09 f0       	breq	.+2      	; 0x55c8 <__divsf3_pse+0x56>
    55c6:	bb 0b       	sbc	r27, r27
    55c8:	80 2d       	mov	r24, r0
    55ca:	bf 01       	movw	r22, r30
    55cc:	ff 27       	eor	r31, r31
    55ce:	93 58       	subi	r25, 0x83	; 131
    55d0:	5f 4f       	sbci	r21, 0xFF	; 255
    55d2:	2a f0       	brmi	.+10     	; 0x55de <__divsf3_pse+0x6c>
    55d4:	9e 3f       	cpi	r25, 0xFE	; 254
    55d6:	51 05       	cpc	r21, r1
    55d8:	68 f0       	brcs	.+26     	; 0x55f4 <__divsf3_pse+0x82>
    55da:	92 c0       	rjmp	.+292    	; 0x5700 <__fp_inf>
    55dc:	dc c0       	rjmp	.+440    	; 0x5796 <__fp_szero>
    55de:	5f 3f       	cpi	r21, 0xFF	; 255
    55e0:	ec f3       	brlt	.-6      	; 0x55dc <__divsf3_pse+0x6a>
    55e2:	98 3e       	cpi	r25, 0xE8	; 232
    55e4:	dc f3       	brlt	.-10     	; 0x55dc <__divsf3_pse+0x6a>
    55e6:	86 95       	lsr	r24
    55e8:	77 95       	ror	r23
    55ea:	67 95       	ror	r22
    55ec:	b7 95       	ror	r27
    55ee:	f7 95       	ror	r31
    55f0:	9f 5f       	subi	r25, 0xFF	; 255
    55f2:	c9 f7       	brne	.-14     	; 0x55e6 <__divsf3_pse+0x74>
    55f4:	88 0f       	add	r24, r24
    55f6:	91 1d       	adc	r25, r1
    55f8:	96 95       	lsr	r25
    55fa:	87 95       	ror	r24
    55fc:	97 f9       	bld	r25, 7
    55fe:	08 95       	ret
    5600:	e1 e0       	ldi	r30, 0x01	; 1
    5602:	66 0f       	add	r22, r22
    5604:	77 1f       	adc	r23, r23
    5606:	88 1f       	adc	r24, r24
    5608:	bb 1f       	adc	r27, r27
    560a:	62 17       	cp	r22, r18
    560c:	73 07       	cpc	r23, r19
    560e:	84 07       	cpc	r24, r20
    5610:	ba 07       	cpc	r27, r26
    5612:	20 f0       	brcs	.+8      	; 0x561c <__divsf3_pse+0xaa>
    5614:	62 1b       	sub	r22, r18
    5616:	73 0b       	sbc	r23, r19
    5618:	84 0b       	sbc	r24, r20
    561a:	ba 0b       	sbc	r27, r26
    561c:	ee 1f       	adc	r30, r30
    561e:	88 f7       	brcc	.-30     	; 0x5602 <__divsf3_pse+0x90>
    5620:	e0 95       	com	r30
    5622:	08 95       	ret

00005624 <__fixsfsi>:
    5624:	04 d0       	rcall	.+8      	; 0x562e <__fixunssfsi>
    5626:	68 94       	set
    5628:	b1 11       	cpse	r27, r1
    562a:	b5 c0       	rjmp	.+362    	; 0x5796 <__fp_szero>
    562c:	08 95       	ret

0000562e <__fixunssfsi>:
    562e:	98 d0       	rcall	.+304    	; 0x5760 <__fp_splitA>
    5630:	88 f0       	brcs	.+34     	; 0x5654 <__fixunssfsi+0x26>
    5632:	9f 57       	subi	r25, 0x7F	; 127
    5634:	90 f0       	brcs	.+36     	; 0x565a <__fixunssfsi+0x2c>
    5636:	b9 2f       	mov	r27, r25
    5638:	99 27       	eor	r25, r25
    563a:	b7 51       	subi	r27, 0x17	; 23
    563c:	a0 f0       	brcs	.+40     	; 0x5666 <__fixunssfsi+0x38>
    563e:	d1 f0       	breq	.+52     	; 0x5674 <__fixunssfsi+0x46>
    5640:	66 0f       	add	r22, r22
    5642:	77 1f       	adc	r23, r23
    5644:	88 1f       	adc	r24, r24
    5646:	99 1f       	adc	r25, r25
    5648:	1a f0       	brmi	.+6      	; 0x5650 <__fixunssfsi+0x22>
    564a:	ba 95       	dec	r27
    564c:	c9 f7       	brne	.-14     	; 0x5640 <__fixunssfsi+0x12>
    564e:	12 c0       	rjmp	.+36     	; 0x5674 <__fixunssfsi+0x46>
    5650:	b1 30       	cpi	r27, 0x01	; 1
    5652:	81 f0       	breq	.+32     	; 0x5674 <__fixunssfsi+0x46>
    5654:	9f d0       	rcall	.+318    	; 0x5794 <__fp_zero>
    5656:	b1 e0       	ldi	r27, 0x01	; 1
    5658:	08 95       	ret
    565a:	9c c0       	rjmp	.+312    	; 0x5794 <__fp_zero>
    565c:	67 2f       	mov	r22, r23
    565e:	78 2f       	mov	r23, r24
    5660:	88 27       	eor	r24, r24
    5662:	b8 5f       	subi	r27, 0xF8	; 248
    5664:	39 f0       	breq	.+14     	; 0x5674 <__fixunssfsi+0x46>
    5666:	b9 3f       	cpi	r27, 0xF9	; 249
    5668:	cc f3       	brlt	.-14     	; 0x565c <__fixunssfsi+0x2e>
    566a:	86 95       	lsr	r24
    566c:	77 95       	ror	r23
    566e:	67 95       	ror	r22
    5670:	b3 95       	inc	r27
    5672:	d9 f7       	brne	.-10     	; 0x566a <__fixunssfsi+0x3c>
    5674:	3e f4       	brtc	.+14     	; 0x5684 <__fixunssfsi+0x56>
    5676:	90 95       	com	r25
    5678:	80 95       	com	r24
    567a:	70 95       	com	r23
    567c:	61 95       	neg	r22
    567e:	7f 4f       	sbci	r23, 0xFF	; 255
    5680:	8f 4f       	sbci	r24, 0xFF	; 255
    5682:	9f 4f       	sbci	r25, 0xFF	; 255
    5684:	08 95       	ret

00005686 <__floatunsisf>:
    5686:	e8 94       	clt
    5688:	09 c0       	rjmp	.+18     	; 0x569c <__floatsisf+0x12>

0000568a <__floatsisf>:
    568a:	97 fb       	bst	r25, 7
    568c:	3e f4       	brtc	.+14     	; 0x569c <__floatsisf+0x12>
    568e:	90 95       	com	r25
    5690:	80 95       	com	r24
    5692:	70 95       	com	r23
    5694:	61 95       	neg	r22
    5696:	7f 4f       	sbci	r23, 0xFF	; 255
    5698:	8f 4f       	sbci	r24, 0xFF	; 255
    569a:	9f 4f       	sbci	r25, 0xFF	; 255
    569c:	99 23       	and	r25, r25
    569e:	a9 f0       	breq	.+42     	; 0x56ca <__floatsisf+0x40>
    56a0:	f9 2f       	mov	r31, r25
    56a2:	96 e9       	ldi	r25, 0x96	; 150
    56a4:	bb 27       	eor	r27, r27
    56a6:	93 95       	inc	r25
    56a8:	f6 95       	lsr	r31
    56aa:	87 95       	ror	r24
    56ac:	77 95       	ror	r23
    56ae:	67 95       	ror	r22
    56b0:	b7 95       	ror	r27
    56b2:	f1 11       	cpse	r31, r1
    56b4:	f8 cf       	rjmp	.-16     	; 0x56a6 <__floatsisf+0x1c>
    56b6:	fa f4       	brpl	.+62     	; 0x56f6 <__floatsisf+0x6c>
    56b8:	bb 0f       	add	r27, r27
    56ba:	11 f4       	brne	.+4      	; 0x56c0 <__floatsisf+0x36>
    56bc:	60 ff       	sbrs	r22, 0
    56be:	1b c0       	rjmp	.+54     	; 0x56f6 <__floatsisf+0x6c>
    56c0:	6f 5f       	subi	r22, 0xFF	; 255
    56c2:	7f 4f       	sbci	r23, 0xFF	; 255
    56c4:	8f 4f       	sbci	r24, 0xFF	; 255
    56c6:	9f 4f       	sbci	r25, 0xFF	; 255
    56c8:	16 c0       	rjmp	.+44     	; 0x56f6 <__floatsisf+0x6c>
    56ca:	88 23       	and	r24, r24
    56cc:	11 f0       	breq	.+4      	; 0x56d2 <__floatsisf+0x48>
    56ce:	96 e9       	ldi	r25, 0x96	; 150
    56d0:	11 c0       	rjmp	.+34     	; 0x56f4 <__floatsisf+0x6a>
    56d2:	77 23       	and	r23, r23
    56d4:	21 f0       	breq	.+8      	; 0x56de <__floatsisf+0x54>
    56d6:	9e e8       	ldi	r25, 0x8E	; 142
    56d8:	87 2f       	mov	r24, r23
    56da:	76 2f       	mov	r23, r22
    56dc:	05 c0       	rjmp	.+10     	; 0x56e8 <__floatsisf+0x5e>
    56de:	66 23       	and	r22, r22
    56e0:	71 f0       	breq	.+28     	; 0x56fe <__floatsisf+0x74>
    56e2:	96 e8       	ldi	r25, 0x86	; 134
    56e4:	86 2f       	mov	r24, r22
    56e6:	70 e0       	ldi	r23, 0x00	; 0
    56e8:	60 e0       	ldi	r22, 0x00	; 0
    56ea:	2a f0       	brmi	.+10     	; 0x56f6 <__floatsisf+0x6c>
    56ec:	9a 95       	dec	r25
    56ee:	66 0f       	add	r22, r22
    56f0:	77 1f       	adc	r23, r23
    56f2:	88 1f       	adc	r24, r24
    56f4:	da f7       	brpl	.-10     	; 0x56ec <__floatsisf+0x62>
    56f6:	88 0f       	add	r24, r24
    56f8:	96 95       	lsr	r25
    56fa:	87 95       	ror	r24
    56fc:	97 f9       	bld	r25, 7
    56fe:	08 95       	ret

00005700 <__fp_inf>:
    5700:	97 f9       	bld	r25, 7
    5702:	9f 67       	ori	r25, 0x7F	; 127
    5704:	80 e8       	ldi	r24, 0x80	; 128
    5706:	70 e0       	ldi	r23, 0x00	; 0
    5708:	60 e0       	ldi	r22, 0x00	; 0
    570a:	08 95       	ret

0000570c <__fp_nan>:
    570c:	9f ef       	ldi	r25, 0xFF	; 255
    570e:	80 ec       	ldi	r24, 0xC0	; 192
    5710:	08 95       	ret

00005712 <__fp_pscA>:
    5712:	00 24       	eor	r0, r0
    5714:	0a 94       	dec	r0
    5716:	16 16       	cp	r1, r22
    5718:	17 06       	cpc	r1, r23
    571a:	18 06       	cpc	r1, r24
    571c:	09 06       	cpc	r0, r25
    571e:	08 95       	ret

00005720 <__fp_pscB>:
    5720:	00 24       	eor	r0, r0
    5722:	0a 94       	dec	r0
    5724:	12 16       	cp	r1, r18
    5726:	13 06       	cpc	r1, r19
    5728:	14 06       	cpc	r1, r20
    572a:	05 06       	cpc	r0, r21
    572c:	08 95       	ret

0000572e <__fp_round>:
    572e:	09 2e       	mov	r0, r25
    5730:	03 94       	inc	r0
    5732:	00 0c       	add	r0, r0
    5734:	11 f4       	brne	.+4      	; 0x573a <__fp_round+0xc>
    5736:	88 23       	and	r24, r24
    5738:	52 f0       	brmi	.+20     	; 0x574e <__fp_round+0x20>
    573a:	bb 0f       	add	r27, r27
    573c:	40 f4       	brcc	.+16     	; 0x574e <__fp_round+0x20>
    573e:	bf 2b       	or	r27, r31
    5740:	11 f4       	brne	.+4      	; 0x5746 <__fp_round+0x18>
    5742:	60 ff       	sbrs	r22, 0
    5744:	04 c0       	rjmp	.+8      	; 0x574e <__fp_round+0x20>
    5746:	6f 5f       	subi	r22, 0xFF	; 255
    5748:	7f 4f       	sbci	r23, 0xFF	; 255
    574a:	8f 4f       	sbci	r24, 0xFF	; 255
    574c:	9f 4f       	sbci	r25, 0xFF	; 255
    574e:	08 95       	ret

00005750 <__fp_split3>:
    5750:	57 fd       	sbrc	r21, 7
    5752:	90 58       	subi	r25, 0x80	; 128
    5754:	44 0f       	add	r20, r20
    5756:	55 1f       	adc	r21, r21
    5758:	59 f0       	breq	.+22     	; 0x5770 <__fp_splitA+0x10>
    575a:	5f 3f       	cpi	r21, 0xFF	; 255
    575c:	71 f0       	breq	.+28     	; 0x577a <__fp_splitA+0x1a>
    575e:	47 95       	ror	r20

00005760 <__fp_splitA>:
    5760:	88 0f       	add	r24, r24
    5762:	97 fb       	bst	r25, 7
    5764:	99 1f       	adc	r25, r25
    5766:	61 f0       	breq	.+24     	; 0x5780 <__fp_splitA+0x20>
    5768:	9f 3f       	cpi	r25, 0xFF	; 255
    576a:	79 f0       	breq	.+30     	; 0x578a <__fp_splitA+0x2a>
    576c:	87 95       	ror	r24
    576e:	08 95       	ret
    5770:	12 16       	cp	r1, r18
    5772:	13 06       	cpc	r1, r19
    5774:	14 06       	cpc	r1, r20
    5776:	55 1f       	adc	r21, r21
    5778:	f2 cf       	rjmp	.-28     	; 0x575e <__fp_split3+0xe>
    577a:	46 95       	lsr	r20
    577c:	f1 df       	rcall	.-30     	; 0x5760 <__fp_splitA>
    577e:	08 c0       	rjmp	.+16     	; 0x5790 <__fp_splitA+0x30>
    5780:	16 16       	cp	r1, r22
    5782:	17 06       	cpc	r1, r23
    5784:	18 06       	cpc	r1, r24
    5786:	99 1f       	adc	r25, r25
    5788:	f1 cf       	rjmp	.-30     	; 0x576c <__fp_splitA+0xc>
    578a:	86 95       	lsr	r24
    578c:	71 05       	cpc	r23, r1
    578e:	61 05       	cpc	r22, r1
    5790:	08 94       	sec
    5792:	08 95       	ret

00005794 <__fp_zero>:
    5794:	e8 94       	clt

00005796 <__fp_szero>:
    5796:	bb 27       	eor	r27, r27
    5798:	66 27       	eor	r22, r22
    579a:	77 27       	eor	r23, r23
    579c:	cb 01       	movw	r24, r22
    579e:	97 f9       	bld	r25, 7
    57a0:	08 95       	ret

000057a2 <__gesf2>:
    57a2:	66 d0       	rcall	.+204    	; 0x5870 <__fp_cmp>
    57a4:	08 f4       	brcc	.+2      	; 0x57a8 <__gesf2+0x6>
    57a6:	8f ef       	ldi	r24, 0xFF	; 255
    57a8:	08 95       	ret

000057aa <__mulsf3>:
    57aa:	0b d0       	rcall	.+22     	; 0x57c2 <__mulsf3x>
    57ac:	c0 cf       	rjmp	.-128    	; 0x572e <__fp_round>
    57ae:	b1 df       	rcall	.-158    	; 0x5712 <__fp_pscA>
    57b0:	28 f0       	brcs	.+10     	; 0x57bc <__mulsf3+0x12>
    57b2:	b6 df       	rcall	.-148    	; 0x5720 <__fp_pscB>
    57b4:	18 f0       	brcs	.+6      	; 0x57bc <__mulsf3+0x12>
    57b6:	95 23       	and	r25, r21
    57b8:	09 f0       	breq	.+2      	; 0x57bc <__mulsf3+0x12>
    57ba:	a2 cf       	rjmp	.-188    	; 0x5700 <__fp_inf>
    57bc:	a7 cf       	rjmp	.-178    	; 0x570c <__fp_nan>
    57be:	11 24       	eor	r1, r1
    57c0:	ea cf       	rjmp	.-44     	; 0x5796 <__fp_szero>

000057c2 <__mulsf3x>:
    57c2:	c6 df       	rcall	.-116    	; 0x5750 <__fp_split3>
    57c4:	a0 f3       	brcs	.-24     	; 0x57ae <__mulsf3+0x4>

000057c6 <__mulsf3_pse>:
    57c6:	95 9f       	mul	r25, r21
    57c8:	d1 f3       	breq	.-12     	; 0x57be <__mulsf3+0x14>
    57ca:	95 0f       	add	r25, r21
    57cc:	50 e0       	ldi	r21, 0x00	; 0
    57ce:	55 1f       	adc	r21, r21
    57d0:	62 9f       	mul	r22, r18
    57d2:	f0 01       	movw	r30, r0
    57d4:	72 9f       	mul	r23, r18
    57d6:	bb 27       	eor	r27, r27
    57d8:	f0 0d       	add	r31, r0
    57da:	b1 1d       	adc	r27, r1
    57dc:	63 9f       	mul	r22, r19
    57de:	aa 27       	eor	r26, r26
    57e0:	f0 0d       	add	r31, r0
    57e2:	b1 1d       	adc	r27, r1
    57e4:	aa 1f       	adc	r26, r26
    57e6:	64 9f       	mul	r22, r20
    57e8:	66 27       	eor	r22, r22
    57ea:	b0 0d       	add	r27, r0
    57ec:	a1 1d       	adc	r26, r1
    57ee:	66 1f       	adc	r22, r22
    57f0:	82 9f       	mul	r24, r18
    57f2:	22 27       	eor	r18, r18
    57f4:	b0 0d       	add	r27, r0
    57f6:	a1 1d       	adc	r26, r1
    57f8:	62 1f       	adc	r22, r18
    57fa:	73 9f       	mul	r23, r19
    57fc:	b0 0d       	add	r27, r0
    57fe:	a1 1d       	adc	r26, r1
    5800:	62 1f       	adc	r22, r18
    5802:	83 9f       	mul	r24, r19
    5804:	a0 0d       	add	r26, r0
    5806:	61 1d       	adc	r22, r1
    5808:	22 1f       	adc	r18, r18
    580a:	74 9f       	mul	r23, r20
    580c:	33 27       	eor	r19, r19
    580e:	a0 0d       	add	r26, r0
    5810:	61 1d       	adc	r22, r1
    5812:	23 1f       	adc	r18, r19
    5814:	84 9f       	mul	r24, r20
    5816:	60 0d       	add	r22, r0
    5818:	21 1d       	adc	r18, r1
    581a:	82 2f       	mov	r24, r18
    581c:	76 2f       	mov	r23, r22
    581e:	6a 2f       	mov	r22, r26
    5820:	11 24       	eor	r1, r1
    5822:	9f 57       	subi	r25, 0x7F	; 127
    5824:	50 40       	sbci	r21, 0x00	; 0
    5826:	8a f0       	brmi	.+34     	; 0x584a <__mulsf3_pse+0x84>
    5828:	e1 f0       	breq	.+56     	; 0x5862 <__mulsf3_pse+0x9c>
    582a:	88 23       	and	r24, r24
    582c:	4a f0       	brmi	.+18     	; 0x5840 <__mulsf3_pse+0x7a>
    582e:	ee 0f       	add	r30, r30
    5830:	ff 1f       	adc	r31, r31
    5832:	bb 1f       	adc	r27, r27
    5834:	66 1f       	adc	r22, r22
    5836:	77 1f       	adc	r23, r23
    5838:	88 1f       	adc	r24, r24
    583a:	91 50       	subi	r25, 0x01	; 1
    583c:	50 40       	sbci	r21, 0x00	; 0
    583e:	a9 f7       	brne	.-22     	; 0x582a <__mulsf3_pse+0x64>
    5840:	9e 3f       	cpi	r25, 0xFE	; 254
    5842:	51 05       	cpc	r21, r1
    5844:	70 f0       	brcs	.+28     	; 0x5862 <__mulsf3_pse+0x9c>
    5846:	5c cf       	rjmp	.-328    	; 0x5700 <__fp_inf>
    5848:	a6 cf       	rjmp	.-180    	; 0x5796 <__fp_szero>
    584a:	5f 3f       	cpi	r21, 0xFF	; 255
    584c:	ec f3       	brlt	.-6      	; 0x5848 <__mulsf3_pse+0x82>
    584e:	98 3e       	cpi	r25, 0xE8	; 232
    5850:	dc f3       	brlt	.-10     	; 0x5848 <__mulsf3_pse+0x82>
    5852:	86 95       	lsr	r24
    5854:	77 95       	ror	r23
    5856:	67 95       	ror	r22
    5858:	b7 95       	ror	r27
    585a:	f7 95       	ror	r31
    585c:	e7 95       	ror	r30
    585e:	9f 5f       	subi	r25, 0xFF	; 255
    5860:	c1 f7       	brne	.-16     	; 0x5852 <__mulsf3_pse+0x8c>
    5862:	fe 2b       	or	r31, r30
    5864:	88 0f       	add	r24, r24
    5866:	91 1d       	adc	r25, r1
    5868:	96 95       	lsr	r25
    586a:	87 95       	ror	r24
    586c:	97 f9       	bld	r25, 7
    586e:	08 95       	ret

00005870 <__fp_cmp>:
    5870:	99 0f       	add	r25, r25
    5872:	00 08       	sbc	r0, r0
    5874:	55 0f       	add	r21, r21
    5876:	aa 0b       	sbc	r26, r26
    5878:	e0 e8       	ldi	r30, 0x80	; 128
    587a:	fe ef       	ldi	r31, 0xFE	; 254
    587c:	16 16       	cp	r1, r22
    587e:	17 06       	cpc	r1, r23
    5880:	e8 07       	cpc	r30, r24
    5882:	f9 07       	cpc	r31, r25
    5884:	c0 f0       	brcs	.+48     	; 0x58b6 <__fp_cmp+0x46>
    5886:	12 16       	cp	r1, r18
    5888:	13 06       	cpc	r1, r19
    588a:	e4 07       	cpc	r30, r20
    588c:	f5 07       	cpc	r31, r21
    588e:	98 f0       	brcs	.+38     	; 0x58b6 <__fp_cmp+0x46>
    5890:	62 1b       	sub	r22, r18
    5892:	73 0b       	sbc	r23, r19
    5894:	84 0b       	sbc	r24, r20
    5896:	95 0b       	sbc	r25, r21
    5898:	39 f4       	brne	.+14     	; 0x58a8 <__fp_cmp+0x38>
    589a:	0a 26       	eor	r0, r26
    589c:	61 f0       	breq	.+24     	; 0x58b6 <__fp_cmp+0x46>
    589e:	23 2b       	or	r18, r19
    58a0:	24 2b       	or	r18, r20
    58a2:	25 2b       	or	r18, r21
    58a4:	21 f4       	brne	.+8      	; 0x58ae <__fp_cmp+0x3e>
    58a6:	08 95       	ret
    58a8:	0a 26       	eor	r0, r26
    58aa:	09 f4       	brne	.+2      	; 0x58ae <__fp_cmp+0x3e>
    58ac:	a1 40       	sbci	r26, 0x01	; 1
    58ae:	a6 95       	lsr	r26
    58b0:	8f ef       	ldi	r24, 0xFF	; 255
    58b2:	81 1d       	adc	r24, r1
    58b4:	81 1d       	adc	r24, r1
    58b6:	08 95       	ret

000058b8 <__udivmodqi4>:
    58b8:	99 1b       	sub	r25, r25
    58ba:	79 e0       	ldi	r23, 0x09	; 9
    58bc:	04 c0       	rjmp	.+8      	; 0x58c6 <__udivmodqi4_ep>

000058be <__udivmodqi4_loop>:
    58be:	99 1f       	adc	r25, r25
    58c0:	96 17       	cp	r25, r22
    58c2:	08 f0       	brcs	.+2      	; 0x58c6 <__udivmodqi4_ep>
    58c4:	96 1b       	sub	r25, r22

000058c6 <__udivmodqi4_ep>:
    58c6:	88 1f       	adc	r24, r24
    58c8:	7a 95       	dec	r23
    58ca:	c9 f7       	brne	.-14     	; 0x58be <__udivmodqi4_loop>
    58cc:	80 95       	com	r24
    58ce:	08 95       	ret

000058d0 <__udivmodhi4>:
    58d0:	aa 1b       	sub	r26, r26
    58d2:	bb 1b       	sub	r27, r27
    58d4:	51 e1       	ldi	r21, 0x11	; 17
    58d6:	07 c0       	rjmp	.+14     	; 0x58e6 <__udivmodhi4_ep>

000058d8 <__udivmodhi4_loop>:
    58d8:	aa 1f       	adc	r26, r26
    58da:	bb 1f       	adc	r27, r27
    58dc:	a6 17       	cp	r26, r22
    58de:	b7 07       	cpc	r27, r23
    58e0:	10 f0       	brcs	.+4      	; 0x58e6 <__udivmodhi4_ep>
    58e2:	a6 1b       	sub	r26, r22
    58e4:	b7 0b       	sbc	r27, r23

000058e6 <__udivmodhi4_ep>:
    58e6:	88 1f       	adc	r24, r24
    58e8:	99 1f       	adc	r25, r25
    58ea:	5a 95       	dec	r21
    58ec:	a9 f7       	brne	.-22     	; 0x58d8 <__udivmodhi4_loop>
    58ee:	80 95       	com	r24
    58f0:	90 95       	com	r25
    58f2:	bc 01       	movw	r22, r24
    58f4:	cd 01       	movw	r24, r26
    58f6:	08 95       	ret

000058f8 <__udivmodsi4>:
    58f8:	a1 e2       	ldi	r26, 0x21	; 33
    58fa:	1a 2e       	mov	r1, r26
    58fc:	aa 1b       	sub	r26, r26
    58fe:	bb 1b       	sub	r27, r27
    5900:	fd 01       	movw	r30, r26
    5902:	0d c0       	rjmp	.+26     	; 0x591e <__udivmodsi4_ep>

00005904 <__udivmodsi4_loop>:
    5904:	aa 1f       	adc	r26, r26
    5906:	bb 1f       	adc	r27, r27
    5908:	ee 1f       	adc	r30, r30
    590a:	ff 1f       	adc	r31, r31
    590c:	a2 17       	cp	r26, r18
    590e:	b3 07       	cpc	r27, r19
    5910:	e4 07       	cpc	r30, r20
    5912:	f5 07       	cpc	r31, r21
    5914:	20 f0       	brcs	.+8      	; 0x591e <__udivmodsi4_ep>
    5916:	a2 1b       	sub	r26, r18
    5918:	b3 0b       	sbc	r27, r19
    591a:	e4 0b       	sbc	r30, r20
    591c:	f5 0b       	sbc	r31, r21

0000591e <__udivmodsi4_ep>:
    591e:	66 1f       	adc	r22, r22
    5920:	77 1f       	adc	r23, r23
    5922:	88 1f       	adc	r24, r24
    5924:	99 1f       	adc	r25, r25
    5926:	1a 94       	dec	r1
    5928:	69 f7       	brne	.-38     	; 0x5904 <__udivmodsi4_loop>
    592a:	60 95       	com	r22
    592c:	70 95       	com	r23
    592e:	80 95       	com	r24
    5930:	90 95       	com	r25
    5932:	9b 01       	movw	r18, r22
    5934:	ac 01       	movw	r20, r24
    5936:	bd 01       	movw	r22, r26
    5938:	cf 01       	movw	r24, r30
    593a:	08 95       	ret

0000593c <__divmodsi4>:
    593c:	05 2e       	mov	r0, r21
    593e:	97 fb       	bst	r25, 7
    5940:	16 f4       	brtc	.+4      	; 0x5946 <__divmodsi4+0xa>
    5942:	00 94       	com	r0
    5944:	0f d0       	rcall	.+30     	; 0x5964 <__negsi2>
    5946:	57 fd       	sbrc	r21, 7
    5948:	05 d0       	rcall	.+10     	; 0x5954 <__divmodsi4_neg2>
    594a:	d6 df       	rcall	.-84     	; 0x58f8 <__udivmodsi4>
    594c:	07 fc       	sbrc	r0, 7
    594e:	02 d0       	rcall	.+4      	; 0x5954 <__divmodsi4_neg2>
    5950:	46 f4       	brtc	.+16     	; 0x5962 <__divmodsi4_exit>
    5952:	08 c0       	rjmp	.+16     	; 0x5964 <__negsi2>

00005954 <__divmodsi4_neg2>:
    5954:	50 95       	com	r21
    5956:	40 95       	com	r20
    5958:	30 95       	com	r19
    595a:	21 95       	neg	r18
    595c:	3f 4f       	sbci	r19, 0xFF	; 255
    595e:	4f 4f       	sbci	r20, 0xFF	; 255
    5960:	5f 4f       	sbci	r21, 0xFF	; 255

00005962 <__divmodsi4_exit>:
    5962:	08 95       	ret

00005964 <__negsi2>:
    5964:	90 95       	com	r25
    5966:	80 95       	com	r24
    5968:	70 95       	com	r23
    596a:	61 95       	neg	r22
    596c:	7f 4f       	sbci	r23, 0xFF	; 255
    596e:	8f 4f       	sbci	r24, 0xFF	; 255
    5970:	9f 4f       	sbci	r25, 0xFF	; 255
    5972:	08 95       	ret

00005974 <__tablejump2__>:
    5974:	ee 0f       	add	r30, r30
    5976:	ff 1f       	adc	r31, r31
    5978:	00 24       	eor	r0, r0
    597a:	00 1c       	adc	r0, r0
    597c:	0b be       	out	0x3b, r0	; 59
    597e:	07 90       	elpm	r0, Z+
    5980:	f6 91       	elpm	r31, Z
    5982:	e0 2d       	mov	r30, r0
    5984:	09 94       	ijmp

00005986 <__umulhisi3>:
    5986:	a2 9f       	mul	r26, r18
    5988:	b0 01       	movw	r22, r0
    598a:	b3 9f       	mul	r27, r19
    598c:	c0 01       	movw	r24, r0
    598e:	a3 9f       	mul	r26, r19
    5990:	70 0d       	add	r23, r0
    5992:	81 1d       	adc	r24, r1
    5994:	11 24       	eor	r1, r1
    5996:	91 1d       	adc	r25, r1
    5998:	b2 9f       	mul	r27, r18
    599a:	70 0d       	add	r23, r0
    599c:	81 1d       	adc	r24, r1
    599e:	11 24       	eor	r1, r1
    59a0:	91 1d       	adc	r25, r1
    59a2:	08 95       	ret

000059a4 <memset>:
    59a4:	dc 01       	movw	r26, r24
    59a6:	01 c0       	rjmp	.+2      	; 0x59aa <memset+0x6>
    59a8:	6d 93       	st	X+, r22
    59aa:	41 50       	subi	r20, 0x01	; 1
    59ac:	50 40       	sbci	r21, 0x00	; 0
    59ae:	e0 f7       	brcc	.-8      	; 0x59a8 <memset+0x4>
    59b0:	08 95       	ret

000059b2 <strncpy>:
    59b2:	fb 01       	movw	r30, r22
    59b4:	dc 01       	movw	r26, r24
    59b6:	41 50       	subi	r20, 0x01	; 1
    59b8:	50 40       	sbci	r21, 0x00	; 0
    59ba:	48 f0       	brcs	.+18     	; 0x59ce <strncpy+0x1c>
    59bc:	01 90       	ld	r0, Z+
    59be:	0d 92       	st	X+, r0
    59c0:	00 20       	and	r0, r0
    59c2:	c9 f7       	brne	.-14     	; 0x59b6 <strncpy+0x4>
    59c4:	01 c0       	rjmp	.+2      	; 0x59c8 <strncpy+0x16>
    59c6:	1d 92       	st	X+, r1
    59c8:	41 50       	subi	r20, 0x01	; 1
    59ca:	50 40       	sbci	r21, 0x00	; 0
    59cc:	e0 f7       	brcc	.-8      	; 0x59c6 <strncpy+0x14>
    59ce:	08 95       	ret

000059d0 <_exit>:
    59d0:	f8 94       	cli

000059d2 <__stop_program>:
    59d2:	ff cf       	rjmp	.-2      	; 0x59d2 <__stop_program>
